; generated by ARM C/C++ Compiler, 4.1 [Build 644]
; commandline ArmCC [--list --debug -c --asm --interleave -o.\EXE\snmp_data_file.o --asm_dir=.\ --list_dir=.\ --depend=.\EXE\snmp_data_file.d --feedback=.\EXE\UKU_VD.fed --cpu=Cortex-M3 --apcs=interwork -O1 -IC:\Keil\ARM\CMSIS\Include -IC:\Keil\ARM\INC\NXP\LPC17xx -D__MICROLIB -DUKU_VD -DUKU_220_IPS_TERMOKOMPENSAT -DUKU2071x --omf_browse=.\EXE\snmp_data_file.crf snmp_data_file.c]
                          THUMB

                          AREA ||.text||, CODE, READONLY, ALIGN=2

                  snmp_data PROC
;;;259    //-----------------------------------------------
;;;260    void snmp_data (void) 
000000  e92d5ff0          PUSH     {r4-r12,lr}
;;;261    {
;;;262    char i;
;;;263    
;;;264    snmp_mains_power_voltage=net_U;
000004  4cfe              LDR      r4,|L1.1024|
000006  4fff              LDR      r7,|L1.1028|
000008  8820              LDRH     r0,[r4,#0]  ; net_U
00000a  83b8              STRH     r0,[r7,#0x1c]
;;;265    #ifdef UKU_220_IPS_TERMOKOMPENSAT
;;;266    snmp_mains_power_frequency=net_F3;
00000c  48fe              LDR      r0,|L1.1032|
00000e  8800              LDRH     r0,[r0,#0]  ; net_F3
000010  83f8              STRH     r0,[r7,#0x1e]
;;;267    #else
;;;268    snmp_mains_power_frequency=net_F;
;;;269    #endif
;;;270    snmp_mains_power_voltage_phaseA=net_Ua;
000012  48fe              LDR      r0,|L1.1036|
000014  8800              LDRH     r0,[r0,#0]  ; net_Ua
000016  8438              STRH     r0,[r7,#0x20]
;;;271    snmp_mains_power_voltage_phaseB=net_Ub;
000018  48fd              LDR      r0,|L1.1040|
00001a  8800              LDRH     r0,[r0,#0]  ; net_Ub
00001c  8478              STRH     r0,[r7,#0x22]
;;;272    snmp_mains_power_voltage_phaseC=net_Uc;
00001e  48fd              LDR      r0,|L1.1044|
000020  8800              LDRH     r0,[r0,#0]  ; net_Uc
000022  84b8              STRH     r0,[r7,#0x24]
;;;273    
;;;274    /*
;;;275    snmp_mains_power_status=0; 
;;;276    #if(UKU_VERSION==900)
;;;277    snmp_mains_power_status=2;
;;;278    #endif
;;;279    if(St&0x01)snmp_mains_power_status|=0x01;
;;;280    if(St&0x01)snmp_mains_power_alarm=1;
;;;281    
;;;282    
;;;283    
;;;284    
;;;285    
;;;286    
;;;287    for(i=0;i<snmp_numofevents;i++)event2snmp(i);
;;;288    //snmp_bpsnumber[0]=1;
;;;289    //snmp_bpsnumber[1]=2;
;;;290    
;;;291    snmp_sernum=AUSW_MAIN_NUMBER;
;;;292    snmp_sernum_lsb=0x1122;
;;;293    snmp_sernum_msb=0x3344;
;;;294    snmp_device_code=AUSW_MAIN;
;;;295    
;;;296    //memcpy(snmp_location,"lkhg;la",);
;;;297    
;;;298    
;;;299    snmp_numofbat=1;
;;;300    
;;;301    */
;;;302    
;;;303    snmp_load_voltage=load_U;
000024  48fc              LDR      r0,|L1.1048|
000026  8800              LDRH     r0,[r0,#0]  ; load_U
000028  84f8              STRH     r0,[r7,#0x26]
;;;304    snmp_load_current=load_I;
00002a  48fc              LDR      r0,|L1.1052|
00002c  8800              LDRH     r0,[r0,#0]  ; load_I
00002e  8538              STRH     r0,[r7,#0x28]
;;;305    snmp_numofbat=NUMBAT;
000030  48fb              LDR      r0,|L1.1056|
000032  8800              LDRH     r0,[r0,#0]  ; NUMBAT
000034  81f8              STRH     r0,[r7,#0xe]
;;;306    snmp_numofbps=NUMIST;
000036  4dfb              LDR      r5,|L1.1060|
000038  8828              LDRH     r0,[r5,#0]  ; NUMIST
00003a  8238              STRH     r0,[r7,#0x10]
;;;307    snmp_numofinv=NUMINV;
00003c  48fa              LDR      r0,|L1.1064|
00003e  8800              LDRH     r0,[r0,#0]  ; NUMINV
000040  8278              STRH     r0,[r7,#0x12]
;;;308    snmp_numofavt=NUMAVT;
000042  48fa              LDR      r0,|L1.1068|
000044  8800              LDRH     r0,[r0,#0]  ; NUMAVT
000046  82b8              STRH     r0,[r7,#0x14]
;;;309    snmp_numofdt=NUMDT;
000048  48f9              LDR      r0,|L1.1072|
00004a  8800              LDRH     r0,[r0,#0]  ; NUMDT
00004c  82f8              STRH     r0,[r7,#0x16]
;;;310    snmp_numofsk=NUMSK;
00004e  48f9              LDR      r0,|L1.1076|
000050  8800              LDRH     r0,[r0,#0]  ; NUMSK
000052  8338              STRH     r0,[r7,#0x18]
;;;311    snmp_numofevents=lc640_read_int(CNT_EVENT_LOG);
000054  f6406002          MOV      r0,#0xe02
000058  f7fffffe          BL       lc640_read_int
00005c  8378              STRH     r0,[r7,#0x1a]
;;;312    
;;;313    snmp_energy_vvod_phase_a=Uvv_eb2[0];
00005e  48f6              LDR      r0,|L1.1080|
000060  8800              LDRH     r0,[r0,#0]  ; Uvv_eb2
000062  8638              STRH     r0,[r7,#0x30]
;;;314    snmp_energy_vvod_phase_b=Uvv_eb2[1];
000064  48f4              LDR      r0,|L1.1080|
000066  8840              LDRH     r0,[r0,#2]  ; Uvv_eb2
000068  8678              STRH     r0,[r7,#0x32]
;;;315    snmp_energy_vvod_phase_c=Uvv_eb2[2];
00006a  48f3              LDR      r0,|L1.1080|
00006c  8880              LDRH     r0,[r0,#4]  ; Uvv_eb2
00006e  86b8              STRH     r0,[r7,#0x34]
;;;316    snmp_energy_pes_phase_a=Upes_eb2[0];
000070  48f2              LDR      r0,|L1.1084|
000072  8801              LDRH     r1,[r0,#0]  ; Upes_eb2
000074  86f9              STRH     r1,[r7,#0x36]
;;;317    snmp_energy_pes_phase_b=Upes_eb2[1];
000076  8841              LDRH     r1,[r0,#2]  ; Upes_eb2
000078  8739              STRH     r1,[r7,#0x38]
;;;318    snmp_energy_pes_phase_c=Upes_eb2[2];
00007a  8880              LDRH     r0,[r0,#4]  ; Upes_eb2
00007c  8778              STRH     r0,[r7,#0x3a]
;;;319    
;;;320    #ifdef UKU_KONTUR
;;;321    snmp_energy_vvod_phase_a=Uvv0;
;;;322    snmp_energy_pes_phase_a=Uvv[1];
;;;323    #endif
;;;324    
;;;325    snmp_energy_total_energy=power_summary;
00007e  48f0              LDR      r0,|L1.1088|
000080  6801              LDR      r1,[r0,#0]  ; power_summary
000082  f1070080          ADD      r0,r7,#0x80
000086  6401              STR      r1,[r0,#0x40]  ; snmp_energy_total_energy
;;;326    snmp_energy_current_energy=power_current;
000088  48ee              LDR      r0,|L1.1092|
00008a  8800              LDRH     r0,[r0,#0]  ; power_current
00008c  87f8              STRH     r0,[r7,#0x3e]
;;;327    snmp_energy_input_voltage=net_U;
00008e  8820              LDRH     r0,[r4,#0]  ; net_U
000090  87b8              STRH     r0,[r7,#0x3c]
;;;328    
;;;329    snmp_bat_number[0]=1;
000092  f1070ca0          ADD      r12,r7,#0xa0
000096  f04f0001          MOV      r0,#1
00009a  f8ac0000          STRH     r0,[r12,#0]
;;;330    snmp_bat_voltage[0]=bat[0]._Ub;
00009e  4aea              LDR      r2,|L1.1096|
0000a0  f1070aa4          ADD      r10,r7,#0xa4
0000a4  8851              LDRH     r1,[r2,#2]  ; bat
0000a6  f8aa1000          STRH     r1,[r10,#0]
;;;331    snmp_bat_part_voltage[0]=bat[0]._Ubm;
0000aa  f1070ebc          ADD      lr,r7,#0xbc
0000ae  8891              LDRH     r1,[r2,#4]  ; bat
0000b0  f8ae1000          STRH     r1,[lr,#0]
;;;332    snmp_bat_current[0]=bat[0]._Ib;
0000b4  f10706a8          ADD      r6,r7,#0xa8
0000b8  8911              LDRH     r1,[r2,#8]  ; bat
0000ba  8031              STRH     r1,[r6,#0]
;;;333    
;;;334    #ifdef UKU_220_IPS_TERMOKOMPENSAT
;;;335    if(((AUSW_MAIN==22063)||(AUSW_MAIN==22023))&&(bps[8]._device==dIBAT_METR))
0000bc  49e3              LDR      r1,|L1.1100|
0000be  8809              LDRH     r1,[r1,#0]  ; AUSW_MAIN
0000c0  f5a143ac          SUB      r3,r1,#0x5600
0000c4  3b2f              SUBS     r3,r3,#0x2f
0000c6  d001              BEQ      |L1.204|
0000c8  3328              ADDS     r3,r3,#0x28
0000ca  d107              BNE      |L1.220|
                  |L1.204|
0000cc  49e0              LDR      r1,|L1.1104|
0000ce  f8911340          LDRB     r1,[r1,#0x340]  ; bps
0000d2  2909              CMP      r1,#9
0000d4  d102              BNE      |L1.220|
;;;336    	{
;;;337    	snmp_bat_current[0]=Ib_ips_termokompensat;
0000d6  49df              LDR      r1,|L1.1108|
0000d8  8809              LDRH     r1,[r1,#0]  ; Ib_ips_termokompensat
0000da  8031              STRH     r1,[r6,#0]
                  |L1.220|
;;;338    	}
;;;339    #endif
;;;340    
;;;341    snmp_bat_temperature[0]=bat[0]._Tb;
0000dc  f8dfb324          LDR      r11,|L1.1028|
0000e0  8951              LDRH     r1,[r2,#0xa]  ; bat
0000e2  f10b0bac          ADD      r11,r11,#0xac
0000e6  f8ab1000          STRH     r1,[r11,#0]
;;;342    if(BAT_C_REAL[0]==0x5555)snmp_bat_capacity[0]=BAT_C_NOM[0];
0000ea  f8df936c          LDR      r9,|L1.1112|
0000ee  f10b0304          ADD      r3,r11,#4
0000f2  f9b91000          LDRSH    r1,[r9,#0]  ; BAT_C_REAL
0000f6  f5a144aa          SUB      r4,r1,#0x5500
0000fa  3c55              SUBS     r4,r4,#0x55
0000fc  d103              BNE      |L1.262|
0000fe  49d7              LDR      r1,|L1.1116|
000100  8809              LDRH     r1,[r1,#0]  ; BAT_C_NOM
000102  8019              STRH     r1,[r3,#0]
000104  e000              B        |L1.264|
                  |L1.262|
;;;343    else snmp_bat_capacity[0]=BAT_C_REAL[0];
000106  8019              STRH     r1,[r3,#0]
                  |L1.264|
;;;344    snmp_bat_charge[0]=bat[0]._zar;
000108  49be              LDR      r1,|L1.1028|
00010a  8a14              LDRH     r4,[r2,#0x10]  ; bat
00010c  31b4              ADDS     r1,r1,#0xb4
00010e  800c              STRH     r4,[r1,#0]
;;;345    snmp_bat_status[0]=bat[0]._av;
000110  4cbc              LDR      r4,|L1.1028|
000112  f892103d          LDRB     r1,[r2,#0x3d]  ; bat
000116  34b8              ADDS     r4,r4,#0xb8
000118  8021              STRH     r1,[r4,#0]
;;;346    if(BAT_IS_ON[0]!=bisON)snmp_bat_status[0]=0xff;
00011a  49d1              LDR      r1,|L1.1120|
00011c  f8918000          LDRB     r8,[r1,#0]  ; BAT_IS_ON
000120  21ff              MOVS     r1,#0xff
000122  f1b80f55          CMP      r8,#0x55
000126  d000              BEQ      |L1.298|
000128  8021              STRH     r1,[r4,#0]
                  |L1.298|
;;;347    
;;;348    snmp_bat_number[1]=2;
00012a  f04f0802          MOV      r8,#2
00012e  f8ac8002          STRH     r8,[r12,#2]
;;;349    snmp_bat_voltage[1]=bat[1]._Ub;
000132  f8b2c04e          LDRH     r12,[r2,#0x4e]  ; bat
000136  f8aac002          STRH     r12,[r10,#2]
;;;350    snmp_bat_part_voltage[1]=bat[1]._Ubm;
00013a  f8b2c050          LDRH     r12,[r2,#0x50]  ; bat
00013e  f8aec002          STRH     r12,[lr,#2]
;;;351    snmp_bat_current[1]=bat[1]._Ib;
000142  f8b2c054          LDRH     r12,[r2,#0x54]  ; bat
000146  f8a6c002          STRH     r12,[r6,#2]
;;;352    snmp_bat_temperature[1]=bat[1]._Tb;
00014a  f8b26056          LDRH     r6,[r2,#0x56]  ; bat
00014e  f8ab6002          STRH     r6,[r11,#2]
;;;353    if(BAT_C_REAL[1]==0x5555)snmp_bat_capacity[1]=BAT_C_NOM[1];
000152  f9b96002          LDRSH    r6,[r9,#2]  ; BAT_C_REAL
000156  f5a64caa          SUB      r12,r6,#0x5500
00015a  f1bc0c55          SUBS     r12,r12,#0x55
00015e  d103              BNE      |L1.360|
000160  4ebe              LDR      r6,|L1.1116|
000162  8876              LDRH     r6,[r6,#2]  ; BAT_C_NOM
000164  805e              STRH     r6,[r3,#2]
000166  e000              B        |L1.362|
                  |L1.360|
;;;354    else snmp_bat_capacity[1]=BAT_C_REAL[1];
000168  805e              STRH     r6,[r3,#2]
                  |L1.362|
;;;355    snmp_bat_charge[1]=bat[1]._zar;
00016a  4ba6              LDR      r3,|L1.1028|
00016c  f8b2605c          LDRH     r6,[r2,#0x5c]  ; bat
000170  33b4              ADDS     r3,r3,#0xb4
000172  805e              STRH     r6,[r3,#2]
;;;356    snmp_bat_status[1]=bat[1]._av;
000174  f8922089          LDRB     r2,[r2,#0x89]  ; bat
000178  8062              STRH     r2,[r4,#2]
;;;357    if(BAT_IS_ON[1]!=bisON)snmp_bat_status[1]=0xff;
00017a  4ab9              LDR      r2,|L1.1120|
00017c  7852              LDRB     r2,[r2,#1]  ; BAT_IS_ON
00017e  2a55              CMP      r2,#0x55
000180  d000              BEQ      |L1.388|
000182  8061              STRH     r1,[r4,#2]
                  |L1.388|
;;;358    
;;;359    
;;;360    
;;;361    snmp_bps_number[0]=1;
000184  4eb7              LDR      r6,|L1.1124|
000186  8030              STRH     r0,[r6,#0]
;;;362    snmp_bps_voltage[0]=bps[0]._Uii;
000188  4bb1              LDR      r3,|L1.1104|
00018a  f1060c10          ADD      r12,r6,#0x10
00018e  69da              LDR      r2,[r3,#0x1c]  ; bps
000190  f8ac2000          STRH     r2,[r12,#0]
;;;363    snmp_bps_current[0]=bps[0]._Ii;
000194  f1060920          ADD      r9,r6,#0x20
000198  6a5a              LDR      r2,[r3,#0x24]  ; bps
00019a  f8a92000          STRH     r2,[r9,#0]
;;;364    snmp_bps_temperature[0]=bps[0]._Ti;
00019e  f1060a30          ADD      r10,r6,#0x30
0001a2  6a9a              LDR      r2,[r3,#0x28]  ; bps
0001a4  f8aa2000          STRH     r2,[r10,#0]
;;;365    snmp_bps_stat[0]=bps[0]._av;
0001a8  f1060440          ADD      r4,r6,#0x40
0001ac  785a              LDRB     r2,[r3,#1]  ; bps
0001ae  8022              STRH     r2,[r4,#0]
;;;366    if(!(NUMIST>0))snmp_bps_stat[0]=0xff;												//Байт состояния БПСа.
0001b0  f9b52000          LDRSH    r2,[r5,#0]  ; NUMIST
0001b4  2a00              CMP      r2,#0
0001b6  dc00              BGT      |L1.442|
0001b8  8021              STRH     r1,[r4,#0]
                  |L1.442|
;;;367    
;;;368    /*if(St_[0]&(1<<2))snmp_bps_stat[0]=(1<<3); 							//авария по Umin
;;;369    else if(St_[0]&(1<<3))snmp_bps_stat[0]=(1<<2); 						//авария по Umax
;;;370    else if(bps[0]._av&(1<<0))snmp_bps_stat[0]=(1<<1); 						//авария по Tmax
;;;371    else if(St_[0]&(1<<5))snmp_bps_stat[0]=(1<<5); 						//заблокирован
;;;372    else if((!(St_[0]&0x3c))&&(!St&0x01)&&(!OFFBP1))snmp_bps_stat[0]=1; 		//Работает
;;;373    */
;;;374    
;;;375    snmp_bps_number[1]=2;
0001ba  f8a68002          STRH     r8,[r6,#2]
;;;376    snmp_bps_voltage[1]=bps[1]._Uii;
0001be  f1030368          ADD      r3,r3,#0x68
0001c2  69dd              LDR      r5,[r3,#0x1c]  ; bps
0001c4  f8ac5002          STRH     r5,[r12,#2]
;;;377    snmp_bps_current[1]=bps[1]._Ii;
0001c8  6a5d              LDR      r5,[r3,#0x24]  ; bps
0001ca  f8a95002          STRH     r5,[r9,#2]
;;;378    snmp_bps_temperature[1]=bps[1]._Ti;
0001ce  6a9d              LDR      r5,[r3,#0x28]  ; bps
0001d0  f8aa5002          STRH     r5,[r10,#2]
;;;379    snmp_bps_stat[1]=bps[1]._av;
0001d4  785d              LDRB     r5,[r3,#1]  ; bps
0001d6  f1a30368          SUB      r3,r3,#0x68
0001da  8065              STRH     r5,[r4,#2]
;;;380    if(!(NUMIST>1))snmp_bps_stat[1]=0xff;												//Байт состояния БПСа.
0001dc  2a01              CMP      r2,#1
0001de  dc00              BGT      |L1.482|
0001e0  8061              STRH     r1,[r4,#2]
                  |L1.482|
;;;381    /*if(St_[1]&(1<<2))snmp_bps_stat[1]=(1<<3); 							//авария по Umin
;;;382    else if(St_[1]&(1<<3))snmp_bps_stat[1]=(1<<2); 						//авария по Umax
;;;383    else if(St_[1]&(1<<4))snmp_bps_stat[1]=(1<<1); 						//авария по Tmax
;;;384    else if(St_[1]&(1<<5))snmp_bps_stat[1]=(1<<5); 						//заблокирован
;;;385    else if((!(St_[1]&0x3c))&&(!St&0x01)&&(!OFFBP2))snmp_bps_stat[1]=1; 		//Работает
;;;386    */
;;;387    
;;;388    snmp_bps_number[2]=3;
0001e2  f04f0b03          MOV      r11,#3
0001e6  f8a6b004          STRH     r11,[r6,#4]
;;;389    snmp_bps_voltage[2]=bps[2]._Uii;
0001ea  f10303d0          ADD      r3,r3,#0xd0
0001ee  69dd              LDR      r5,[r3,#0x1c]  ; bps
0001f0  f8ac5004          STRH     r5,[r12,#4]
;;;390    snmp_bps_current[2]=bps[2]._Ii;
0001f4  6a5d              LDR      r5,[r3,#0x24]  ; bps
0001f6  f8a95004          STRH     r5,[r9,#4]
;;;391    snmp_bps_temperature[2]=bps[2]._Ti;
0001fa  6a9d              LDR      r5,[r3,#0x28]  ; bps
0001fc  f8aa5004          STRH     r5,[r10,#4]
;;;392    snmp_bps_stat[2]=bps[2]._av;
000200  785d              LDRB     r5,[r3,#1]  ; bps
000202  f1a303d0          SUB      r3,r3,#0xd0
000206  80a5              STRH     r5,[r4,#4]
;;;393    if(!(NUMIST>2))snmp_bps_stat[2]=0xff;
000208  2a02              CMP      r2,#2
00020a  dc00              BGT      |L1.526|
00020c  80a1              STRH     r1,[r4,#4]
                  |L1.526|
;;;394    
;;;395    snmp_bps_number[3]=4;
00020e  f04f0504          MOV      r5,#4
000212  80f5              STRH     r5,[r6,#6]
;;;396    snmp_bps_voltage[3]=bps[3]._Uii;
000214  f8d35154          LDR      r5,[r3,#0x154]  ; bps
000218  f8ac5006          STRH     r5,[r12,#6]
;;;397    snmp_bps_current[3]=bps[3]._Ii;
00021c  f8d3515c          LDR      r5,[r3,#0x15c]  ; bps
000220  f8a95006          STRH     r5,[r9,#6]
;;;398    snmp_bps_temperature[3]=bps[3]._Ti;
000224  f8d35160          LDR      r5,[r3,#0x160]  ; bps
000228  f8aa5006          STRH     r5,[r10,#6]
;;;399    snmp_bps_stat[3]=bps[3]._av;
00022c  f8935139          LDRB     r5,[r3,#0x139]  ; bps
000230  80e5              STRH     r5,[r4,#6]
;;;400    if(!(NUMIST>3))snmp_bps_stat[3]=0xff;
000232  2a03              CMP      r2,#3
000234  dc00              BGT      |L1.568|
000236  80e1              STRH     r1,[r4,#6]
                  |L1.568|
;;;401    
;;;402    snmp_bps_number[4]=5;
000238  f04f0505          MOV      r5,#5
00023c  8135              STRH     r5,[r6,#8]
;;;403    snmp_bps_voltage[4]=bps[4]._Uii;
00023e  f8d351bc          LDR      r5,[r3,#0x1bc]  ; bps
000242  f8ac5008          STRH     r5,[r12,#8]
;;;404    snmp_bps_current[4]=bps[4]._Ii;
000246  f8d351c4          LDR      r5,[r3,#0x1c4]  ; bps
00024a  f8a95008          STRH     r5,[r9,#8]
;;;405    snmp_bps_temperature[4]=bps[4]._Ti;
00024e  f8d351c8          LDR      r5,[r3,#0x1c8]  ; bps
000252  f8aa5008          STRH     r5,[r10,#8]
;;;406    snmp_bps_stat[4]=bps[4]._av;
000256  f89351a1          LDRB     r5,[r3,#0x1a1]  ; bps
00025a  8125              STRH     r5,[r4,#8]
;;;407    if(!(NUMIST>4))snmp_bps_stat[4]=0xff;
00025c  2a04              CMP      r2,#4
00025e  dc00              BGT      |L1.610|
000260  8121              STRH     r1,[r4,#8]
                  |L1.610|
;;;408    
;;;409    snmp_bps_number[5]=6;
000262  f04f0506          MOV      r5,#6
000266  8175              STRH     r5,[r6,#0xa]
;;;410    snmp_bps_voltage[5]=bps[5]._Uii;
000268  f8d35224          LDR      r5,[r3,#0x224]  ; bps
00026c  f8ac500a          STRH     r5,[r12,#0xa]
;;;411    snmp_bps_current[5]=bps[5]._Ii;
000270  f8d3522c          LDR      r5,[r3,#0x22c]  ; bps
000274  f8a9500a          STRH     r5,[r9,#0xa]
;;;412    snmp_bps_temperature[5]=bps[5]._Ti;
000278  f8d35230          LDR      r5,[r3,#0x230]  ; bps
00027c  f8aa500a          STRH     r5,[r10,#0xa]
;;;413    snmp_bps_stat[5]=bps[5]._av;
000280  f8935209          LDRB     r5,[r3,#0x209]  ; bps
000284  8165              STRH     r5,[r4,#0xa]
;;;414    if(!(NUMIST>5))snmp_bps_stat[5]=0xff;
000286  2a05              CMP      r2,#5
000288  dc00              BGT      |L1.652|
00028a  8161              STRH     r1,[r4,#0xa]
                  |L1.652|
;;;415    
;;;416    snmp_bps_number[6]=7;
00028c  f04f0507          MOV      r5,#7
000290  81b5              STRH     r5,[r6,#0xc]
;;;417    snmp_bps_voltage[6]=bps[6]._Uii;
000292  f8d3528c          LDR      r5,[r3,#0x28c]  ; bps
000296  f8ac500c          STRH     r5,[r12,#0xc]
;;;418    snmp_bps_current[6]=bps[6]._Ii;
00029a  f8d35294          LDR      r5,[r3,#0x294]  ; bps
00029e  f8a9500c          STRH     r5,[r9,#0xc]
;;;419    snmp_bps_temperature[6]=bps[6]._Ti;
0002a2  f8d35298          LDR      r5,[r3,#0x298]  ; bps
0002a6  f8aa500c          STRH     r5,[r10,#0xc]
;;;420    snmp_bps_stat[6]=bps[6]._av;
0002aa  f8935271          LDRB     r5,[r3,#0x271]  ; bps
0002ae  81a5              STRH     r5,[r4,#0xc]
;;;421    if(!(NUMIST>6))snmp_bps_stat[6]=0xff;
0002b0  2a06              CMP      r2,#6
0002b2  dc00              BGT      |L1.694|
0002b4  81a1              STRH     r1,[r4,#0xc]
                  |L1.694|
;;;422    
;;;423    snmp_bps_number[7]=8;
0002b6  f04f0508          MOV      r5,#8
0002ba  81f5              STRH     r5,[r6,#0xe]
;;;424    snmp_bps_voltage[7]=bps[7]._Uii;
0002bc  f5037336          ADD      r3,r3,#0x2d8
0002c0  69dd              LDR      r5,[r3,#0x1c]  ; bps
0002c2  f8ac500e          STRH     r5,[r12,#0xe]
;;;425    snmp_bps_current[7]=bps[7]._Ii;
0002c6  6a5d              LDR      r5,[r3,#0x24]  ; bps
0002c8  f8a9500e          STRH     r5,[r9,#0xe]
;;;426    snmp_bps_temperature[7]=bps[7]._Ti;
0002cc  6a9d              LDR      r5,[r3,#0x28]  ; bps
0002ce  f8aa500e          STRH     r5,[r10,#0xe]
;;;427    snmp_bps_stat[7]=bps[7]._av;
0002d2  785b              LDRB     r3,[r3,#1]  ; bps
0002d4  81e3              STRH     r3,[r4,#0xe]
;;;428    if(!(NUMIST>7))snmp_bps_stat[7]=0xff;
0002d6  2a07              CMP      r2,#7
0002d8  dc00              BGT      |L1.732|
0002da  81e1              STRH     r1,[r4,#0xe]
                  |L1.732|
;;;429    
;;;430    
;;;431    
;;;432    snmp_inv_number[0]=1;
0002dc  4a49              LDR      r2,|L1.1028|
0002de  32d8              ADDS     r2,r2,#0xd8
0002e0  8010              STRH     r0,[r2,#0]
;;;433    snmp_inv_voltage[0]=inv[0]._Uio;
0002e2  4961              LDR      r1,|L1.1128|
0002e4  1d93              ADDS     r3,r2,#6
0002e6  698c              LDR      r4,[r1,#0x18]  ; inv
0002e8  801c              STRH     r4,[r3,#0]
;;;434    snmp_inv_current[0]=inv[0]._Ii;
0002ea  1d9c              ADDS     r4,r3,#6
0002ec  69cd              LDR      r5,[r1,#0x1c]  ; inv
0002ee  8025              STRH     r5,[r4,#0]
;;;435    snmp_inv_temperature[0]=inv[0]._Ti;
0002f0  1da5              ADDS     r5,r4,#6
0002f2  6a0e              LDR      r6,[r1,#0x20]  ; inv
0002f4  802e              STRH     r6,[r5,#0]
;;;436    snmp_inv_stat[0]=inv[0]._flags_tm;
0002f6  1dae              ADDS     r6,r5,#6
0002f8  f891c046          LDRB     r12,[r1,#0x46]  ; inv
0002fc  f8a6c000          STRH     r12,[r6,#0]
;;;437    
;;;438    snmp_inv_number[1]=2;
000300  f8a28002          STRH     r8,[r2,#2]
;;;439    snmp_inv_voltage[1]=inv[1]._Uio;
000304  f8d1c078          LDR      r12,[r1,#0x78]  ; inv
000308  f8a3c002          STRH     r12,[r3,#2]
;;;440    snmp_inv_current[1]=inv[1]._Ii;
00030c  f8d1c07c          LDR      r12,[r1,#0x7c]  ; inv
000310  f8a4c002          STRH     r12,[r4,#2]
;;;441    snmp_inv_temperature[1]=inv[1]._Ti;
000314  f8d1c080          LDR      r12,[r1,#0x80]  ; inv
000318  f8a5c002          STRH     r12,[r5,#2]
;;;442    snmp_inv_stat[1]=inv[1]._flags_tm;
00031c  f891c0a6          LDRB     r12,[r1,#0xa6]  ; inv
000320  f8a6c002          STRH     r12,[r6,#2]
;;;443    
;;;444    snmp_inv_number[2]=3;
000324  46d9              MOV      r9,r11
000326  f8a2b004          STRH     r11,[r2,#4]
;;;445    snmp_inv_voltage[2]=inv[2]._Uio;
00032a  f8d120d8          LDR      r2,[r1,#0xd8]  ; inv
00032e  809a              STRH     r2,[r3,#4]
;;;446    snmp_inv_current[2]=inv[2]._Ii;
000330  f8d120dc          LDR      r2,[r1,#0xdc]  ; inv
000334  80a2              STRH     r2,[r4,#4]
;;;447    snmp_inv_temperature[2]=inv[2]._Ti;
000336  f8d120e0          LDR      r2,[r1,#0xe0]  ; inv
00033a  80aa              STRH     r2,[r5,#4]
;;;448    snmp_inv_stat[2]=inv[2]._flags_tm;
00033c  f8911106          LDRB     r1,[r1,#0x106]  ; inv
000340  80b1              STRH     r1,[r6,#4]
;;;449    
;;;450    
;;;451    
;;;452    
;;;453    					  
;;;454    snmp_sk_number[0]=1;
000342  f1a30e1a          SUB      lr,r3,#0x1a
000346  f88e0000          STRB     r0,[lr,#0]
;;;455    memcpy(&snmp_sk_name[0][0],"Door",10);
00034a  4d46              LDR      r5,|L1.1124|
00034c  a147              ADR      r1,|L1.1132|
00034e  f1050588          ADD      r5,r5,#0x88
000352  680a              LDR      r2,[r1,#0]
000354  646a              STR      r2,[r5,#0x44]  ; snmp_sk_name
000356  684a              LDR      r2,[r1,#4]
000358  64aa              STR      r2,[r5,#0x48]  ; snmp_sk_name
00035a  8909              LDRH     r1,[r1,#8]
00035c  f8a5104c          STRH     r1,[r5,#0x4c]
;;;456    if(sk_stat[0]==ssON) snmp_sk_aktiv[0]=1;
000360  f8dfb110          LDR      r11,|L1.1140|
000364  f1a4021c          SUB      r2,r4,#0x1c
;;;457    else snmp_sk_aktiv[0]=0;
000368  f04f0100          MOV      r1,#0
00036c  f89b3000          LDRB     r3,[r11,#0]           ;456  ; sk_stat
000370  2b01              CMP      r3,#1                 ;456
000372  d043              BEQ      |L1.1020|
000374  7011              STRB     r1,[r2,#0]
                  |L1.886|
;;;458    if(!SK_SIGN[0])snmp_sk_alarm_aktiv[0]=1;
000376  4b40              LDR      r3,|L1.1144|
000378  881c              LDRH     r4,[r3,#0]  ; SK_SIGN
00037a  4b22              LDR      r3,|L1.1028|
00037c  33cc              ADDS     r3,r3,#0xcc
00037e  2c00              CMP      r4,#0
000380  d03d              BEQ      |L1.1022|
;;;459    else snmp_sk_alarm_aktiv[0]=0;
000382  7019              STRB     r1,[r3,#0]
                  |L1.900|
;;;460    if(sk_av_stat[0]==sasON)	snmp_sk_alarm[0]=1;
000384  f8dfa0f4          LDR      r10,|L1.1148|
000388  4c1e              LDR      r4,|L1.1028|
00038a  f89a6000          LDRB     r6,[r10,#0]  ; sk_av_stat
00038e  34d0              ADDS     r4,r4,#0xd0
000390  2e01              CMP      r6,#1
000392  d07d              BEQ      |L1.1168|
;;;461    else                     snmp_sk_alarm[0]=0;
000394  7021              STRB     r1,[r4,#0]
                  |L1.918|
;;;462    
;;;463    
;;;464    snmp_sk_number[1]=2;
000396  f88e8001          STRB     r8,[lr,#1]
;;;465    memcpy(&snmp_sk_name[1][0],"Smoke",10);
00039a  a639              ADR      r6,|L1.1152|
00039c  f8d6c000          LDR      r12,[r6,#0]
0003a0  f8c5c058          STR      r12,[r5,#0x58]  ; snmp_sk_name
0003a4  f8d6c004          LDR      r12,[r6,#4]
0003a8  f8c5c05c          STR      r12,[r5,#0x5c]  ; snmp_sk_name
0003ac  8936              LDRH     r6,[r6,#8]
0003ae  f8a56060          STRH     r6,[r5,#0x60]
;;;466    if(sk_stat[1]==ssON) snmp_sk_aktiv[1]=1;
0003b2  f89b6001          LDRB     r6,[r11,#1]  ; sk_stat
0003b6  2e01              CMP      r6,#1
0003b8  d06b              BEQ      |L1.1170|
;;;467    else snmp_sk_aktiv[1]=0;
0003ba  7051              STRB     r1,[r2,#1]
                  |L1.956|
;;;468    if(!SK_SIGN[1])snmp_sk_alarm_aktiv[1]=1;
0003bc  4e2e              LDR      r6,|L1.1144|
0003be  f8b6c002          LDRH     r12,[r6,#2]  ; SK_SIGN
0003c2  f1bc0f00          CMP      r12,#0
0003c6  d065              BEQ      |L1.1172|
;;;469    else snmp_sk_alarm_aktiv[1]=0;
0003c8  7059              STRB     r1,[r3,#1]
                  |L1.970|
;;;470    if(sk_av_stat[1]==sasON)	snmp_sk_alarm[1]=1;
0003ca  f89ac001          LDRB     r12,[r10,#1]  ; sk_av_stat
0003ce  f1bc0f01          CMP      r12,#1
0003d2  d07e              BEQ      |L1.1234|
;;;471    else                     snmp_sk_alarm[1]=0;
0003d4  7061              STRB     r1,[r4,#1]
                  |L1.982|
;;;472    
;;;473    snmp_sk_number[2]=3;
0003d6  f8dfc02c          LDR      r12,|L1.1028|
0003da  f10c0cc4          ADD      r12,r12,#0xc4
0003de  f88c9002          STRB     r9,[r12,#2]
;;;474    memcpy(&snmp_sk_name[2][0],"Shock",10);
0003e2  f20f0ca4          ADR      r12,|L1.1160|
0003e6  f8dce000          LDR      lr,[r12,#0]
0003ea  f8c5e06c          STR      lr,[r5,#0x6c]  ; snmp_sk_name
0003ee  f8dce004          LDR      lr,[r12,#4]
0003f2  f8c5e070          STR      lr,[r5,#0x70]  ; snmp_sk_name
0003f6  f8bcc008          LDRH     r12,[r12,#8]
0003fa  e04c              B        |L1.1174|
                  |L1.1020|
0003fc  e08c              B        |L1.1304|
                  |L1.1022|
0003fe  e08d              B        |L1.1308|
                  |L1.1024|
                          DCD      net_U
                  |L1.1028|
                          DCD      ||.data||
                  |L1.1032|
                          DCD      net_F3
                  |L1.1036|
                          DCD      net_Ua
                  |L1.1040|
                          DCD      net_Ub
                  |L1.1044|
                          DCD      net_Uc
                  |L1.1048|
                          DCD      load_U
                  |L1.1052|
                          DCD      load_I
                  |L1.1056|
                          DCD      NUMBAT
                  |L1.1060|
                          DCD      NUMIST
                  |L1.1064|
                          DCD      NUMINV
                  |L1.1068|
                          DCD      NUMAVT
                  |L1.1072|
                          DCD      NUMDT
                  |L1.1076|
                          DCD      NUMSK
                  |L1.1080|
                          DCD      Uvv_eb2
                  |L1.1084|
                          DCD      Upes_eb2
                  |L1.1088|
                          DCD      power_summary
                  |L1.1092|
                          DCD      power_current
                  |L1.1096|
                          DCD      bat
                  |L1.1100|
                          DCD      AUSW_MAIN
                  |L1.1104|
                          DCD      bps
                  |L1.1108|
                          DCD      Ib_ips_termokompensat
                  |L1.1112|
                          DCD      BAT_C_REAL
                  |L1.1116|
                          DCD      BAT_C_NOM
                  |L1.1120|
                          DCD      BAT_IS_ON
                  |L1.1124|
                          DCD      ||.bss||+0x78
                  |L1.1128|
                          DCD      inv
                  |L1.1132|
00046c  446f6f72          DCB      "Door",0
000470  00      
000471  00                DCB      0
000472  00                DCB      0
000473  00                DCB      0
                  |L1.1140|
                          DCD      sk_stat
                  |L1.1144|
                          DCD      SK_SIGN
                  |L1.1148|
                          DCD      sk_av_stat
                  |L1.1152|
000480  536d6f6b          DCB      "Smoke",0
000484  6500    
000486  00                DCB      0
000487  00                DCB      0
                  |L1.1160|
000488  53686f63          DCB      "Shock",0
00048c  6b00    
00048e  00                DCB      0
00048f  00                DCB      0
                  |L1.1168|
000490  e046              B        |L1.1312|
                  |L1.1170|
000492  e047              B        |L1.1316|
                  |L1.1172|
000494  e048              B        |L1.1320|
                  |L1.1174|
000496  f8a5c074          STRH     r12,[r5,#0x74]
;;;475    if(sk_stat[2]==ssON) snmp_sk_aktiv[2]=1;
00049a  4dff              LDR      r5,|L1.2200|
00049c  78ad              LDRB     r5,[r5,#2]  ; sk_stat
00049e  2d01              CMP      r5,#1
0004a0  d046              BEQ      |L1.1328|
;;;476    else snmp_sk_aktiv[2]=0;
0004a2  7091              STRB     r1,[r2,#2]
                  |L1.1188|
;;;477    if(!SK_SIGN[2])snmp_sk_alarm_aktiv[2]=1;
0004a4  88b5              LDRH     r5,[r6,#4]  ; SK_SIGN
0004a6  b3b5              CBZ      r5,|L1.1302|
;;;478    else snmp_sk_alarm_aktiv[2]=0;
0004a8  7099              STRB     r1,[r3,#2]
                  |L1.1194|
;;;479    if(sk_av_stat[2]==sasON)	snmp_sk_alarm[2]=1;
0004aa  f89a5002          LDRB     r5,[r10,#2]  ; sk_av_stat
0004ae  2d01              CMP      r5,#1
0004b0  d042              BEQ      |L1.1336|
;;;480    else                     snmp_sk_alarm[2]=0;
0004b2  70a1              STRB     r1,[r4,#2]
                  |L1.1204|
;;;481    
;;;482    snmp_sk_number[3]=4;
0004b4  f8dfc3e4          LDR      r12,|L1.2204|
0004b8  f04f0504          MOV      r5,#4
0004bc  f88c5003          STRB     r5,[r12,#3]
;;;483    memcpy(&snmp_sk_name[3][0],"     ",10);
0004c0  f8dfc3dc          LDR      r12,|L1.2208|
0004c4  f20f3bdc          ADR      r11,|L1.2212|
0004c8  f8dbe000          LDR      lr,[r11,#0]
0004cc  f8cce000          STR      lr,[r12,#0]  ; snmp_sk_name
0004d0  e000              B        |L1.1236|
                  |L1.1234|
0004d2  e02b              B        |L1.1324|
                  |L1.1236|
0004d4  f8dbe004          LDR      lr,[r11,#4]
0004d8  f8cce004          STR      lr,[r12,#4]  ; snmp_sk_name
0004dc  f8bbb008          LDRH     r11,[r11,#8]
0004e0  f8acb008          STRH     r11,[r12,#8]
;;;484    if(sk_stat[3]==ssON) snmp_sk_aktiv[3]=1;
0004e4  f8dfc3b0          LDR      r12,|L1.2200|
0004e8  f89cc003          LDRB     r12,[r12,#3]  ; sk_stat
0004ec  f1bc0f01          CMP      r12,#1
0004f0  d024              BEQ      |L1.1340|
;;;485    else snmp_sk_aktiv[3]=0;
0004f2  70d1              STRB     r1,[r2,#3]
                  |L1.1268|
;;;486    if(!SK_SIGN[3])snmp_sk_alarm_aktiv[3]=1;
0004f4  88f2              LDRH     r2,[r6,#6]  ; SK_SIGN
0004f6  b31a              CBZ      r2,|L1.1344|
;;;487    else snmp_sk_alarm_aktiv[3]=0;
0004f8  70d9              STRB     r1,[r3,#3]
                  |L1.1274|
;;;488    if(sk_av_stat[3]==sasON)	snmp_sk_alarm[3]=1;
0004fa  f89a2003          LDRB     r2,[r10,#3]  ; sk_av_stat
0004fe  2a01              CMP      r2,#1
000500  d020              BEQ      |L1.1348|
;;;489    else                     snmp_sk_alarm[3]=0;
000502  70e1              STRB     r1,[r4,#3]
                  |L1.1284|
;;;490    
;;;491    
;;;492    if(makb[0]._cnt>8) snmp_makb_connect_status[0]=1;
000504  4ae9              LDR      r2,|L1.2220|
000506  4be5              LDR      r3,|L1.2204|
000508  f9b24028          LDRSH    r4,[r2,#0x28]  ; makb
00050c  3338              ADDS     r3,r3,#0x38
00050e  2c08              CMP      r4,#8
000510  dd1a              BLE      |L1.1352|
000512  8018              STRH     r0,[r3,#0]
000514  e01b              B        |L1.1358|
                  |L1.1302|
000516  e00d              B        |L1.1332|
                  |L1.1304|
000518  7010              STRB     r0,[r2,#0]            ;456
00051a  e72c              B        |L1.886|
                  |L1.1308|
00051c  7018              STRB     r0,[r3,#0]            ;458
00051e  e731              B        |L1.900|
                  |L1.1312|
000520  7020              STRB     r0,[r4,#0]            ;460
000522  e738              B        |L1.918|
                  |L1.1316|
000524  7050              STRB     r0,[r2,#1]            ;466
000526  e749              B        |L1.956|
                  |L1.1320|
000528  7058              STRB     r0,[r3,#1]            ;468
00052a  e74e              B        |L1.970|
                  |L1.1324|
00052c  7060              STRB     r0,[r4,#1]            ;470
00052e  e752              B        |L1.982|
                  |L1.1328|
000530  7090              STRB     r0,[r2,#2]            ;475
000532  e7b7              B        |L1.1188|
                  |L1.1332|
000534  7098              STRB     r0,[r3,#2]            ;477
000536  e7b8              B        |L1.1194|
                  |L1.1336|
000538  70a0              STRB     r0,[r4,#2]            ;479
00053a  e7bb              B        |L1.1204|
                  |L1.1340|
00053c  70d0              STRB     r0,[r2,#3]            ;484
00053e  e7d9              B        |L1.1268|
                  |L1.1344|
000540  70d8              STRB     r0,[r3,#3]            ;486
000542  e7da              B        |L1.1274|
                  |L1.1348|
000544  70e0              STRB     r0,[r4,#3]            ;488
000546  e7dd              B        |L1.1284|
                  |L1.1352|
;;;493    else if(makb[0]._cnt<2) snmp_makb_connect_status[0]=0;
000548  2c02              CMP      r4,#2
00054a  da00              BGE      |L1.1358|
00054c  8019              STRH     r1,[r3,#0]
                  |L1.1358|
;;;494    if(makb[1]._cnt>8) snmp_makb_connect_status[1]=1;
00054e  f9b24052          LDRSH    r4,[r2,#0x52]  ; makb
000552  2c08              CMP      r4,#8
000554  dd01              BLE      |L1.1370|
000556  8058              STRH     r0,[r3,#2]
000558  e002              B        |L1.1376|
                  |L1.1370|
;;;495    else if(makb[1]._cnt<2) snmp_makb_connect_status[1]=0;
00055a  2c02              CMP      r4,#2
00055c  da00              BGE      |L1.1376|
00055e  8059              STRH     r1,[r3,#2]
                  |L1.1376|
;;;496    if(makb[2]._cnt>8) snmp_makb_connect_status[2]=1;
000560  f9b2407c          LDRSH    r4,[r2,#0x7c]  ; makb
000564  2c08              CMP      r4,#8
000566  dd01              BLE      |L1.1388|
000568  8098              STRH     r0,[r3,#4]
00056a  e002              B        |L1.1394|
                  |L1.1388|
;;;497    else if(makb[2]._cnt<2) snmp_makb_connect_status[2]=0;
00056c  2c02              CMP      r4,#2
00056e  da00              BGE      |L1.1394|
000570  8099              STRH     r1,[r3,#4]
                  |L1.1394|
;;;498    if(makb[3]._cnt>8) snmp_makb_connect_status[3]=1;
000572  f9b240a6          LDRSH    r4,[r2,#0xa6]  ; makb
000576  2c08              CMP      r4,#8
000578  dd01              BLE      |L1.1406|
00057a  80d8              STRH     r0,[r3,#6]
00057c  e002              B        |L1.1412|
                  |L1.1406|
;;;499    else if(makb[3]._cnt<2) snmp_makb_connect_status[3]=0;
00057e  2c02              CMP      r4,#2
000580  da00              BGE      |L1.1412|
000582  80d9              STRH     r1,[r3,#6]
                  |L1.1412|
;;;500    
;;;501    snmp_makb_voltage0[0]=makb[0]._Ub[0];
000584  4cc5              LDR      r4,|L1.2204|
000586  8953              LDRH     r3,[r2,#0xa]  ; makb
000588  3440              ADDS     r4,r4,#0x40
00058a  8023              STRH     r3,[r4,#0]
;;;502    snmp_makb_voltage1[0]=makb[0]._Ub[1];
00058c  3408              ADDS     r4,r4,#8
00058e  8993              LDRH     r3,[r2,#0xc]  ; makb
000590  8023              STRH     r3,[r4,#0]
;;;503    snmp_makb_voltage2[0]=makb[0]._Ub[2];
000592  3408              ADDS     r4,r4,#8
000594  89d3              LDRH     r3,[r2,#0xe]  ; makb
000596  8023              STRH     r3,[r4,#0]
;;;504    snmp_makb_voltage3[0]=makb[0]._Ub[3];
000598  3408              ADDS     r4,r4,#8
00059a  8a13              LDRH     r3,[r2,#0x10]  ; makb
00059c  8023              STRH     r3,[r4,#0]
;;;505    snmp_makb_voltage4[0]=makb[0]._Ub[4];
00059e  4bbf              LDR      r3,|L1.2204|
0005a0  8a54              LDRH     r4,[r2,#0x12]  ; makb
0005a2  3360              ADDS     r3,r3,#0x60
0005a4  801c              STRH     r4,[r3,#0]
;;;506    snmp_makb_voltage0[1]=makb[1]._Ub[0];
0005a6  f1a30620          SUB      r6,r3,#0x20
0005aa  8e94              LDRH     r4,[r2,#0x34]  ; makb
0005ac  8074              STRH     r4,[r6,#2]
;;;507    snmp_makb_voltage1[1]=makb[1]._Ub[1];
0005ae  3608              ADDS     r6,r6,#8
0005b0  8ed4              LDRH     r4,[r2,#0x36]  ; makb
0005b2  8074              STRH     r4,[r6,#2]
;;;508    snmp_makb_voltage2[1]=makb[1]._Ub[2];
0005b4  3608              ADDS     r6,r6,#8
0005b6  8f14              LDRH     r4,[r2,#0x38]  ; makb
0005b8  8074              STRH     r4,[r6,#2]
;;;509    snmp_makb_voltage3[1]=makb[1]._Ub[3];
0005ba  3608              ADDS     r6,r6,#8
0005bc  8f54              LDRH     r4,[r2,#0x3a]  ; makb
0005be  8074              STRH     r4,[r6,#2]
;;;510    snmp_makb_voltage4[1]=makb[1]._Ub[4];
0005c0  8f94              LDRH     r4,[r2,#0x3c]  ; makb
0005c2  805c              STRH     r4,[r3,#2]
;;;511    snmp_makb_voltage0[2]=makb[2]._Ub[0];
0005c4  3e18              SUBS     r6,r6,#0x18
0005c6  f8b2405e          LDRH     r4,[r2,#0x5e]  ; makb
0005ca  80b4              STRH     r4,[r6,#4]
;;;512    snmp_makb_voltage1[2]=makb[2]._Ub[1];
0005cc  3608              ADDS     r6,r6,#8
0005ce  f8b24060          LDRH     r4,[r2,#0x60]  ; makb
0005d2  80b4              STRH     r4,[r6,#4]
;;;513    snmp_makb_voltage2[2]=makb[2]._Ub[2];
0005d4  3608              ADDS     r6,r6,#8
0005d6  f8b24062          LDRH     r4,[r2,#0x62]  ; makb
0005da  80b4              STRH     r4,[r6,#4]
;;;514    snmp_makb_voltage3[2]=makb[2]._Ub[3];
0005dc  3608              ADDS     r6,r6,#8
0005de  f8b24064          LDRH     r4,[r2,#0x64]  ; makb
0005e2  80b4              STRH     r4,[r6,#4]
;;;515    snmp_makb_voltage4[2]=makb[2]._Ub[4];
0005e4  f8b24066          LDRH     r4,[r2,#0x66]  ; makb
0005e8  809c              STRH     r4,[r3,#4]
;;;516    snmp_makb_voltage0[3]=makb[3]._Ub[0];
0005ea  3e18              SUBS     r6,r6,#0x18
0005ec  f8b24088          LDRH     r4,[r2,#0x88]  ; makb
0005f0  80f4              STRH     r4,[r6,#6]
;;;517    snmp_makb_voltage1[3]=makb[3]._Ub[1];
0005f2  3608              ADDS     r6,r6,#8
0005f4  f8b2408a          LDRH     r4,[r2,#0x8a]  ; makb
0005f8  80f4              STRH     r4,[r6,#6]
;;;518    snmp_makb_voltage2[3]=makb[3]._Ub[2];
0005fa  3608              ADDS     r6,r6,#8
0005fc  f8b2408c          LDRH     r4,[r2,#0x8c]  ; makb
000600  80f4              STRH     r4,[r6,#6]
;;;519    snmp_makb_voltage3[3]=makb[3]._Ub[3];
000602  3608              ADDS     r6,r6,#8
000604  f8b2408e          LDRH     r4,[r2,#0x8e]  ; makb
000608  80f4              STRH     r4,[r6,#6]
;;;520    snmp_makb_voltage4[3]=makb[3]._Ub[4];
00060a  f8b24090          LDRH     r4,[r2,#0x90]  ; makb
00060e  80dc              STRH     r4,[r3,#6]
;;;521    
;;;522    snmp_makb_temper0[0]=makb[0]._T[0];
000610  3308              ADDS     r3,r3,#8
000612  8a94              LDRH     r4,[r2,#0x14]  ; makb
000614  801c              STRH     r4,[r3,#0]
;;;523    snmp_makb_temper1[0]=makb[0]._T[1];
000616  f1030408          ADD      r4,r3,#8
00061a  8ad6              LDRH     r6,[r2,#0x16]  ; makb
00061c  8026              STRH     r6,[r4,#0]
;;;524    snmp_makb_temper2[0]=makb[0]._T[2];
00061e  f1030610          ADD      r6,r3,#0x10
000622  f8b2c018          LDRH     r12,[r2,#0x18]  ; makb
000626  f8a6c000          STRH     r12,[r6,#0]
;;;525    snmp_makb_temper3[0]=makb[0]._T[3];
00062a  f1030c18          ADD      r12,r3,#0x18
00062e  f8b2a01a          LDRH     r10,[r2,#0x1a]  ; makb
000632  f8aca000          STRH     r10,[r12,#0]
;;;526    snmp_makb_temper4[0]=makb[0]._T[4];
000636  f1030a20          ADD      r10,r3,#0x20
00063a  f8b2b01c          LDRH     r11,[r2,#0x1c]  ; makb
00063e  f8aab000          STRH     r11,[r10,#0]
;;;527    snmp_makb_temper0[1]=makb[1]._T[0];
000642  f8b2b03e          LDRH     r11,[r2,#0x3e]  ; makb
000646  f8a3b002          STRH     r11,[r3,#2]
;;;528    snmp_makb_temper1[1]=makb[1]._T[1];
00064a  f8b2b040          LDRH     r11,[r2,#0x40]  ; makb
00064e  f8a4b002          STRH     r11,[r4,#2]
;;;529    snmp_makb_temper2[1]=makb[1]._T[2];
000652  f8b2b042          LDRH     r11,[r2,#0x42]  ; makb
000656  f8a6b002          STRH     r11,[r6,#2]
;;;530    snmp_makb_temper3[1]=makb[1]._T[3];
00065a  f8b2b044          LDRH     r11,[r2,#0x44]  ; makb
00065e  f8acb002          STRH     r11,[r12,#2]
;;;531    snmp_makb_temper4[1]=makb[1]._T[4];
000662  f8b2b046          LDRH     r11,[r2,#0x46]  ; makb
000666  f8aab002          STRH     r11,[r10,#2]
;;;532    snmp_makb_temper0[2]=makb[2]._T[0];
00066a  f8b2b068          LDRH     r11,[r2,#0x68]  ; makb
00066e  f8a3b004          STRH     r11,[r3,#4]
;;;533    snmp_makb_temper1[2]=makb[2]._T[1];
000672  f8b2b06a          LDRH     r11,[r2,#0x6a]  ; makb
000676  f8a4b004          STRH     r11,[r4,#4]
;;;534    snmp_makb_temper2[2]=makb[2]._T[2];
00067a  f8b2b06c          LDRH     r11,[r2,#0x6c]  ; makb
00067e  f8a6b004          STRH     r11,[r6,#4]
;;;535    snmp_makb_temper3[2]=makb[2]._T[3];
000682  f8b2b06e          LDRH     r11,[r2,#0x6e]  ; makb
000686  f8acb004          STRH     r11,[r12,#4]
;;;536    snmp_makb_temper4[2]=makb[2]._T[4];
00068a  f8b2b070          LDRH     r11,[r2,#0x70]  ; makb
00068e  f8aab004          STRH     r11,[r10,#4]
;;;537    snmp_makb_temper0[3]=makb[3]._T[0];
000692  f8b2b092          LDRH     r11,[r2,#0x92]  ; makb
000696  f8a3b006          STRH     r11,[r3,#6]
;;;538    snmp_makb_temper1[3]=makb[3]._T[1];
00069a  f8b23094          LDRH     r3,[r2,#0x94]  ; makb
00069e  80e3              STRH     r3,[r4,#6]
;;;539    snmp_makb_temper2[3]=makb[3]._T[2];
0006a0  f8b23096          LDRH     r3,[r2,#0x96]  ; makb
0006a4  80f3              STRH     r3,[r6,#6]
;;;540    snmp_makb_temper3[3]=makb[3]._T[3];
0006a6  f8b23098          LDRH     r3,[r2,#0x98]  ; makb
0006aa  f8ac3006          STRH     r3,[r12,#6]
;;;541    snmp_makb_temper4[3]=makb[3]._T[4];
0006ae  f8b2309a          LDRH     r3,[r2,#0x9a]  ; makb
0006b2  f8aa3006          STRH     r3,[r10,#6]
;;;542    
;;;543    snmp_makb_temper0_stat[0]=makb[0]._T_nd[0];
0006b6  f1060318          ADD      r3,r6,#0x18
0006ba  8bd4              LDRH     r4,[r2,#0x1e]  ; makb
0006bc  801c              STRH     r4,[r3,#0]
;;;544    snmp_makb_temper1_stat[0]=makb[0]._T_nd[1];
0006be  f1030408          ADD      r4,r3,#8
0006c2  8c16              LDRH     r6,[r2,#0x20]  ; makb
0006c4  8026              STRH     r6,[r4,#0]
;;;545    snmp_makb_temper2_stat[0]=makb[0]._T_nd[2];
0006c6  f1030610          ADD      r6,r3,#0x10
0006ca  f8b2c022          LDRH     r12,[r2,#0x22]  ; makb
0006ce  f8a6c000          STRH     r12,[r6,#0]
;;;546    snmp_makb_temper3_stat[0]=makb[0]._T_nd[3];
0006d2  f1030c18          ADD      r12,r3,#0x18
0006d6  f8b2a024          LDRH     r10,[r2,#0x24]  ; makb
0006da  f8aca000          STRH     r10,[r12,#0]
;;;547    snmp_makb_temper4_stat[0]=makb[0]._T_nd[4];
0006de  f1030a20          ADD      r10,r3,#0x20
0006e2  f8b2b026          LDRH     r11,[r2,#0x26]  ; makb
0006e6  f8aab000          STRH     r11,[r10,#0]
;;;548    snmp_makb_temper0_stat[1]=makb[1]._T_nd[0];
0006ea  f8b2b048          LDRH     r11,[r2,#0x48]  ; makb
0006ee  f8a3b002          STRH     r11,[r3,#2]
;;;549    snmp_makb_temper1_stat[1]=makb[1]._T_nd[1];
0006f2  f8b2b04a          LDRH     r11,[r2,#0x4a]  ; makb
0006f6  f8a4b002          STRH     r11,[r4,#2]
;;;550    snmp_makb_temper2_stat[1]=makb[1]._T_nd[2];
0006fa  f8b2b04c          LDRH     r11,[r2,#0x4c]  ; makb
0006fe  f8a6b002          STRH     r11,[r6,#2]
;;;551    snmp_makb_temper3_stat[1]=makb[1]._T_nd[3];
000702  f8b2b04e          LDRH     r11,[r2,#0x4e]  ; makb
000706  f8acb002          STRH     r11,[r12,#2]
;;;552    snmp_makb_temper4_stat[1]=makb[1]._T_nd[4];
00070a  f8b2b050          LDRH     r11,[r2,#0x50]  ; makb
00070e  f8aab002          STRH     r11,[r10,#2]
;;;553    snmp_makb_temper0_stat[2]=makb[2]._T_nd[0];
000712  f8b2b072          LDRH     r11,[r2,#0x72]  ; makb
000716  f8a3b004          STRH     r11,[r3,#4]
;;;554    snmp_makb_temper1_stat[2]=makb[2]._T_nd[1];
00071a  f8b2b074          LDRH     r11,[r2,#0x74]  ; makb
00071e  f8a4b004          STRH     r11,[r4,#4]
;;;555    snmp_makb_temper2_stat[2]=makb[2]._T_nd[2];
000722  f8b2b076          LDRH     r11,[r2,#0x76]  ; makb
000726  f8a6b004          STRH     r11,[r6,#4]
;;;556    snmp_makb_temper3_stat[2]=makb[2]._T_nd[3];
00072a  f8b2b078          LDRH     r11,[r2,#0x78]  ; makb
00072e  f8acb004          STRH     r11,[r12,#4]
;;;557    snmp_makb_temper4_stat[2]=makb[2]._T_nd[4];
000732  f8b2b07a          LDRH     r11,[r2,#0x7a]  ; makb
000736  f8aab004          STRH     r11,[r10,#4]
;;;558    snmp_makb_temper0_stat[3]=makb[3]._T_nd[0];
00073a  f8b2b09c          LDRH     r11,[r2,#0x9c]  ; makb
00073e  f8a3b006          STRH     r11,[r3,#6]
;;;559    snmp_makb_temper1_stat[3]=makb[3]._T_nd[1];
000742  f8b2309e          LDRH     r3,[r2,#0x9e]  ; makb
000746  80e3              STRH     r3,[r4,#6]
;;;560    snmp_makb_temper2_stat[3]=makb[3]._T_nd[2];
000748  f8b230a0          LDRH     r3,[r2,#0xa0]  ; makb
00074c  80f3              STRH     r3,[r6,#6]
;;;561    snmp_makb_temper3_stat[3]=makb[3]._T_nd[3];
00074e  f8b230a2          LDRH     r3,[r2,#0xa2]  ; makb
000752  f8ac3006          STRH     r3,[r12,#6]
;;;562    snmp_makb_temper4_stat[3]=makb[3]._T_nd[4];
000756  f8b220a4          LDRH     r2,[r2,#0xa4]  ; makb
00075a  f8aa2006          STRH     r2,[r10,#6]
;;;563    
;;;564    
;;;565    snmp_klimat_box_temper=t_box;
00075e  4a54              LDR      r2,|L1.2224|
000760  8812              LDRH     r2,[r2,#0]  ; t_box
000762  f8a7206a          STRH     r2,[r7,#0x6a]
;;;566    snmp_klimat_settings_box_alarm=TBOXMAX;
000766  4a53              LDR      r2,|L1.2228|
000768  f5a473ae          SUB      r3,r4,#0x15c
00076c  8812              LDRH     r2,[r2,#0]  ; TBOXMAX
00076e  f8a3206c          STRH     r2,[r3,#0x6c]
;;;567    snmp_klimat_settings_vent_on=TBOXVENTON;
000772  4a51              LDR      r2,|L1.2232|
000774  8812              LDRH     r2,[r2,#0]  ; TBOXVENTON
000776  f8a3206e          STRH     r2,[r3,#0x6e]
;;;568    snmp_klimat_settings_vent_off=TBOXVENTOFF;
00077a  4a50              LDR      r2,|L1.2236|
00077c  8812              LDRH     r2,[r2,#0]  ; TBOXVENTOFF
00077e  f8a32070          STRH     r2,[r3,#0x70]
;;;569    snmp_klimat_settings_warm_on=TBOXWARMON;
000782  4a4f              LDR      r2,|L1.2240|
000784  8812              LDRH     r2,[r2,#0]  ; TBOXWARMON
000786  f8a32072          STRH     r2,[r3,#0x72]
;;;570    snmp_klimat_settings_warm_off=TBOXWARMOFF;
00078a  4a4e              LDR      r2,|L1.2244|
00078c  8812              LDRH     r2,[r2,#0]  ; TBOXWARMOFF
00078e  f8a32074          STRH     r2,[r3,#0x74]
;;;571    snmp_klimat_settings_load_on=TLOADENABLE;
000792  4a4d              LDR      r2,|L1.2248|
000794  8812              LDRH     r2,[r2,#0]  ; TLOADENABLE
000796  f8a32076          STRH     r2,[r3,#0x76]
;;;572    snmp_klimat_settings_load_off=TLOADDISABLE;
00079a  4a4c              LDR      r2,|L1.2252|
00079c  8812              LDRH     r2,[r2,#0]  ; TLOADDISABLE
00079e  f8a32078          STRH     r2,[r3,#0x78]
;;;573    snmp_klimat_settings_batt_on=TBATENABLE;
0007a2  4a4b              LDR      r2,|L1.2256|
0007a4  8812              LDRH     r2,[r2,#0]  ; TBATENABLE
0007a6  f8a3207a          STRH     r2,[r3,#0x7a]
;;;574    snmp_klimat_settings_batt_off=TBATDISABLE;
0007aa  4a4a              LDR      r2,|L1.2260|
0007ac  8812              LDRH     r2,[r2,#0]  ; TBATDISABLE
0007ae  f8a3207c          STRH     r2,[r3,#0x7c]
;;;575    
;;;576    snmp_dt_ext=t_ext[0];
0007b2  4a49              LDR      r2,|L1.2264|
0007b4  f9b27000          LDRSH    r7,[r2,#0]  ; t_ext
0007b8  f8a3707e          STRH     r7,[r3,#0x7e]
;;;577    snmp_dt_msan=t_ext[1];
0007bc  3380              ADDS     r3,r3,#0x80
0007be  f9b2c002          LDRSH    r12,[r2,#2]  ; t_ext
0007c2  f8a3c000          STRH     r12,[r3,#0]
;;;578    snmp_dt_epu=t_ext[2];
0007c6  f9b2a004          LDRSH    r10,[r2,#4]  ; t_ext
0007ca  f8a3a002          STRH     r10,[r3,#2]
;;;579    
;;;580    /*
;;;581    snmp_bat_voltage=Ubat;
;;;582    snmp_bat_current=Ibat;
;;;583    snmp_bat_temperature=t_b;
;;;584    if(BAT_C_REAL==0x5555)
;;;585    	{
;;;586    	snmp_bat_capacity=BAT_C_NOM*10;												    11
;;;587    	}
;;;588    else
;;;589    	{
;;;590    	snmp_bat_capacity=BAT_C_REAL;
;;;591    	}
;;;592    snmp_bat_charge=zar_percent;
;;;593    snmp_bat_status=0;
;;;594    if(St&0x02)snmp_bat_status|=0x01;
;;;595    if(Ibat>0)snmp_bat_status|=0x02;
;;;596    
;;;597    
;;;598    if(spc_stat==spc_OFF) snmp_spc_stat=0;
;;;599    else if(spc_stat==spc_KE) snmp_spc_stat=1;
;;;600    else if(spc_stat==spc_VZ) snmp_spc_stat=10;
;;;601    
;;;602    
;;;603    snmp_main_bps=MAIN_IST+1;
;;;604    */
;;;605    snmp_zv_en=ZV_ON;
0007ce  4a43              LDR      r2,|L1.2268|
0007d0  3b80              SUBS     r3,r3,#0x80
0007d2  8812              LDRH     r2,[r2,#0]  ; ZV_ON
0007d4  f8a32044          STRH     r2,[r3,#0x44]
;;;606    snmp_alarm_auto_disable=AV_OFF_AVT;
0007d8  4a41              LDR      r2,|L1.2272|
0007da  8812              LDRH     r2,[r2,#0]  ; AV_OFF_AVT
0007dc  f8a32046          STRH     r2,[r3,#0x46]
;;;607    snmp_bat_test_time=TBAT;
0007e0  4a40              LDR      r2,|L1.2276|
0007e2  8812              LDRH     r2,[r2,#0]  ; TBAT
0007e4  f8a32048          STRH     r2,[r3,#0x48]
;;;608    snmp_u_max=UMAX;
0007e8  4a3f              LDR      r2,|L1.2280|
0007ea  8812              LDRH     r2,[r2,#0]  ; UMAX
0007ec  f8a3204a          STRH     r2,[r3,#0x4a]
;;;609    //snmp_u_min=UB20-DU;
;;;610    //snmp_u_0_grad=UB0;
;;;611    //snmp_u_20_grad=UB20;
;;;612    snmp_u_sign=USIGN;
0007f0  4a3e              LDR      r2,|L1.2284|
0007f2  8812              LDRH     r2,[r2,#0]  ; USIGN
0007f4  f8a3204c          STRH     r2,[r3,#0x4c]
;;;613    snmp_u_min_power=UMN;
0007f8  4a3d              LDR      r2,|L1.2288|
0007fa  8812              LDRH     r2,[r2,#0]  ; UMN
0007fc  f8a3204e          STRH     r2,[r3,#0x4e]
;;;614    snmp_u_withouth_bat=U0B;
000800  4a3c              LDR      r2,|L1.2292|
000802  8812              LDRH     r2,[r2,#0]  ; U0B
000804  f8a32050          STRH     r2,[r3,#0x50]
;;;615    snmp_control_current=IKB;
000808  4a3b              LDR      r2,|L1.2296|
00080a  8812              LDRH     r2,[r2,#0]  ; IKB
00080c  f8a32052          STRH     r2,[r3,#0x52]
;;;616    snmp_max_charge_current=IZMAX;
000810  4a3a              LDR      r2,|L1.2300|
000812  8813              LDRH     r3,[r2,#0]  ; IZMAX
000814  f5a472ae          SUB      r2,r4,#0x15c
000818  f8a23054          STRH     r3,[r2,#0x54]
;;;617    snmp_max_current=IMAX;
00081c  4a38              LDR      r2,|L1.2304|
00081e  f5a473ae          SUB      r3,r4,#0x15c
000822  8812              LDRH     r2,[r2,#0]  ; IMAX
000824  f8a32056          STRH     r2,[r3,#0x56]
;;;618    snmp_min_current=IMIN;
000828  4a36              LDR      r2,|L1.2308|
00082a  8812              LDRH     r2,[r2,#0]  ; IMIN
00082c  f8a32058          STRH     r2,[r3,#0x58]
;;;619    //snmp_max_current_koef=KIMAX;
;;;620    //snmp_uvz=UVZ;
;;;621    snmp_powerup_psu_timeout=TZAS;
000830  4a35              LDR      r2,|L1.2312|
000832  8812              LDRH     r2,[r2,#0]  ; TZAS
000834  f8a3205a          STRH     r2,[r3,#0x5a]
;;;622    snmp_max_temperature=TMAX;
000838  4a34              LDR      r2,|L1.2316|
00083a  8812              LDRH     r2,[r2,#0]  ; TMAX
00083c  f8a3205c          STRH     r2,[r3,#0x5c]
;;;623    snmp_tsign_bat=TBATSIGN; 
000840  4b33              LDR      r3,|L1.2320|
000842  f5a474ae          SUB      r4,r4,#0x15c
000846  881b              LDRH     r3,[r3,#0]  ; TBATSIGN
000848  f8a4305e          STRH     r3,[r4,#0x5e]
;;;624    snmp_tmax_bat=TBATMAX;
00084c  4b31              LDR      r3,|L1.2324|
00084e  881b              LDRH     r3,[r3,#0]  ; TBATMAX
000850  f8a43060          STRH     r3,[r4,#0x60]
;;;625    snmp_tsign_bps=TSIGN;
000854  4b30              LDR      r3,|L1.2328|
000856  881b              LDRH     r3,[r3,#0]  ; TSIGN
000858  f8a43062          STRH     r3,[r4,#0x62]
;;;626    snmp_tmax_bps=TMAX;
00085c  4623              MOV      r3,r4
00085e  f8a32064          STRH     r2,[r3,#0x64]
;;;627    snmp_bat_part_alarm=UBM_AV; 
000862  4a2e              LDR      r2,|L1.2332|
000864  8812              LDRH     r2,[r2,#0]  ; UBM_AV
000866  f8a32066          STRH     r2,[r3,#0x66]
;;;628    snmp_power_cnt_adress=POWER_CNT_ADRESS;
00086a  4a2d              LDR      r2,|L1.2336|
00086c  8812              LDRH     r2,[r2,#0]  ; POWER_CNT_ADRESS
00086e  f8a32068          STRH     r2,[r3,#0x68]
;;;629    
;;;630    for(i=0;i<12;i++)
000872  f04f0200          MOV      r2,#0
;;;631    	{
;;;632    	snmp_avt_number[i]=i+1;
000876  4c0a              LDR      r4,|L1.2208|
;;;633    	if(avt_stat[i]==avtOFF)snmp_avt_stat[i]=0;
000878  f8dfb0a8          LDR      r11,|L1.2340|
00087c  f1a40454          SUB      r4,r4,#0x54           ;632
000880  f104060c          ADD      r6,r4,#0xc
                  |L1.2180|
000884  f1020301          ADD      r3,r2,#1              ;632
000888  54a3              STRB     r3,[r4,r2]            ;632
00088a  f81be002          LDRB     lr,[r11,r2]
00088e  f1be0f00          CMP      lr,#0
000892  d07d              BEQ      |L1.2448|
;;;634    	else snmp_avt_stat[i]=1;
000894  54b0              STRB     r0,[r6,r2]
                  |L1.2198|
000896  e047              B        |L1.2344|
                  |L1.2200|
                          DCD      sk_stat
                  |L1.2204|
                          DCD      ||.data||+0xc4
                  |L1.2208|
                          DCD      ||.bss||+0x180
                  |L1.2212|
0008a4  20202020          DCB      "     ",0
0008a8  2000    
0008aa  00                DCB      0
0008ab  00                DCB      0
                  |L1.2220|
                          DCD      makb
                  |L1.2224|
                          DCD      t_box
                  |L1.2228|
                          DCD      TBOXMAX
                  |L1.2232|
                          DCD      TBOXVENTON
                  |L1.2236|
                          DCD      TBOXVENTOFF
                  |L1.2240|
                          DCD      TBOXWARMON
                  |L1.2244|
                          DCD      TBOXWARMOFF
                  |L1.2248|
                          DCD      TLOADENABLE
                  |L1.2252|
                          DCD      TLOADDISABLE
                  |L1.2256|
                          DCD      TBATENABLE
                  |L1.2260|
                          DCD      TBATDISABLE
                  |L1.2264|
                          DCD      t_ext
                  |L1.2268|
                          DCD      ZV_ON
                  |L1.2272|
                          DCD      AV_OFF_AVT
                  |L1.2276|
                          DCD      TBAT
                  |L1.2280|
                          DCD      UMAX
                  |L1.2284|
                          DCD      USIGN
                  |L1.2288|
                          DCD      UMN
                  |L1.2292|
                          DCD      U0B
                  |L1.2296|
                          DCD      IKB
                  |L1.2300|
                          DCD      IZMAX
                  |L1.2304|
                          DCD      IMAX
                  |L1.2308|
                          DCD      IMIN
                  |L1.2312|
                          DCD      TZAS
                  |L1.2316|
                          DCD      TMAX
                  |L1.2320|
                          DCD      TBATSIGN
                  |L1.2324|
                          DCD      TBATMAX
                  |L1.2328|
                          DCD      TSIGN
                  |L1.2332|
                          DCD      UBM_AV
                  |L1.2336|
                          DCD      POWER_CNT_ADRESS
                  |L1.2340|
                          DCD      avt_stat
                  |L1.2344|
000928  b2da              UXTB     r2,r3                 ;630
00092a  2a0c              CMP      r2,#0xc               ;630
00092c  d3aa              BCC      |L1.2180|
;;;635    	}
;;;636    
;;;637    snmp_dt_number[0]=1;
00092e  49f9              LDR      r1,|L1.3348|
000930  7008              STRB     r0,[r1,#0]
;;;638    snmp_dt_number[1]=2;
000932  f8818001          STRB     r8,[r1,#1]
;;;639    snmp_dt_number[2]=3;
000936  f8819002          STRB     r9,[r1,#2]
;;;640    //snmp_dt_number[3]=4;
;;;641    snmp_dt_temper[0]=t_ext[0];
00093a  3172              ADDS     r1,r1,#0x72
00093c  800f              STRH     r7,[r1,#0]
;;;642    snmp_dt_temper[1]=t_ext[1];
00093e  f8a1c002          STRH     r12,[r1,#2]
;;;643    snmp_dt_temper[2]=t_ext[2];
000942  f8a1a004          STRH     r10,[r1,#4]
;;;644    //snmp_dt_temper[3]=t_ext[3];
;;;645    snmp_dt_error[0]=ND_EXT[0];
000946  4cf4              LDR      r4,|L1.3352|
000948  4bf2              LDR      r3,|L1.3348|
00094a  1cdb              ADDS     r3,r3,#3
00094c  7821              LDRB     r1,[r4,#0]  ; ND_EXT
00094e  7019              STRB     r1,[r3,#0]
;;;646    if(NUMDT<1)snmp_dt_error[0]=0xff;
000950  49f2              LDR      r1,|L1.3356|
000952  f04f32ff          MOV      r2,#0xffffffff
000956  f9b11000          LDRSH    r1,[r1,#0]  ; NUMDT
00095a  2901              CMP      r1,#1
00095c  da00              BGE      |L1.2400|
00095e  701a              STRB     r2,[r3,#0]
                  |L1.2400|
;;;647    snmp_dt_error[1]=ND_EXT[1];
000960  7866              LDRB     r6,[r4,#1]  ; ND_EXT
000962  705e              STRB     r6,[r3,#1]
;;;648    if(NUMDT<2)snmp_dt_error[0]=0xff;
000964  2902              CMP      r1,#2
000966  da00              BGE      |L1.2410|
000968  701a              STRB     r2,[r3,#0]
                  |L1.2410|
;;;649    snmp_dt_error[2]=ND_EXT[2];
00096a  78a4              LDRB     r4,[r4,#2]  ; ND_EXT
00096c  709c              STRB     r4,[r3,#2]
;;;650    if(NUMDT<3)snmp_dt_error[0]=0xff;
00096e  2903              CMP      r1,#3
000970  da00              BGE      |L1.2420|
000972  701a              STRB     r2,[r3,#0]
                  |L1.2420|
;;;651    //snmp_dt_error[3]=ND_EXT[3];
;;;652    if(NUMDT<4)snmp_dt_error[0]=0xff;
000974  2904              CMP      r1,#4
000976  da00              BGE      |L1.2426|
000978  701a              STRB     r2,[r3,#0]
                  |L1.2426|
;;;653    
;;;654    /*
;;;655    //Литиевые батареи
;;;656    snmp_lakb_number[0]=1;								//Номер ЛАКБ
;;;657    snmp_lakb_number[1]=2;								//Номер ЛАКБ
;;;658    snmp_lakb_voltage[0]=lakb[0]._tot_bat_volt;				//Напряжение ЛАКБ
;;;659    snmp_lakb_voltage[1]=lakb[1]._tot_bat_volt;				//Напряжение ЛАКБ
;;;660    snmp_lakb_max_cell_voltage[0]=lakb[0]._max_cell_volt;		//Максимальное напряжение ячейки ЛАКБ
;;;661    snmp_lakb_max_cell_voltage[1]=lakb[1]._max_cell_volt;		//Максимальное напряжение ячейки ЛАКБ
;;;662    snmp_lakb_min_cell_voltage[0]=lakb[0]._min_cell_volt;		//Минимальное напряжение ячейки ЛАКБ
;;;663    snmp_lakb_min_cell_voltage[1]=lakb[1]._min_cell_volt;		//Минимальное напряжение ячейки ЛАКБ
;;;664    snmp_lakb_max_cell_temperature[0]=lakb[0]._max_cell_temp;	//Максимальная температура ячейки ЛАКБ
;;;665    snmp_lakb_max_cell_temperature[1]=lakb[1]._max_cell_temp;	//Максимальная температура ячейки ЛАКБ
;;;666    snmp_lakb_min_cell_temperature[0]=lakb[0]._min_cell_temp;	//Минимальная температура ячейки ЛАКБ
;;;667    snmp_lakb_min_cell_temperature[1]=lakb[1]._min_cell_temp;	//Минимальная температура ячейки ЛАКБ
;;;668    snmp_lakb_ch_curr[0]=lakb[0]._ch_curr;					//Ток заряда ЛАКБ
;;;669    snmp_lakb_ch_curr[1]=lakb[1]._ch_curr;					//Ток заряда ЛАКБ
;;;670    snmp_lakb_dsch_curr[0]=lakb[0]._dsch_curr;				//Ток разряда ЛАКБ
;;;671    snmp_lakb_dsch_curr[1]=lakb[1]._dsch_curr;				//Ток разряда ЛАКБ
;;;672    snmp_lakb_rat_cap[0]=lakb[0]._rat_cap;					//Номинальная емкость ЛАКБ
;;;673    snmp_lakb_rat_cap[1]=lakb[1]._rat_cap;					//Номинальная емкость ЛАКБ
;;;674    snmp_lakb_soh[0]=lakb[0]._s_o_h;						//Остаточная емкость ЛАКБ
;;;675    snmp_lakb_soh[1]=lakb[1]._s_o_h;						//Остаточная емкость ЛАКБ
;;;676    snmp_lakb_soc[0]=lakb[0]._s_o_c;						//Заряд ЛАКБ
;;;677    snmp_lakb_soc[1]=lakb[1]._s_o_c;						//Заряд ЛАКБ
;;;678    snmp_lakb_cclv[0]=lakb[0]._c_c_l_v;  					//Максимальный ток заряда ЛАКБ
;;;679    snmp_lakb_cclv[1]=lakb[1]._c_c_l_v;  					//Максимальный ток заряда ЛАКБ
;;;680    snmp_lakb_rbt[0]=lakb[0]._r_b_t;						//Оцениваемое время работы ЛАКБ
;;;681    snmp_lakb_rbt[1]=lakb[1]._r_b_t;						//Оцениваемое время работы ЛАКБ
;;;682    snmp_lakb_flags1[0]=lakb[0]._flags1;					//Первый флаг состояния ЛАКБ
;;;683    snmp_lakb_flags1[1]=lakb[1]._flags1;					//Первый флаг состояния ЛАКБ
;;;684    snmp_lakb_flags2[0]=lakb[0]._flags2;					//Второй флаг состояния ЛАКБ
;;;685    snmp_lakb_flags2[1]=lakb[1]._flags2;					//Второй флаг состояния ЛАКБ */
;;;686    
;;;687    //Литиевые батареи
;;;688    snmp_lakb_number[0]=1;								//Номер ЛАКБ
00097a  49e9              LDR      r1,|L1.3360|
00097c  8008              STRH     r0,[r1,#0]
;;;689    snmp_lakb_number[1]=2;								//Номер ЛАКБ
00097e  f8a18002          STRH     r8,[r1,#2]
;;;690    snmp_lakb_number[2]=3;								//Номер ЛАКБ
000982  f8a19004          STRH     r9,[r1,#4]
;;;691    snmp_lakb_number[3]=4;								//Номер ЛАКБ
000986  80cd              STRH     r5,[r1,#6]
;;;692    snmp_lakb_number[4]=5;								//Номер ЛАКБ
000988  f04f0005          MOV      r0,#5
00098c  8108              STRH     r0,[r1,#8]
;;;693    snmp_lakb_number[5]=6;								//Номер ЛАКБ
00098e  e000              B        |L1.2450|
                  |L1.2448|
000990  e084              B        |L1.2716|
                  |L1.2450|
000992  f04f0006          MOV      r0,#6
000996  8148              STRH     r0,[r1,#0xa]
;;;694    snmp_lakb_number[6]=7;								//Номер ЛАКБ
000998  f04f0007          MOV      r0,#7
00099c  8188              STRH     r0,[r1,#0xc]
;;;695    
;;;696    for (i=0;i<3;i++)
00099e  f04f0000          MOV      r0,#0
;;;697    	{
;;;698    	snmp_lakb_voltage[i]=lakb[i]._tot_bat_volt;				//Напряжение ЛАКБ
0009a2  4de0              LDR      r5,|L1.3364|
0009a4  f101030e          ADD      r3,r1,#0xe
;;;699    	snmp_lakb_max_cell_voltage[i]=lakb[i]._max_cell_volt;		//Максимальное напряжение ячейки ЛАКБ
0009a8  f101061c          ADD      r6,r1,#0x1c
;;;700    	snmp_lakb_min_cell_voltage[i]=lakb[i]._min_cell_volt;		//Минимальное напряжение ячейки ЛАКБ
0009ac  f101072a          ADD      r7,r1,#0x2a
;;;701    	snmp_lakb_max_cell_temperature[i]=lakb[i]._max_cell_temp;	//Максимальная температура ячейки ЛАКБ
0009b0  f1010c38          ADD      r12,r1,#0x38
;;;702    	//snmp_lakb_max_cell_temperature[1]=lakb[1]._max_cell_temp;	//Максимальная температура ячейки ЛАКБ
;;;703    	snmp_lakb_min_cell_temperature[i]=lakb[i]._min_cell_temp;	//Минимальная температура ячейки ЛАКБ
0009b4  f1010846          ADD      r8,r1,#0x46
;;;704    	//snmp_lakb_min_cell_temperature[1]=lakb[1]._min_cell_temp;	//Минимальная температура ячейки ЛАКБ
;;;705    	snmp_lakb_ch_curr[i]=lakb[i]._ch_curr;					//Ток заряда ЛАКБ
0009b8  f1010954          ADD      r9,r1,#0x54
;;;706    	//snmp_lakb_ch_curr[1]=lakb[1]._ch_curr;					//Ток заряда ЛАКБ
;;;707    	snmp_lakb_dsch_curr[i]=lakb[i]._dsch_curr;				//Ток разряда ЛАКБ
0009bc  f1010a62          ADD      r10,r1,#0x62
;;;708    	//snmp_lakb_dsch_curr[1]=lakb[1]._dsch_curr;				//Ток разряда ЛАКБ
;;;709    	snmp_lakb_rat_cap[i]=lakb[i]._rat_cap;					//Номинальная емкость ЛАКБ
0009c0  f1010b70          ADD      r11,r1,#0x70
;;;710    	//snmp_lakb_rat_cap[1]=lakb[1]._rat_cap;					//Номинальная емкость ЛАКБ
;;;711    	snmp_lakb_soh[i]=lakb[i]._s_o_h;						//Остаточная емкость ЛАКБ
0009c4  f1010e7e          ADD      lr,r1,#0x7e
                  |L1.2504|
0009c8  eb000140          ADD      r1,r0,r0,LSL #1       ;698
0009cc  eb011200          ADD      r2,r1,r0,LSL #4       ;698
0009d0  eb050182          ADD      r1,r5,r2,LSL #2       ;698
0009d4  890c              LDRH     r4,[r1,#8]            ;698
0009d6  f8234010          STRH     r4,[r3,r0,LSL #1]     ;698
0009da  f8352022          LDRH     r2,[r5,r2,LSL #2]     ;699
0009de  f8262010          STRH     r2,[r6,r0,LSL #1]     ;699
0009e2  884a              LDRH     r2,[r1,#2]            ;700
0009e4  f8272010          STRH     r2,[r7,r0,LSL #1]     ;700
0009e8  888a              LDRH     r2,[r1,#4]            ;701
0009ea  f82c2010          STRH     r2,[r12,r0,LSL #1]    ;701
0009ee  88ca              LDRH     r2,[r1,#6]            ;703
0009f0  f8282010          STRH     r2,[r8,r0,LSL #1]     ;703
0009f4  894a              LDRH     r2,[r1,#0xa]          ;705
0009f6  f8292010          STRH     r2,[r9,r0,LSL #1]     ;705
0009fa  898a              LDRH     r2,[r1,#0xc]          ;707
0009fc  f82a2010          STRH     r2,[r10,r0,LSL #1]    ;707
000a00  89ca              LDRH     r2,[r1,#0xe]          ;709
000a02  f82b2010          STRH     r2,[r11,r0,LSL #1]    ;709
000a06  8a0a              LDRH     r2,[r1,#0x10]
000a08  f82e2010          STRH     r2,[lr,r0,LSL #1]
;;;712    	//snmp_lakb_soh[1]=lakb[1]._s_o_h;						//Остаточная емкость ЛАКБ
;;;713    	snmp_lakb_soc[i]=lakb[i]._s_o_c;						//Заряд ЛАКБ
000a0c  4ac4              LDR      r2,|L1.3360|
000a0e  8a4c              LDRH     r4,[r1,#0x12]
000a10  f102028c          ADD      r2,r2,#0x8c
000a14  f8224010          STRH     r4,[r2,r0,LSL #1]
;;;714    	//snmp_lakb_soc[1]=lakb[1]._s_o_c;						//Заряд ЛАКБ
;;;715    	snmp_lakb_cclv[i]=lakb[i]._c_c_l_v;  					//Максимальный ток заряда ЛАКБ
000a18  f102020e          ADD      r2,r2,#0xe
000a1c  8a8c              LDRH     r4,[r1,#0x14]
000a1e  f8224010          STRH     r4,[r2,r0,LSL #1]
;;;716    	//snmp_lakb_cclv[1]=lakb[1]._c_c_l_v;  					//Максимальный ток заряда ЛАКБ
;;;717    	snmp_lakb_rbt[i]=lakb[i]._r_b_t;						//Оцениваемое время работы ЛАКБ
000a22  f102020e          ADD      r2,r2,#0xe
000a26  8acc              LDRH     r4,[r1,#0x16]
000a28  f8224010          STRH     r4,[r2,r0,LSL #1]
;;;718    	//snmp_lakb_rbt[1]=lakb[1]._r_b_t;						//Оцениваемое время работы ЛАКБ
;;;719    	snmp_lakb_flags1[i]=lakb[i]._flags1;					//Первый флаг состояния ЛАКБ
000a2c  f102020e          ADD      r2,r2,#0xe
000a30  8b4c              LDRH     r4,[r1,#0x1a]
000a32  f8224010          STRH     r4,[r2,r0,LSL #1]
;;;720    	//snmp_lakb_flags1[1]=lakb[1]._flags1;					//Первый флаг состояния ЛАКБ
;;;721    	snmp_lakb_flags2[i]=lakb[i]._flags2;					//Второй флаг состояния ЛАКБ
000a36  f102020e          ADD      r2,r2,#0xe
000a3a  8b8c              LDRH     r4,[r1,#0x1c]
000a3c  f8224010          STRH     r4,[r2,r0,LSL #1]
;;;722    	//snmp_lakb_flags2[1]=lakb[1]._flags2;					//Второй флаг состояния ЛАКБ
;;;723    
;;;724    	snmp_lakb_cell_temperature_1[i]= lakb[i]._cell_temp_1;
000a40  4ab4              LDR      r2,|L1.3348|
000a42  f891403a          LDRB     r4,[r1,#0x3a]
000a46  f1020206          ADD      r2,r2,#6
000a4a  5414              STRB     r4,[r2,r0]
;;;725    	snmp_lakb_cell_temperature_2[i]= lakb[i]._cell_temp_2;
000a4c  4cb1              LDR      r4,|L1.3348|
000a4e  f891203b          LDRB     r2,[r1,#0x3b]
000a52  f1040409          ADD      r4,r4,#9
000a56  5422              STRB     r2,[r4,r0]
;;;726    	snmp_lakb_cell_temperature_3[i]= lakb[i]._cell_temp_3;
000a58  f1040403          ADD      r4,r4,#3
000a5c  f891203c          LDRB     r2,[r1,#0x3c]
000a60  5422              STRB     r2,[r4,r0]
;;;727    	snmp_lakb_cell_temperature_4[i]= lakb[i]._cell_temp_4;
000a62  f1040403          ADD      r4,r4,#3
000a66  f891203d          LDRB     r2,[r1,#0x3d]
000a6a  5422              STRB     r2,[r4,r0]
;;;728    	snmp_lakb_cell_temperature_ambient[i]=lakb[i]._cell_temp_ambient;
000a6c  f1040403          ADD      r4,r4,#3
000a70  f891203e          LDRB     r2,[r1,#0x3e]
000a74  5422              STRB     r2,[r4,r0]
;;;729    	snmp_lakb_cell_temperature_power[i]=lakb[i]._cell_temp_power;
000a76  f1040203          ADD      r2,r4,#3
000a7a  f891103f          LDRB     r1,[r1,#0x3f]
000a7e  5411              STRB     r1,[r2,r0]
000a80  f1000001          ADD      r0,r0,#1              ;696
000a84  b2c0              UXTB     r0,r0                 ;696
000a86  2803              CMP      r0,#3                 ;696
000a88  d39e              BCC      |L1.2504|
;;;730    	}
;;;731    
;;;732    for (i=0;i<7;i++)
000a8a  f04f0000          MOV      r0,#0
                  |L1.2702|
000a8e  f1000001          ADD      r0,r0,#1
000a92  b2c0              UXTB     r0,r0
000a94  2807              CMP      r0,#7
000a96  d3fa              BCC      |L1.2702|
;;;733    {
;;;734    /*
;;;735    snmp_lakb_damp1[i][0]=ABCDEF[(lakb_damp[i][0])>>4];			//Дамп
;;;736    snmp_lakb_damp1[i][1]=ABCDEF[(lakb_damp[i][0])&0x0f];			//Дамп
;;;737    snmp_lakb_damp1[i][2]=' ';
;;;738    snmp_lakb_damp1[i][3]=ABCDEF[(lakb_damp[i][1])>>4];			//Дамп
;;;739    snmp_lakb_damp1[i][4]=ABCDEF[(lakb_damp[i][1])&0x0f];			//Дамп
;;;740    snmp_lakb_damp1[i][5]=' ';
;;;741    snmp_lakb_damp1[i][6]=ABCDEF[(lakb_damp[i][2])>>4];			//Дамп
;;;742    snmp_lakb_damp1[i][7]=ABCDEF[(lakb_damp[i][2])&0x0f];			//Дамп
;;;743    snmp_lakb_damp1[i][8]=' ';
;;;744    snmp_lakb_damp1[i][9]=ABCDEF[(lakb_damp[i][3])>>4];			//Дамп
;;;745    snmp_lakb_damp1[i][10]=ABCDEF[(lakb_damp[i][3])&0x0f];			//Дамп
;;;746    snmp_lakb_damp1[i][11]=' ';
;;;747    snmp_lakb_damp1[i][12]=ABCDEF[(lakb_damp[i][4])>>4];			//Дамп
;;;748    snmp_lakb_damp1[i][13]=ABCDEF[(lakb_damp[i][4])&0x0f];			//Дамп
;;;749    snmp_lakb_damp1[i][14]=' '; 
;;;750    snmp_lakb_damp1[i][15]=ABCDEF[(lakb_damp[i][5])>>4];			//Дамп
;;;751    snmp_lakb_damp1[i][16]=ABCDEF[(lakb_damp[i][5])&0x0f];			//Дамп
;;;752    snmp_lakb_damp1[i][17]=' ';
;;;753    snmp_lakb_damp1[i][18]=ABCDEF[(lakb_damp[i][6])>>4];			//Дамп
;;;754    snmp_lakb_damp1[i][19]=ABCDEF[(lakb_damp[i][6])&0x0f];			//Дамп
;;;755    snmp_lakb_damp1[i][20]=' ';
;;;756    snmp_lakb_damp1[i][21]=ABCDEF[(lakb_damp[i][7])>>4];			//Дамп
;;;757    snmp_lakb_damp1[i][22]=ABCDEF[(lakb_damp[i][7])&0x0f];			//Дамп
;;;758    snmp_lakb_damp1[i][23]=' ';
;;;759    snmp_lakb_damp1[i][24]=ABCDEF[(lakb_damp[i][8])>>4];			//Дамп
;;;760    snmp_lakb_damp1[i][25]=ABCDEF[(lakb_damp[i][8])&0x0f];			//Дамп
;;;761    snmp_lakb_damp1[i][26]=' ';
;;;762    snmp_lakb_damp1[i][27]=ABCDEF[(lakb_damp[i][9])>>4];			//Дамп
;;;763    snmp_lakb_damp1[i][28]=ABCDEF[(lakb_damp[i][9])&0x0f];			//Дамп
;;;764    snmp_lakb_damp1[i][29]=0; 
;;;765    
;;;766    snmp_lakb_damp1[i][30]=ABCDEF[(lakb_damp[i][10])>>4];			//Дамп
;;;767    snmp_lakb_damp1[i][31]=ABCDEF[(lakb_damp[i][10])&0x0f];			//Дамп
;;;768    snmp_lakb_damp1[i][32]=' ';
;;;769    snmp_lakb_damp1[i][33]=ABCDEF[(lakb_damp[i][11])>>4];			//Дамп
;;;770    snmp_lakb_damp1[i][34]=ABCDEF[(lakb_damp[i][11])&0x0f];			//Дамп
;;;771    snmp_lakb_damp1[i][35]=' ';
;;;772    snmp_lakb_damp1[i][36]=ABCDEF[(lakb_damp[i][12])>>4];			//Дамп
;;;773    snmp_lakb_damp1[i][37]=ABCDEF[(lakb_damp[i][12])&0x0f];			//Дамп
;;;774    snmp_lakb_damp1[i][38]=' ';
;;;775    snmp_lakb_damp1[i][39]=ABCDEF[(lakb_damp[i][13])>>4];			//Дамп
;;;776    snmp_lakb_damp1[i][40]=ABCDEF[(lakb_damp[i][13])&0x0f];			//Дамп
;;;777    snmp_lakb_damp1[i][41]=' ';
;;;778    snmp_lakb_damp1[i][42]=ABCDEF[(lakb_damp[i][14])>>4];			//Дамп
;;;779    snmp_lakb_damp1[i][43]=ABCDEF[(lakb_damp[i][14])&0x0f];			//Дамп
;;;780    snmp_lakb_damp1[i][44]=' '; 
;;;781    snmp_lakb_damp1[i][45]=ABCDEF[(lakb_damp[i][15])>>4];			//Дамп
;;;782    snmp_lakb_damp1[i][46]=ABCDEF[(lakb_damp[i][15])&0x0f];			//Дамп
;;;783    snmp_lakb_damp1[i][47]=' ';
;;;784    snmp_lakb_damp1[i][48]=ABCDEF[(lakb_damp[i][16])>>4];			//Дамп
;;;785    snmp_lakb_damp1[i][49]=ABCDEF[(lakb_damp[i][16])&0x0f];			//Дамп
;;;786    snmp_lakb_damp1[i][50]=' ';
;;;787    snmp_lakb_damp1[i][51]=ABCDEF[(lakb_damp[i][17])>>4];			//Дамп
;;;788    snmp_lakb_damp1[i][52]=ABCDEF[(lakb_damp[i][17])&0x0f];			//Дамп
;;;789    snmp_lakb_damp1[i][53]=' ';
;;;790    snmp_lakb_damp1[i][54]=ABCDEF[(lakb_damp[i][18])>>4];			//Дамп
;;;791    snmp_lakb_damp1[i][55]=ABCDEF[(lakb_damp[i][18])&0x0f];			//Дамп
;;;792    snmp_lakb_damp1[i][56]=' ';
;;;793    snmp_lakb_damp1[i][57]=ABCDEF[(lakb_damp[i][19])>>4];			//Дамп
;;;794    snmp_lakb_damp1[i][58]=ABCDEF[(lakb_damp[i][19])&0x0f];			//Дамп
;;;795    snmp_lakb_damp1[i][59]=0; 
;;;796    
;;;797    
;;;798    snmp_lakb_damp1[i][60]=ABCDEF[(lakb_damp[i][20])>>4];			//Дамп
;;;799    snmp_lakb_damp1[i][61]=ABCDEF[(lakb_damp[i][20])&0x0f];			//Дамп
;;;800    snmp_lakb_damp1[i][62]=' ';
;;;801    snmp_lakb_damp1[i][63]=ABCDEF[(lakb_damp[i][21])>>4];			//Дамп
;;;802    snmp_lakb_damp1[i][64]=ABCDEF[(lakb_damp[i][21])&0x0f];			//Дамп
;;;803    snmp_lakb_damp1[i][65]=' ';
;;;804    snmp_lakb_damp1[i][66]=ABCDEF[(lakb_damp[i][22])>>4];			//Дамп
;;;805    snmp_lakb_damp1[i][67]=ABCDEF[(lakb_damp[i][22])&0x0f];			//Дамп
;;;806    snmp_lakb_damp1[i][68]=' ';
;;;807    snmp_lakb_damp1[i][69]=ABCDEF[(lakb_damp[i][23])>>4];			//Дамп
;;;808    snmp_lakb_damp1[i][70]=ABCDEF[(lakb_damp[i][23])&0x0f];			//Дамп
;;;809    snmp_lakb_damp1[i][71]=' ';
;;;810    snmp_lakb_damp1[i][72]=ABCDEF[(lakb_damp[i][24])>>4];			//Дамп
;;;811    snmp_lakb_damp1[i][73]=ABCDEF[(lakb_damp[i][24])&0x0f];			//Дамп
;;;812    snmp_lakb_damp1[i][74]=' '; 
;;;813    snmp_lakb_damp1[i][75]=ABCDEF[(lakb_damp[i][25])>>4];			//Дамп
;;;814    snmp_lakb_damp1[i][76]=ABCDEF[(lakb_damp[i][25])&0x0f];			//Дамп
;;;815    snmp_lakb_damp1[i][77]=' ';
;;;816    snmp_lakb_damp1[i][78]=ABCDEF[(lakb_damp[i][26])>>4];			//Дамп
;;;817    snmp_lakb_damp1[i][79]=ABCDEF[(lakb_damp[i][26])&0x0f];			//Дамп
;;;818    snmp_lakb_damp1[i][80]=' ';
;;;819    snmp_lakb_damp1[i][81]=ABCDEF[(lakb_damp[i][27])>>4];			//Дамп
;;;820    snmp_lakb_damp1[i][82]=ABCDEF[(lakb_damp[i][27])&0x0f];			//Дамп
;;;821    snmp_lakb_damp1[i][83]=' ';
;;;822    snmp_lakb_damp1[i][84]=ABCDEF[(lakb_damp[i][28])>>4];			//Дамп
;;;823    snmp_lakb_damp1[i][85]=ABCDEF[(lakb_damp[i][28])&0x0f];			//Дамп
;;;824    snmp_lakb_damp1[i][86]=' ';
;;;825    snmp_lakb_damp1[i][87]=ABCDEF[(lakb_damp[i][29])>>4];			//Дамп
;;;826    snmp_lakb_damp1[i][88]=ABCDEF[(lakb_damp[i][29])&0x0f];			//Дамп
;;;827    snmp_lakb_damp1[i][89]=0;
;;;828    
;;;829    
;;;830    snmp_lakb_damp1[i][90]=ABCDEF[(lakb_damp[i][30])>>4];			//Дамп
;;;831    snmp_lakb_damp1[i][91]=ABCDEF[(lakb_damp[i][30])&0x0f];			//Дамп
;;;832    snmp_lakb_damp1[i][92]=' ';
;;;833    snmp_lakb_damp1[i][93]=ABCDEF[(lakb_damp[i][31])>>4];			//Дамп
;;;834    snmp_lakb_damp1[i][94]=ABCDEF[(lakb_damp[i][31])&0x0f];			//Дамп
;;;835    snmp_lakb_damp1[i][95]=' ';
;;;836    snmp_lakb_damp1[i][96]=ABCDEF[(lakb_damp[i][32])>>4];			//Дамп
;;;837    snmp_lakb_damp1[i][97]=ABCDEF[(lakb_damp[i][32])&0x0f];			//Дамп
;;;838    snmp_lakb_damp1[i][98]=' ';
;;;839    snmp_lakb_damp1[i][99]=ABCDEF[(lakb_damp[i][33])>>4];			//Дамп
;;;840    snmp_lakb_damp1[i][100]=ABCDEF[(lakb_damp[i][33])&0x0f];			//Дамп
;;;841    snmp_lakb_damp1[i][101]=' ';
;;;842    snmp_lakb_damp1[i][102]=ABCDEF[(lakb_damp[i][34])>>4];			//Дамп
;;;843    snmp_lakb_damp1[i][103]=ABCDEF[(lakb_damp[i][34])&0x0f];			//Дамп
;;;844    snmp_lakb_damp1[i][104]=' '; 
;;;845    snmp_lakb_damp1[i][105]=ABCDEF[(lakb_damp[i][35])>>4];			//Дамп
;;;846    snmp_lakb_damp1[i][106]=ABCDEF[(lakb_damp[i][35])&0x0f];			//Дамп
;;;847    snmp_lakb_damp1[i][107]=' ';
;;;848    snmp_lakb_damp1[i][108]=ABCDEF[(lakb_damp[i][36])>>4];			//Дамп
;;;849    snmp_lakb_damp1[i][109]=ABCDEF[(lakb_damp[i][36])&0x0f];			//Дамп
;;;850    snmp_lakb_damp1[i][110]=' ';
;;;851    snmp_lakb_damp1[i][111]=ABCDEF[(lakb_damp[i][37])>>4];			//Дамп
;;;852    snmp_lakb_damp1[i][112]=ABCDEF[(lakb_damp[i][37])&0x0f];			//Дамп
;;;853    snmp_lakb_damp1[i][113]=' ';
;;;854    snmp_lakb_damp1[i][114]=ABCDEF[(lakb_damp[i][38])>>4];			//Дамп
;;;855    snmp_lakb_damp1[i][115]=ABCDEF[(lakb_damp[i][38])&0x0f];			//Дамп
;;;856    snmp_lakb_damp1[i][116]=' ';
;;;857    snmp_lakb_damp1[i][117]=ABCDEF[(lakb_damp[i][39])>>4];			//Дамп
;;;858    snmp_lakb_damp1[i][118]=ABCDEF[(lakb_damp[i][39])&0x0f];			//Дамп
;;;859    snmp_lakb_damp1[i][119]=0; 
;;;860     
;;;861    
;;;862    snmp_lakb_damp1[i][120]=ABCDEF[(lakb_damp[i][40])>>4];			//Дамп
;;;863    snmp_lakb_damp1[i][121]=ABCDEF[(lakb_damp[i][40])&0x0f];			//Дамп
;;;864    snmp_lakb_damp1[i][122]=' ';
;;;865    snmp_lakb_damp1[i][123]=ABCDEF[(lakb_damp[i][41])>>4];			//Дамп
;;;866    snmp_lakb_damp1[i][124]=ABCDEF[(lakb_damp[i][41])&0x0f];			//Дамп
;;;867    snmp_lakb_damp1[i][125]=' ';
;;;868    snmp_lakb_damp1[i][126]=ABCDEF[(lakb_damp[i][42])>>4];			//Дамп
;;;869    snmp_lakb_damp1[i][127]=ABCDEF[(lakb_damp[i][42])&0x0f];			//Дамп
;;;870    snmp_lakb_damp1[i][128]=' ';
;;;871    snmp_lakb_damp1[i][129]=ABCDEF[(lakb_damp[i][43])>>4];			//Дамп
;;;872    snmp_lakb_damp1[i][130]=ABCDEF[(lakb_damp[i][43])&0x0f];			//Дамп
;;;873    snmp_lakb_damp1[i][131]=' ';
;;;874    snmp_lakb_damp1[i][132]=ABCDEF[(lakb_damp[i][44])>>4];			//Дамп
;;;875    snmp_lakb_damp1[i][133]=ABCDEF[(lakb_damp[i][44])&0x0f];			//Дамп
;;;876    snmp_lakb_damp1[i][134]=' '; 
;;;877    snmp_lakb_damp1[i][135]=ABCDEF[(lakb_damp[i][45])>>4];			//Дамп
;;;878    snmp_lakb_damp1[i][136]=ABCDEF[(lakb_damp[i][45])&0x0f];			//Дамп
;;;879    snmp_lakb_damp1[i][137]=' ';
;;;880    snmp_lakb_damp1[i][138]=ABCDEF[(lakb_damp[i][46])>>4];			//Дамп
;;;881    snmp_lakb_damp1[i][139]=ABCDEF[(lakb_damp[i][46])&0x0f];			//Дамп
;;;882    snmp_lakb_damp1[i][140]=' ';
;;;883    snmp_lakb_damp1[i][141]=ABCDEF[(lakb_damp[i][47])>>4];			//Дамп
;;;884    snmp_lakb_damp1[i][142]=ABCDEF[(lakb_damp[i][47])&0x0f];			//Дамп
;;;885    snmp_lakb_damp1[i][143]=' ';
;;;886    snmp_lakb_damp1[i][144]=ABCDEF[(lakb_damp[i][48])>>4];			//Дамп
;;;887    snmp_lakb_damp1[i][145]=ABCDEF[(lakb_damp[i][48])&0x0f];			//Дамп
;;;888    snmp_lakb_damp1[i][146]=' ';
;;;889    snmp_lakb_damp1[i][147]=ABCDEF[(lakb_damp[i][49])>>4];			//Дамп
;;;890    snmp_lakb_damp1[i][148]=ABCDEF[(lakb_damp[i][49])&0x0f];			//Дамп
;;;891    snmp_lakb_damp1[i][149]=0;  */
;;;892    }
;;;893    
;;;894    #ifdef UKU_TELECORE2017
;;;895    snmp_warm_sign=0;
;;;896    if(TELECORE2017_KLIMAT_WARM_SIGNAL==0) snmp_warm_sign=2;
;;;897    else if(TELECORE2017_KLIMAT_WARM_SIGNAL==1) snmp_warm_sign=1;
;;;898    snmp_cool_sign=0;
;;;899    if(TELECORE2017_KLIMAT_VENT_SIGNAL==0) snmp_cool_sign=2;
;;;900    else if(TELECORE2017_KLIMAT_VENT_SIGNAL==1) snmp_cool_sign=1;
;;;901    snmp_warm_on_temper=(signed char)TELECORE2017_KLIMAT_WARM_ON; 
;;;902    snmp_warm_off_temper=(signed char)TELECORE2017_KLIMAT_WARM_OFF;
;;;903    snmp_warm_q=(signed char)TELECORE2017_KLIMAT_CAP;	
;;;904    snmp_cool_20_temper=(signed char)TELECORE2017_KLIMAT_VENT_ON20;
;;;905    snmp_cool_40_temper=(signed char)TELECORE2017_KLIMAT_VENT_ON40;
;;;906    snmp_cool_60_temper=(signed char)TELECORE2017_KLIMAT_VENT_ON60;
;;;907    snmp_cool_80_temper=(signed char)TELECORE2017_KLIMAT_VENT_ON80;
;;;908    snmp_cool_100_temper=(signed char)TELECORE2017_KLIMAT_VENT_ON100;
;;;909    snmp_cool_20_dtemper=(signed char)TELECORE2017_KLIMAT_DVENT_ON20;
;;;910    snmp_cool_40_dtemper=(signed char)TELECORE2017_KLIMAT_DVENT_ON40;
;;;911    snmp_cool_60_dtemper=(signed char)TELECORE2017_KLIMAT_DVENT_ON60;
;;;912    snmp_cool_80_dtemper=(signed char)TELECORE2017_KLIMAT_DVENT_ON80;
;;;913    snmp_cool_100_dtemper=(signed char)TELECORE2017_KLIMAT_DVENT_ON100;
;;;914    snmp_warm_stat=0;
;;;915    if(warm_stat_k==wsON) snmp_warm_stat=1;
;;;916    #endif
;;;917    }
000a98  e8bd9ff0          POP      {r4-r12,pc}
                  |L1.2716|
000a9c  54b1              STRB     r1,[r6,r2]            ;633
000a9e  e6fa              B        |L1.2198|
;;;918    //-----------------------------------------------
                          ENDP

                  snmp_location_write PROC
;;;928    //-----------------------------------------------
;;;929    void snmp_location_write (int mode) 
000aa0  b570              PUSH     {r4-r6,lr}
;;;930    {
;;;931    char i;
;;;932    if(mode==MIB_WRITE)
000aa2  2801              CMP      r0,#1
000aa4  d10c              BNE      |L1.2752|
;;;933    	{
;;;934    	for(i=0;i<64;i++)
000aa6  f04f0400          MOV      r4,#0
;;;935    		{
;;;936    		lc640_write(EE_LOCATION+i,snmp_location[i]);
000aaa  4d9f              LDR      r5,|L1.3368|
                  |L1.2732|
000aac  f5047065          ADD      r0,r4,#0x394
000ab0  5d29              LDRB     r1,[r5,r4]
000ab2  f7fffffe          BL       lc640_write
000ab6  f1040401          ADD      r4,r4,#1              ;934
000aba  b2e4              UXTB     r4,r4                 ;934
000abc  2c40              CMP      r4,#0x40              ;934
000abe  d3f5              BCC      |L1.2732|
                  |L1.2752|
;;;937    		}
;;;938    	}
;;;939    }
000ac0  bd70              POP      {r4-r6,pc}
;;;940    
                          ENDP

                  snmp_alarm_aktiv_write1 PROC
;;;941    //-----------------------------------------------
;;;942    void snmp_alarm_aktiv_write1(int mode)
000ac2  2801              CMP      r0,#1
;;;943    {
;;;944    if(mode==MIB_WRITE)
000ac4  d10f              BNE      |L1.2790|
;;;945    	{
;;;946    	if(!snmp_sk_alarm_aktiv[0])   lc640_write_int(ADR_SK_SIGN[0],0xffff);
000ac6  4893              LDR      r0,|L1.3348|
000ac8  3048              ADDS     r0,r0,#0x48
000aca  7801              LDRB     r1,[r0,#0]  ; snmp_sk_alarm_aktiv
000acc  4897              LDR      r0,|L1.3372|
000ace  b121              CBZ      r1,|L1.2778|
;;;947    	else lc640_write_int(ADR_SK_SIGN[0],0);
000ad0  f9b00000          LDRSH    r0,[r0,#0]  ; ADR_SK_SIGN
000ad4  2100              MOVS     r1,#0
000ad6  f7ffbffe          B.W      lc640_write_int
                  |L1.2778|
000ada  f9b00000          LDRSH    r0,[r0,#0]            ;946  ; ADR_SK_SIGN
000ade  f04f31ff          MOV      r1,#0xffffffff        ;946
000ae2  f7ffbffe          B.W      lc640_write_int
                  |L1.2790|
;;;948    	}
;;;949    }
000ae6  4770              BX       lr
;;;950    
                          ENDP

                  snmp_alarm_aktiv_write2 PROC
;;;951    //-----------------------------------------------
;;;952    void snmp_alarm_aktiv_write2(int mode)
000ae8  2801              CMP      r0,#1
;;;953    {
;;;954    if(mode==MIB_WRITE)
000aea  d10f              BNE      |L1.2828|
;;;955    	{
;;;956    	if(!snmp_sk_alarm_aktiv[1])   lc640_write_int(ADR_SK_SIGN[1],0xffff);
000aec  4889              LDR      r0,|L1.3348|
000aee  3048              ADDS     r0,r0,#0x48
000af0  7841              LDRB     r1,[r0,#1]  ; snmp_sk_alarm_aktiv
000af2  488e              LDR      r0,|L1.3372|
000af4  b121              CBZ      r1,|L1.2816|
;;;957    	else lc640_write_int(ADR_SK_SIGN[1],0);
000af6  f9b00002          LDRSH    r0,[r0,#2]  ; ADR_SK_SIGN
000afa  2100              MOVS     r1,#0
000afc  f7ffbffe          B.W      lc640_write_int
                  |L1.2816|
000b00  f9b00002          LDRSH    r0,[r0,#2]            ;956  ; ADR_SK_SIGN
000b04  f04f31ff          MOV      r1,#0xffffffff        ;956
000b08  f7ffbffe          B.W      lc640_write_int
                  |L1.2828|
;;;958    	}
;;;959    }
000b0c  4770              BX       lr
;;;960    
                          ENDP

                  snmp_alarm_aktiv_write3 PROC
;;;961    //-----------------------------------------------
;;;962    void snmp_alarm_aktiv_write3(int mode)
000b0e  2801              CMP      r0,#1
;;;963    {
;;;964    if(mode==MIB_WRITE)
000b10  d10f              BNE      |L1.2866|
;;;965    	{
;;;966    	if(!snmp_sk_alarm_aktiv[2])   lc640_write_int(ADR_SK_SIGN[2],0xffff);
000b12  4880              LDR      r0,|L1.3348|
000b14  3048              ADDS     r0,r0,#0x48
000b16  7881              LDRB     r1,[r0,#2]  ; snmp_sk_alarm_aktiv
000b18  4884              LDR      r0,|L1.3372|
000b1a  b121              CBZ      r1,|L1.2854|
;;;967    	else lc640_write_int(ADR_SK_SIGN[2],0);
000b1c  f9b00004          LDRSH    r0,[r0,#4]  ; ADR_SK_SIGN
000b20  2100              MOVS     r1,#0
000b22  f7ffbffe          B.W      lc640_write_int
                  |L1.2854|
000b26  f9b00004          LDRSH    r0,[r0,#4]            ;966  ; ADR_SK_SIGN
000b2a  f04f31ff          MOV      r1,#0xffffffff        ;966
000b2e  f7ffbffe          B.W      lc640_write_int
                  |L1.2866|
;;;968    	}
;;;969    }
000b32  4770              BX       lr
;;;970    
                          ENDP

                  snmp_alarm_aktiv_write4 PROC
;;;971    //-----------------------------------------------
;;;972    void snmp_alarm_aktiv_write4(int mode)
000b34  2801              CMP      r0,#1
;;;973    {
;;;974    if(mode==MIB_WRITE)
000b36  d10f              BNE      |L1.2904|
;;;975    	{
;;;976    	if(!snmp_sk_alarm_aktiv[3])   lc640_write_int(ADR_SK_SIGN[3],0xffff);
000b38  4876              LDR      r0,|L1.3348|
000b3a  3048              ADDS     r0,r0,#0x48
000b3c  78c1              LDRB     r1,[r0,#3]  ; snmp_sk_alarm_aktiv
000b3e  487b              LDR      r0,|L1.3372|
000b40  b121              CBZ      r1,|L1.2892|
;;;977    	else lc640_write_int(ADR_SK_SIGN[3],0);
000b42  f9b00006          LDRSH    r0,[r0,#6]  ; ADR_SK_SIGN
000b46  2100              MOVS     r1,#0
000b48  f7ffbffe          B.W      lc640_write_int
                  |L1.2892|
000b4c  f9b00006          LDRSH    r0,[r0,#6]            ;976  ; ADR_SK_SIGN
000b50  f04f31ff          MOV      r1,#0xffffffff        ;976
000b54  f7ffbffe          B.W      lc640_write_int
                  |L1.2904|
;;;978    	}
;;;979    }
000b58  4770              BX       lr
;;;980    
                          ENDP

                  snmp_zv_on_write PROC
;;;990    //-----------------------------------------------
;;;991    void snmp_zv_on_write (int mode)
000b5a  2801              CMP      r0,#1
;;;992    {
;;;993    if(mode==MIB_WRITE)
000b5c  d106              BNE      |L1.2924|
;;;994    	{
;;;995    	lc640_write_int(EE_ZV_ON,snmp_zv_en);
000b5e  486d              LDR      r0,|L1.3348|
000b60  3884              SUBS     r0,r0,#0x84
000b62  f9b01044          LDRSH    r1,[r0,#0x44]  ; snmp_zv_en
000b66  2086              MOVS     r0,#0x86
000b68  f7ffbffe          B.W      lc640_write_int
                  |L1.2924|
;;;996    	}
;;;997    }
000b6c  4770              BX       lr
;;;998    
                          ENDP

                  snmp_alarm_auto_disable_write PROC
;;;999    //-----------------------------------------------
;;;1000   void snmp_alarm_auto_disable_write (int mode)
000b6e  2801              CMP      r0,#1
;;;1001   {
;;;1002   if(mode==MIB_WRITE)
000b70  d106              BNE      |L1.2944|
;;;1003   	{
;;;1004        lc640_write_int(EE_AV_OFF_AVT,snmp_alarm_auto_disable);
000b72  4868              LDR      r0,|L1.3348|
000b74  3884              SUBS     r0,r0,#0x84
000b76  f9b01046          LDRSH    r1,[r0,#0x46]  ; snmp_alarm_auto_disable
000b7a  2080              MOVS     r0,#0x80
000b7c  f7ffbffe          B.W      lc640_write_int
                  |L1.2944|
;;;1005   	}
;;;1006   }
000b80  4770              BX       lr
;;;1007   
                          ENDP

                  snmp_bat_test_time_write PROC
;;;1008   //-----------------------------------------------
;;;1009   void snmp_bat_test_time_write (int mode)
000b82  2801              CMP      r0,#1
;;;1010   {
;;;1011   if(mode==MIB_WRITE)
000b84  d106              BNE      |L1.2964|
;;;1012   	{
;;;1013   	lc640_write_int(EE_TBAT,snmp_bat_test_time);
000b86  4863              LDR      r0,|L1.3348|
000b88  3884              SUBS     r0,r0,#0x84
000b8a  f9b01048          LDRSH    r1,[r0,#0x48]  ; snmp_bat_test_time
000b8e  20c2              MOVS     r0,#0xc2
000b90  f7ffbffe          B.W      lc640_write_int
                  |L1.2964|
;;;1014   	}
;;;1015   }
000b94  4770              BX       lr
;;;1016   
                          ENDP

                  snmp_u_max_write PROC
;;;1017   //-----------------------------------------------
;;;1018   void snmp_u_max_write (int mode)
000b96  2801              CMP      r0,#1
;;;1019   {
;;;1020   if(mode==MIB_WRITE)
000b98  d106              BNE      |L1.2984|
;;;1021   	{
;;;1022        lc640_write_int(EE_UMAX,snmp_u_max);
000b9a  485e              LDR      r0,|L1.3348|
000b9c  3884              SUBS     r0,r0,#0x84
000b9e  f9b0104a          LDRSH    r1,[r0,#0x4a]  ; snmp_u_max
000ba2  2078              MOVS     r0,#0x78
000ba4  f7ffbffe          B.W      lc640_write_int
                  |L1.2984|
;;;1023   	}
;;;1024   }
000ba8  4770              BX       lr
;;;1025   
                          ENDP

                  snmp_u_min_write PROC
;;;1027   //-----------------------------------------------
;;;1028   void snmp_u_min_write (int mode)
000baa  4770              BX       lr
;;;1029   {
;;;1030   if(mode==MIB_WRITE)
;;;1031   	{
;;;1032   //     lc640_write_int(EE_DU,UB20-snmp_u_min);
;;;1033   	}
;;;1034   }
;;;1035   
                          ENDP

                  snmp_u_0_grad_write PROC
;;;1037   //-----------------------------------------------
;;;1038   void snmp_u_0_grad_write (int mode)
000bac  4770              BX       lr
;;;1039   {
;;;1040   if(mode==MIB_WRITE)
;;;1041   	{
;;;1042   //	lc640_write_int(EE_UB0,snmp_u_0_grad);
;;;1043   	}
;;;1044   }
;;;1045   //-----------------------------------------------
                          ENDP

                  snmp_u_20_grad_write PROC
;;;1046   void snmp_u_20_grad_write (int mode)
000bae  4770              BX       lr
;;;1047   {
;;;1048   if(mode==MIB_WRITE)
;;;1049   	{
;;;1050   //	lc640_write_int(EE_UB20,snmp_u_20_grad);
;;;1051   	}
;;;1052   }
;;;1053   
                          ENDP

                  snmp_u_sign_write PROC
;;;1054   //-----------------------------------------------
;;;1055   void snmp_u_sign_write (int mode)
000bb0  2801              CMP      r0,#1
;;;1056   {
;;;1057   if(mode==MIB_WRITE)
000bb2  d106              BNE      |L1.3010|
;;;1058   	{
;;;1059       lc640_write_int(EE_USIGN,snmp_u_sign);
000bb4  4857              LDR      r0,|L1.3348|
000bb6  3884              SUBS     r0,r0,#0x84
000bb8  f9b0104c          LDRSH    r1,[r0,#0x4c]  ; snmp_u_sign
000bbc  2082              MOVS     r0,#0x82
000bbe  f7ffbffe          B.W      lc640_write_int
                  |L1.3010|
;;;1060   	}
;;;1061   }
000bc2  4770              BX       lr
;;;1062   //-----------------------------------------------
                          ENDP

                  snmp_u_min_power_write PROC
;;;1063   void snmp_u_min_power_write (int mode)
000bc4  2801              CMP      r0,#1
;;;1064   {
;;;1065   if(mode==MIB_WRITE)
000bc6  d106              BNE      |L1.3030|
;;;1066   	{
;;;1067   	lc640_write_int(EE_UMN,snmp_u_min_power);
000bc8  4852              LDR      r0,|L1.3348|
000bca  3884              SUBS     r0,r0,#0x84
000bcc  f9b0104e          LDRSH    r1,[r0,#0x4e]  ; snmp_u_min_power
000bd0  2084              MOVS     r0,#0x84
000bd2  f7ffbffe          B.W      lc640_write_int
                  |L1.3030|
;;;1068   	}
;;;1069   }
000bd6  4770              BX       lr
;;;1070   //-----------------------------------------------
                          ENDP

                  snmp_u_withouth_bat_write PROC
;;;1071   void snmp_u_withouth_bat_write (int mode)
000bd8  2801              CMP      r0,#1
;;;1072   {
;;;1073   if(mode==MIB_WRITE)
000bda  d106              BNE      |L1.3050|
;;;1074   	{
;;;1075   	lc640_write_int(EE_U0B,snmp_u_withouth_bat);
000bdc  484d              LDR      r0,|L1.3348|
000bde  3884              SUBS     r0,r0,#0x84
000be0  f9b01050          LDRSH    r1,[r0,#0x50]  ; snmp_u_withouth_bat
000be4  2094              MOVS     r0,#0x94
000be6  f7ffbffe          B.W      lc640_write_int
                  |L1.3050|
;;;1076   	}
;;;1077   }
000bea  4770              BX       lr
;;;1078   
                          ENDP

                  snmp_control_current_write PROC
;;;1079   //-----------------------------------------------
;;;1080   void snmp_control_current_write (int mode)
000bec  2801              CMP      r0,#1
;;;1081   {
;;;1082   if(mode==MIB_WRITE)
000bee  d106              BNE      |L1.3070|
;;;1083   	{
;;;1084   	lc640_write_int(EE_IKB,snmp_control_current);
000bf0  4848              LDR      r0,|L1.3348|
000bf2  3884              SUBS     r0,r0,#0x84
000bf4  f9b01052          LDRSH    r1,[r0,#0x52]  ; snmp_control_current
000bf8  2088              MOVS     r0,#0x88
000bfa  f7ffbffe          B.W      lc640_write_int
                  |L1.3070|
;;;1085   	}
;;;1086   }
000bfe  4770              BX       lr
;;;1087   
                          ENDP

                  snmp_max_charge_current_write PROC
;;;1088   //-----------------------------------------------
;;;1089   void snmp_max_charge_current_write (int mode)
000c00  2801              CMP      r0,#1
;;;1090   {
;;;1091   if(mode==MIB_WRITE)
000c02  d106              BNE      |L1.3090|
;;;1092   	{
;;;1093   	lc640_write_int(EE_IZMAX,snmp_max_charge_current);
000c04  4843              LDR      r0,|L1.3348|
000c06  3884              SUBS     r0,r0,#0x84
000c08  f9b01054          LDRSH    r1,[r0,#0x54]  ; snmp_max_charge_current
000c0c  2092              MOVS     r0,#0x92
000c0e  f7ffbffe          B.W      lc640_write_int
                  |L1.3090|
;;;1094   	}
;;;1095   }
000c12  4770              BX       lr
;;;1096   
                          ENDP

                  snmp_max_current_write PROC
;;;1097   //-----------------------------------------------
;;;1098   void snmp_max_current_write (int mode)
000c14  2801              CMP      r0,#1
;;;1099   {
;;;1100   if(mode==MIB_WRITE)
000c16  d106              BNE      |L1.3110|
;;;1101   	{
;;;1102        lc640_write_int(EE_IMAX,snmp_max_current);
000c18  483e              LDR      r0,|L1.3348|
000c1a  3884              SUBS     r0,r0,#0x84
000c1c  f9b01056          LDRSH    r1,[r0,#0x56]  ; snmp_max_current
000c20  208c              MOVS     r0,#0x8c
000c22  f7ffbffe          B.W      lc640_write_int
                  |L1.3110|
;;;1103   	}
;;;1104   }
000c26  4770              BX       lr
;;;1105   
                          ENDP

                  snmp_min_current_write PROC
;;;1106   //-----------------------------------------------
;;;1107   void snmp_min_current_write (int mode)
000c28  2801              CMP      r0,#1
;;;1108   {
;;;1109   if(mode==MIB_WRITE)
000c2a  d106              BNE      |L1.3130|
;;;1110   	{
;;;1111        lc640_write_int(EE_IMIN,snmp_min_current);
000c2c  4839              LDR      r0,|L1.3348|
000c2e  3884              SUBS     r0,r0,#0x84
000c30  f9b01058          LDRSH    r1,[r0,#0x58]  ; snmp_min_current
000c34  208e              MOVS     r0,#0x8e
000c36  f7ffbffe          B.W      lc640_write_int
                  |L1.3130|
;;;1112   	}
;;;1113   }
000c3a  4770              BX       lr
;;;1114   
                          ENDP

                  snmp_powerup_psu_timeout_write PROC
;;;1133   //-----------------------------------------------
;;;1134   void snmp_powerup_psu_timeout_write (int mode)
000c3c  2801              CMP      r0,#1
;;;1135   {
;;;1136   if(mode==MIB_WRITE)
000c3e  d106              BNE      |L1.3150|
;;;1137   	{
;;;1138        lc640_write_int(EE_TZAS,snmp_powerup_psu_timeout);
000c40  4834              LDR      r0,|L1.3348|
000c42  3884              SUBS     r0,r0,#0x84
000c44  f9b0105a          LDRSH    r1,[r0,#0x5a]  ; snmp_powerup_psu_timeout
000c48  2096              MOVS     r0,#0x96
000c4a  f7ffbffe          B.W      lc640_write_int
                  |L1.3150|
;;;1139   	}
;;;1140   }
000c4e  4770              BX       lr
;;;1141   
                          ENDP

                  snmp_tsign_bat_write PROC
;;;1151   //-----------------------------------------------
;;;1152   void snmp_tsign_bat_write(int mode)
000c50  2801              CMP      r0,#1
;;;1153   {
;;;1154   if(mode==MIB_WRITE)
000c52  d106              BNE      |L1.3170|
;;;1155   	{
;;;1156    	lc640_write_int(EE_TBATSIGN,snmp_tsign_bat);
000c54  482f              LDR      r0,|L1.3348|
000c56  3884              SUBS     r0,r0,#0x84
000c58  f9b0105e          LDRSH    r1,[r0,#0x5e]  ; snmp_tsign_bat
000c5c  20ce              MOVS     r0,#0xce
000c5e  f7ffbffe          B.W      lc640_write_int
                  |L1.3170|
;;;1157   	}
;;;1158   }
000c62  4770              BX       lr
;;;1159   //-----------------------------------------------
                          ENDP

                  snmp_tmax_bat_write PROC
;;;1160   void snmp_tmax_bat_write(int mode)
000c64  2801              CMP      r0,#1
;;;1161   {
;;;1162   if(mode==MIB_WRITE)
000c66  d106              BNE      |L1.3190|
;;;1163   	{
;;;1164    	lc640_write_int(EE_TBATMAX,snmp_tmax_bat);
000c68  482a              LDR      r0,|L1.3348|
000c6a  3884              SUBS     r0,r0,#0x84
000c6c  f9b01060          LDRSH    r1,[r0,#0x60]  ; snmp_tmax_bat
000c70  20cc              MOVS     r0,#0xcc
000c72  f7ffbffe          B.W      lc640_write_int
                  |L1.3190|
;;;1165   	}
;;;1166   }
000c76  4770              BX       lr
;;;1167   //-----------------------------------------------
                          ENDP

                  snmp_tsign_bps_write PROC
;;;1168   void snmp_tsign_bps_write(int mode)
000c78  2801              CMP      r0,#1
;;;1169   {
;;;1170   if(mode==MIB_WRITE)
000c7a  d106              BNE      |L1.3210|
;;;1171   	{
;;;1172   	lc640_write_int(EE_TSIGN,snmp_tsign_bps);
000c7c  4825              LDR      r0,|L1.3348|
000c7e  3884              SUBS     r0,r0,#0x84
000c80  f9b01062          LDRSH    r1,[r0,#0x62]  ; snmp_tsign_bps
000c84  20c6              MOVS     r0,#0xc6
000c86  f7ffbffe          B.W      lc640_write_int
                  |L1.3210|
;;;1173   	}
;;;1174   }
000c8a  4770              BX       lr
;;;1175   //-----------------------------------------------
                          ENDP

                  snmp_tmax_bps_write PROC
;;;1176   void snmp_tmax_bps_write(int mode)
000c8c  2801              CMP      r0,#1
;;;1177   {
;;;1178   if(mode==MIB_WRITE)
000c8e  d106              BNE      |L1.3230|
;;;1179   	{
;;;1180   	lc640_write_int(EE_TMAX,snmp_tmax_bps);
000c90  4820              LDR      r0,|L1.3348|
000c92  3884              SUBS     r0,r0,#0x84
000c94  f9b01064          LDRSH    r1,[r0,#0x64]  ; snmp_tmax_bps
000c98  207e              MOVS     r0,#0x7e
000c9a  f7ffbffe          B.W      lc640_write_int
                  |L1.3230|
;;;1181   	}
;;;1182   }
000c9e  4770              BX       lr
;;;1183   
                          ENDP

                  snmp_uvz_write PROC
;;;1184   //-----------------------------------------------
;;;1185   void snmp_uvz_write(int mode)
000ca0  4770              BX       lr
;;;1186   {
;;;1187   if(mode==MIB_WRITE)
;;;1188   	{
;;;1189   	//lc640_write_int(EE_UVZ,snmp_uvz);
;;;1190   	}
;;;1191   }
;;;1192   //-----------------------------------------------
                          ENDP

                  snmp_bat_part_alarm_write PROC
;;;1193   void snmp_bat_part_alarm_write(int mode)
000ca2  2801              CMP      r0,#1
;;;1194   {
;;;1195   if(mode==MIB_WRITE)
000ca4  d107              BNE      |L1.3254|
;;;1196   	{
;;;1197   	lc640_write_int(EE_UBM_AV,snmp_bat_part_alarm);
000ca6  481b              LDR      r0,|L1.3348|
000ca8  3884              SUBS     r0,r0,#0x84
000caa  f9b01066          LDRSH    r1,[r0,#0x66]  ; snmp_bat_part_alarm
000cae  f44f7019          MOV      r0,#0x264
000cb2  f7ffbffe          B.W      lc640_write_int
                  |L1.3254|
;;;1198   	}
;;;1199   }
000cb6  4770              BX       lr
;;;1200   //-----------------------------------------------
                          ENDP

                  snmp_power_cnt_adress_write PROC
;;;1201   void snmp_power_cnt_adress_write(int mode)
000cb8  2801              CMP      r0,#1
;;;1202   {
;;;1203   if(mode==MIB_WRITE)
000cba  d107              BNE      |L1.3276|
;;;1204   	{
;;;1205   	lc640_write_int(EE_POWER_CNT_ADRESS,snmp_power_cnt_adress);
000cbc  4815              LDR      r0,|L1.3348|
000cbe  3884              SUBS     r0,r0,#0x84
000cc0  f9b01068          LDRSH    r1,[r0,#0x68]  ; snmp_power_cnt_adress
000cc4  f2402062          MOV      r0,#0x262
000cc8  f7ffbffe          B.W      lc640_write_int
                  |L1.3276|
;;;1206   	}
;;;1207   }
000ccc  4770              BX       lr
;;;1208   
                          ENDP

                  snmp_command_execute PROC
;;;1209   //-----------------------------------------------
;;;1210   void snmp_command_execute (int mode)
000cce  b510              PUSH     {r4,lr}
;;;1211   {
;;;1212   if(mode==MIB_WRITE)
000cd0  2801              CMP      r0,#1
000cd2  d114              BNE      |L1.3326|
;;;1213   	{
;;;1214   	
;;;1215   	//snmp_command=0x5555;
;;;1216   
;;;1217   	switch (snmp_command)
000cd4  480f              LDR      r0,|L1.3348|
;;;1218   		{
;;;1219   		case SNMP_BPS_DISABLE:
;;;1220   			{
;;;1221   			snmp_command=COMMAND_OK;
000cd6  f2455255          MOV      r2,#0x5555
000cda  3884              SUBS     r0,r0,#0x84           ;1217
000cdc  4601              MOV      r1,r0                 ;1217
000cde  f9b04040          LDRSH    r4,[r0,#0x40]         ;1217  ; snmp_command
;;;1222   
;;;1223   		/*	switch (snmp_command_parametr)
;;;1224   				{
;;;1225   			
;;;1226   				case 1: 
;;;1227   				{
;;;1228   				St_[0]|=0x20;
;;;1229   				St_[1]&=0xdf;
;;;1230   				St&=0xfb;
;;;1231   				cnt_src[1]=10;
;;;1232   				snmp_plazma++;
;;;1233   				snmp_plazma++;
;;;1234   				break;
;;;1235   				}
;;;1236   			
;;;1237   				case 2:
;;;1238   				{
;;;1239   				St_[1]|=0x20;
;;;1240   				St_[0]&=0xdf;
;;;1241   				St&=0xfb;
;;;1242   				cnt_src[0]=10;	
;;;1243   				snmp_plazma++;
;;;1244   				break;
;;;1245   				}*/	
;;;1246   			
;;;1247   				//break;
;;;1248   			//	}
;;;1249   			if(snmp_command_parametr==1) 
;;;1250   				{
;;;1251   			//	St_[0]|=0x20;
;;;1252   			//	St_[1]&=0xdf;
;;;1253   			//	St&=0xfb;
;;;1254   		//		cnt_src[1]=10;
;;;1255   		//		snmp_plazma++;
;;;1256   		//		snmp_plazma++;
;;;1257   				}
;;;1258   			
;;;1259   			else if(snmp_command_parametr==2)
;;;1260   				{
;;;1261   			//	St_[1]|=0x20;
;;;1262   			//	St_[0]&=0xdf;
;;;1263   			//	St&=0xfb;
;;;1264   		//		cnt_src[0]=10;	
;;;1265   		//		snmp_plazma++;
;;;1266   				}	
;;;1267   			
;;;1268   			break;
;;;1269   			}
;;;1270   
;;;1271   		case SNMP_BPS_UNDISABLE:
;;;1272   			{
;;;1273   			snmp_command=COMMAND_OK;
;;;1274   		//	St_[0]&=0xdf;
;;;1275   		//	St_[1]&=0xdf;
;;;1276   			break;
;;;1277   			}
;;;1278   
;;;1279   		case SNMP_SPEC_VZ:
;;;1280   			{
;;;1281   			if((snmp_command_parametr>=1)&&(snmp_command_parametr<=24))
;;;1282   				{
;;;1283   			//	if(!(St&0x03)&&(NUMBAT))
;;;1284   					{
;;;1285   					snmp_command=COMMAND_OK;
;;;1286   		//			spc_stat=spc_VZ;
;;;1287   		//			cnt_vz_sec_=3600UL*snmp_command_parametr;
;;;1288   					}
;;;1289   			//	else
;;;1290    					{
;;;1291   					snmp_command=COMAND_FAIL;	
000ce2  43d3              MVNS     r3,r2
000ce4  1ee4              SUBS     r4,r4,#3              ;1217
000ce6  f9b11042          LDRSH    r1,[r1,#0x42]         ;1249
000cea  2c06              CMP      r4,#6                 ;1217
000cec  d22b              BCS      |L1.3398|
000cee  e8dff004          TBB      [pc,r4]               ;1217
000cf2  0a24              DCB      0x0a,0x24
000cf4  032a2707          DCB      0x03,0x2a,0x27,0x07
000cf8  f8a02040          STRH     r2,[r0,#0x40]         ;1221
000cfc  2901              CMP      r1,#1                 ;1249
                  |L1.3326|
;;;1292    					}
;;;1293   				}
;;;1294   			else 
;;;1295   				{
;;;1296   				snmp_command=WRONG_PARAMETER;
;;;1297   				}
;;;1298   			break;
;;;1299   			}
;;;1300   
;;;1301   		case SNMP_SPEC_KE:
;;;1302   			{
;;;1303   	  	//	if(!(St&0x02)&&(NUMBAT))
;;;1304   				{
;;;1305   				//spc_stat=spc_KE;
;;;1306   			//zar_cnt_ee_ke=0;
;;;1307   			//	zar_cnt=0L;
;;;1308   				snmp_command=COMMAND_OK;
;;;1309   				}
;;;1310   		//	else
;;;1311   				{
;;;1312   				snmp_command=COMAND_FAIL;	
;;;1313   				}
;;;1314   			break;
;;;1315   			}
;;;1316   
;;;1317   		case SNMP_SPEC_DISABLE:
;;;1318   			{
;;;1319   		//	spc_stat=spc_OFF;
;;;1320   			snmp_command=COMMAND_OK;
;;;1321   			break;
;;;1322   			}
;;;1323   
;;;1324   
;;;1325   		default:
;;;1326   			{
;;;1327   			snmp_command=COMMAND_INVALID;
;;;1328   			break;
;;;1329   			}
;;;1330   		}
;;;1331   /*		else if((UIB2[1]==0x52)&&(UIB2[4]==5)&&(UIB2[5]==5)&&(UIB2[6])&&(UIB2[6]<=NUMIST)&&(UIB2[6]==UIB2[7])) 	//Выключение источника 
;;;1332   		{
;;;1333   	
;;;1334   		if((UIB2[6]==1)&&(UIB2[7]==1)) 
;;;1335   			{
;;;1336   			St_[0]|=0x20;
;;;1337   			St_[1]&=0xdf;
;;;1338   			St&=0xfb;
;;;1339   			cnt_src[1]=10;
;;;1340   			}
;;;1341   			
;;;1342   		else if((UIB2[6]==2)&&(UIB2[7]==2))
;;;1343   			{
;;;1344   			St_[1]|=0x20;
;;;1345   			St_[0]&=0xdf;
;;;1346   			St&=0xfb;
;;;1347   			cnt_src[0]=10;
;;;1348   			}	
;;;1349   		
;;;1350        	memo_out2[0]=0x33;
;;;1351        	memo_out2[1]=0x62;
;;;1352        	memo_out2[2]=4;
;;;1353        	memo_out2[3]=0x03;
;;;1354        	
;;;1355        	memo_out2[4]=5;
;;;1356        	memo_out2[5]=5;
;;;1357        	memo_out2[6]=UIB2[6];
;;;1358        	memo_out2[7]=UIB2[6];
;;;1359            	memo_out2[8]=crc_87(memo_out2,8);
;;;1360   		memo_out2[9]=crc_95(memo_out2,8);
;;;1361        	uart_out_adr2(memo_out2,10); 		
;;;1362   		} */
;;;1363   
;;;1364   
;;;1365   
;;;1366   	}
;;;1367   }
000cfe  bd10              POP      {r4,pc}
000d00  f8a02040          STRH     r2,[r0,#0x40]         ;1273
000d04  bd10              POP      {r4,pc}
000d06  1e49              SUBS     r1,r1,#1              ;1281
000d08  2917              CMP      r1,#0x17              ;1281
000d0a  d811              BHI      |L1.3376|
000d0c  f8a03040          STRH     r3,[r0,#0x40]         ;1291
                  |L1.3344|
000d10  bd10              POP      {r4,pc}
000d12  0000              DCW      0x0000
                  |L1.3348|
                          DCD      ||.data||+0x84
                  |L1.3352|
                          DCD      ND_EXT
                  |L1.3356|
                          DCD      NUMDT
                  |L1.3360|
                          DCD      ||.bss||+0x194
                  |L1.3364|
                          DCD      lakb
                  |L1.3368|
                          DCD      ||.bss||+0x14
                  |L1.3372|
                          DCD      ADR_SK_SIGN
                  |L1.3376|
000d30  f64e61ef          MOV      r1,#0xeeef            ;1296
000d34  f8a01040          STRH     r1,[r0,#0x40]         ;1296
000d38  e7ea              B        |L1.3344|
000d3a  f8a03040          STRH     r3,[r0,#0x40]         ;1312
000d3e  e7e7              B        |L1.3344|
000d40  f8a02040          STRH     r2,[r0,#0x40]         ;1320
000d44  e7e4              B        |L1.3344|
                  |L1.3398|
000d46  f64e61ee          MOV      r1,#0xeeee            ;1327
000d4a  f8a01040          STRH     r1,[r0,#0x40]         ;1327
000d4e  e7df              B        |L1.3344|
;;;1368   
                          ENDP

                  snmp_trap_send PROC
;;;1927   //-----------------------------------------------
;;;1928   void snmp_trap_send(char* str, signed short in0, signed short in1, signed short in2)
000d50  e92d41f0          PUSH     {r4-r8,lr}
;;;1929   {
;;;1930   for(snmp_trap_send_i=0;snmp_trap_send_i<100;snmp_trap_send_i++)
000d54  4fbe              LDR      r7,|L1.4176|
000d56  f04f0500          MOV      r5,#0
000d5a  72fd              STRB     r5,[r7,#0xb]
;;;1931   	{
;;;1932   	snmp_spc_trap_message[snmp_trap_send_i]=0;
000d5c  4ebd              LDR      r6,|L1.4180|
                  |L1.3422|
000d5e  7afc              LDRB     r4,[r7,#0xb]  ; snmp_trap_send_i
000d60  5535              STRB     r5,[r6,r4]
000d62  f1040401          ADD      r4,r4,#1              ;1930
000d66  b2e4              UXTB     r4,r4                 ;1930
000d68  72fc              STRB     r4,[r7,#0xb]          ;1930
000d6a  2c64              CMP      r4,#0x64              ;1930
000d6c  d3f7              BCC      |L1.3422|
;;;1933   	}
;;;1934   
;;;1935   
;;;1936   obj[0] = 0;
000d6e  f8dfc2e8          LDR      r12,|L1.4184|
000d72  f8ac5000          STRH     r5,[r12,#0]
;;;1937   snmp_trap_send_ii=1;
000d76  f04f0801          MOV      r8,#1
000d7a  f887800c          STRB     r8,[r7,#0xc]
;;;1938   if(str!=0)
000d7e  b1a8              CBZ      r0,|L1.3500|
;;;1939   	{
;;;1940   	obj[0]++;
000d80  f8ac8000          STRH     r8,[r12,#0]
;;;1941   	for(snmp_trap_send_i=0;snmp_trap_send_i<100&&(str[snmp_trap_send_i]);snmp_trap_send_i++)
000d84  72fd              STRB     r5,[r7,#0xb]
000d86  e003              B        |L1.3472|
                  |L1.3464|
;;;1942   		{
;;;1943   		snmp_spc_trap_message[snmp_trap_send_i]=str[snmp_trap_send_i];
000d88  5535              STRB     r5,[r6,r4]
000d8a  f1040401          ADD      r4,r4,#1              ;1941
000d8e  72fc              STRB     r4,[r7,#0xb]          ;1941
                  |L1.3472|
000d90  7afc              LDRB     r4,[r7,#0xb]          ;1941  ; snmp_trap_send_i
000d92  2c64              CMP      r4,#0x64              ;1941
000d94  d202              BCS      |L1.3484|
000d96  5d05              LDRB     r5,[r0,r4]            ;1941
000d98  2d00              CMP      r5,#0                 ;1941
000d9a  d1f5              BNE      |L1.3464|
                  |L1.3484|
;;;1944   		}
;;;1945   	obj[snmp_trap_send_ii] = 7;
000d9c  f04f0007          MOV      r0,#7
000da0  f82c0018          STRH     r0,[r12,r8,LSL #1]
;;;1946   	snmp_trap_send_ii++;
000da4  f1080801          ADD      r8,r8,#1
000da8  f887800c          STRB     r8,[r7,#0xc]
                  |L1.3500|
;;;1947   	}
;;;1948   if(in0!=0xffff)
000dac  f64f74ff          MOV      r4,#0xffff
000db0  42a1              CMP      r1,r4
000db2  d00e              BEQ      |L1.3538|
;;;1949   	{
;;;1950   	obj[0]++;
000db4  f8bc0000          LDRH     r0,[r12,#0]  ; obj
000db8  f1000001          ADD      r0,r0,#1
000dbc  f8ac0000          STRH     r0,[r12,#0]
;;;1951   	snmp_spc_trap_value_0=in0;
000dc0  8579              STRH     r1,[r7,#0x2a]
;;;1952   	obj[snmp_trap_send_ii] = 8;
000dc2  7b38              LDRB     r0,[r7,#0xc]  ; snmp_trap_send_ii
000dc4  f04f0108          MOV      r1,#8
000dc8  f82c1010          STRH     r1,[r12,r0,LSL #1]
;;;1953   	snmp_trap_send_ii++;
000dcc  f1000001          ADD      r0,r0,#1
000dd0  7338              STRB     r0,[r7,#0xc]
                  |L1.3538|
;;;1954   	}
;;;1955   if(in1!=0xffff)
000dd2  42a2              CMP      r2,r4
000dd4  d00e              BEQ      |L1.3572|
;;;1956   	{
;;;1957   	obj[0]++;
000dd6  f8bc0000          LDRH     r0,[r12,#0]  ; obj
000dda  f1000001          ADD      r0,r0,#1
000dde  f8ac0000          STRH     r0,[r12,#0]
;;;1958   	snmp_spc_trap_value_1=in1;
000de2  85ba              STRH     r2,[r7,#0x2c]
;;;1959   	obj[snmp_trap_send_ii] = 9;
000de4  7b38              LDRB     r0,[r7,#0xc]  ; snmp_trap_send_ii
000de6  f04f0109          MOV      r1,#9
000dea  f82c1010          STRH     r1,[r12,r0,LSL #1]
;;;1960   	snmp_trap_send_ii++;
000dee  f1000001          ADD      r0,r0,#1
000df2  7338              STRB     r0,[r7,#0xc]
                  |L1.3572|
;;;1961   	}
;;;1962   if(in2!=0xffff)
000df4  42a3              CMP      r3,r4
000df6  d00e              BEQ      |L1.3606|
;;;1963   	{
;;;1964   	obj[0]++;
000df8  f8bc0000          LDRH     r0,[r12,#0]  ; obj
000dfc  f1000001          ADD      r0,r0,#1
000e00  f8ac0000          STRH     r0,[r12,#0]
;;;1965   	snmp_spc_trap_value_2=in2;
000e04  85fb              STRH     r3,[r7,#0x2e]
;;;1966   	obj[snmp_trap_send_ii] = 10;
000e06  7b38              LDRB     r0,[r7,#0xc]  ; snmp_trap_send_ii
000e08  f04f010a          MOV      r1,#0xa
000e0c  f82c1010          STRH     r1,[r12,r0,LSL #1]
;;;1967   	snmp_trap_send_ii++;
000e10  f1000001          ADD      r0,r0,#1
000e14  7338              STRB     r0,[r7,#0xc]
                  |L1.3606|
;;;1968   	}
;;;1969   
;;;1970   
;;;1971   if((ETH_TRAP1_IP_1!=255)&&(ETH_TRAP1_IP_2!=255)&&(ETH_TRAP1_IP_3!=255)&&(ETH_TRAP1_IP_4!=255))
000e16  4891              LDR      r0,|L1.4188|
;;;1972   	{
;;;1973   	temp_ip[0]= ETH_TRAP1_IP_1;
000e18  4c8d              LDR      r4,|L1.4176|
000e1a  f9b00000          LDRSH    r0,[r0,#0]            ;1971  ; ETH_TRAP1_IP_1
000e1e  34d4              ADDS     r4,r4,#0xd4
000e20  28ff              CMP      r0,#0xff              ;1971
000e22  d018              BEQ      |L1.3670|
000e24  498e              LDR      r1,|L1.4192|
000e26  f9b11000          LDRSH    r1,[r1,#0]            ;1971  ; ETH_TRAP1_IP_2
000e2a  29ff              CMP      r1,#0xff              ;1971
000e2c  d013              BEQ      |L1.3670|
000e2e  4a8d              LDR      r2,|L1.4196|
000e30  f9b22000          LDRSH    r2,[r2,#0]            ;1971  ; ETH_TRAP1_IP_3
000e34  2aff              CMP      r2,#0xff              ;1971
000e36  d00e              BEQ      |L1.3670|
000e38  4b8b              LDR      r3,|L1.4200|
000e3a  f9b33000          LDRSH    r3,[r3,#0]            ;1971  ; ETH_TRAP1_IP_4
000e3e  2bff              CMP      r3,#0xff              ;1971
000e40  d009              BEQ      |L1.3670|
000e42  7020              STRB     r0,[r4,#0]
;;;1974   	temp_ip[1]= ETH_TRAP1_IP_2;
000e44  7061              STRB     r1,[r4,#1]
;;;1975   	temp_ip[2]= ETH_TRAP1_IP_3;
000e46  70a2              STRB     r2,[r4,#2]
;;;1976   	temp_ip[3]= ETH_TRAP1_IP_4;
000e48  70e3              STRB     r3,[r4,#3]
;;;1977   	snmp_trap (temp_ip, 6, 3, obj);
000e4a  4b83              LDR      r3,|L1.4184|
000e4c  2203              MOVS     r2,#3
000e4e  2106              MOVS     r1,#6
000e50  4620              MOV      r0,r4
000e52  f7fffffe          BL       snmp_trap
                  |L1.3670|
;;;1978   	}
;;;1979   if((ETH_TRAP2_IP_1!=255)&&(ETH_TRAP2_IP_2!=255)&&(ETH_TRAP2_IP_3!=255)&&(ETH_TRAP2_IP_4!=255))
000e56  4885              LDR      r0,|L1.4204|
000e58  f9b01000          LDRSH    r1,[r0,#0]  ; ETH_TRAP2_IP_1
000e5c  29ff              CMP      r1,#0xff
000e5e  d019              BEQ      |L1.3732|
000e60  4883              LDR      r0,|L1.4208|
000e62  f9b02000          LDRSH    r2,[r0,#0]  ; ETH_TRAP2_IP_2
000e66  2aff              CMP      r2,#0xff
000e68  d014              BEQ      |L1.3732|
000e6a  4882              LDR      r0,|L1.4212|
000e6c  f9b00000          LDRSH    r0,[r0,#0]  ; ETH_TRAP2_IP_3
000e70  28ff              CMP      r0,#0xff
000e72  d00f              BEQ      |L1.3732|
000e74  4b80              LDR      r3,|L1.4216|
000e76  f9b33000          LDRSH    r3,[r3,#0]  ; ETH_TRAP2_IP_4
000e7a  2bff              CMP      r3,#0xff
000e7c  d00a              BEQ      |L1.3732|
;;;1980   	{
;;;1981   	temp_ip[0]= ETH_TRAP2_IP_1;
000e7e  7021              STRB     r1,[r4,#0]
;;;1982   	temp_ip[1]= ETH_TRAP2_IP_2;
000e80  7062              STRB     r2,[r4,#1]
;;;1983   	temp_ip[2]= ETH_TRAP2_IP_3;
000e82  70a0              STRB     r0,[r4,#2]
;;;1984   	temp_ip[3]= ETH_TRAP2_IP_4;
000e84  70e3              STRB     r3,[r4,#3]
;;;1985   	snmp_trap (temp_ip, 6, 3, obj);
000e86  4872              LDR      r0,|L1.4176|
000e88  4b73              LDR      r3,|L1.4184|
000e8a  2203              MOVS     r2,#3
000e8c  2106              MOVS     r1,#6
000e8e  30d4              ADDS     r0,r0,#0xd4
000e90  f7fffffe          BL       snmp_trap
                  |L1.3732|
;;;1986   	}
;;;1987   
;;;1988   if((ETH_TRAP3_IP_1!=255)&&(ETH_TRAP3_IP_2!=255)&&(ETH_TRAP3_IP_3!=255)&&(ETH_TRAP3_IP_4!=255))
000e94  4879              LDR      r0,|L1.4220|
000e96  f9b01000          LDRSH    r1,[r0,#0]  ; ETH_TRAP3_IP_1
000e9a  29ff              CMP      r1,#0xff
000e9c  d019              BEQ      |L1.3794|
000e9e  4878              LDR      r0,|L1.4224|
000ea0  f9b02000          LDRSH    r2,[r0,#0]  ; ETH_TRAP3_IP_2
000ea4  2aff              CMP      r2,#0xff
000ea6  d014              BEQ      |L1.3794|
000ea8  4876              LDR      r0,|L1.4228|
000eaa  f9b03000          LDRSH    r3,[r0,#0]  ; ETH_TRAP3_IP_3
000eae  2bff              CMP      r3,#0xff
000eb0  d00f              BEQ      |L1.3794|
000eb2  4875              LDR      r0,|L1.4232|
000eb4  f9b00000          LDRSH    r0,[r0,#0]  ; ETH_TRAP3_IP_4
000eb8  28ff              CMP      r0,#0xff
000eba  d00a              BEQ      |L1.3794|
;;;1989   	{
;;;1990   	temp_ip[0]= ETH_TRAP3_IP_1;
000ebc  7021              STRB     r1,[r4,#0]
;;;1991   	temp_ip[1]= ETH_TRAP3_IP_2;
000ebe  7062              STRB     r2,[r4,#1]
;;;1992   	temp_ip[2]= ETH_TRAP3_IP_3;
000ec0  70a3              STRB     r3,[r4,#2]
;;;1993   	temp_ip[3]= ETH_TRAP3_IP_4;
000ec2  70e0              STRB     r0,[r4,#3]
;;;1994   	snmp_trap (temp_ip, 6, 3, obj);
000ec4  4862              LDR      r0,|L1.4176|
000ec6  4b64              LDR      r3,|L1.4184|
000ec8  2203              MOVS     r2,#3
000eca  2106              MOVS     r1,#6
000ecc  30d4              ADDS     r0,r0,#0xd4
000ece  f7fffffe          BL       snmp_trap
                  |L1.3794|
;;;1995   	}
;;;1996   
;;;1997   if((ETH_TRAP4_IP_1!=255)&&(ETH_TRAP4_IP_2!=255)&&(ETH_TRAP4_IP_3!=255)&&(ETH_TRAP4_IP_4!=255))
000ed2  486e              LDR      r0,|L1.4236|
000ed4  f9b03000          LDRSH    r3,[r0,#0]  ; ETH_TRAP4_IP_1
000ed8  2bff              CMP      r3,#0xff
000eda  d019              BEQ      |L1.3856|
000edc  486c              LDR      r0,|L1.4240|
000ede  f9b00000          LDRSH    r0,[r0,#0]  ; ETH_TRAP4_IP_2
000ee2  28ff              CMP      r0,#0xff
000ee4  d014              BEQ      |L1.3856|
000ee6  496b              LDR      r1,|L1.4244|
000ee8  f9b11000          LDRSH    r1,[r1,#0]  ; ETH_TRAP4_IP_3
000eec  29ff              CMP      r1,#0xff
000eee  d00f              BEQ      |L1.3856|
000ef0  4a69              LDR      r2,|L1.4248|
000ef2  f9b22000          LDRSH    r2,[r2,#0]  ; ETH_TRAP4_IP_4
000ef6  2aff              CMP      r2,#0xff
000ef8  d00a              BEQ      |L1.3856|
;;;1998   	{
;;;1999   	temp_ip[0]= ETH_TRAP4_IP_1;
000efa  7023              STRB     r3,[r4,#0]
;;;2000   	temp_ip[1]= ETH_TRAP4_IP_2;
000efc  7060              STRB     r0,[r4,#1]
;;;2001   	temp_ip[2]= ETH_TRAP4_IP_3;
000efe  70a1              STRB     r1,[r4,#2]
;;;2002   	temp_ip[3]= ETH_TRAP4_IP_4;
000f00  70e2              STRB     r2,[r4,#3]
;;;2003   	snmp_trap (temp_ip, 6, 3, obj);
000f02  4853              LDR      r0,|L1.4176|
000f04  4b54              LDR      r3,|L1.4184|
000f06  2203              MOVS     r2,#3
000f08  2106              MOVS     r1,#6
000f0a  30d4              ADDS     r0,r0,#0xd4
000f0c  f7fffffe          BL       snmp_trap
                  |L1.3856|
;;;2004   	}
;;;2005   
;;;2006   if((ETH_TRAP5_IP_1!=255)&&(ETH_TRAP5_IP_2!=255)&&(ETH_TRAP5_IP_3!=255)&&(ETH_TRAP5_IP_4!=255))
000f10  4862              LDR      r0,|L1.4252|
000f12  f9b02000          LDRSH    r2,[r0,#0]  ; ETH_TRAP5_IP_1
000f16  2aff              CMP      r2,#0xff
000f18  d01b              BEQ      |L1.3922|
000f1a  4861              LDR      r0,|L1.4256|
000f1c  f9b01000          LDRSH    r1,[r0,#0]  ; ETH_TRAP5_IP_2
000f20  29ff              CMP      r1,#0xff
000f22  d016              BEQ      |L1.3922|
000f24  485f              LDR      r0,|L1.4260|
000f26  f9b00000          LDRSH    r0,[r0,#0]  ; ETH_TRAP5_IP_3
000f2a  28ff              CMP      r0,#0xff
000f2c  d011              BEQ      |L1.3922|
000f2e  4b5e              LDR      r3,|L1.4264|
000f30  f9b33000          LDRSH    r3,[r3,#0]  ; ETH_TRAP5_IP_4
000f34  2bff              CMP      r3,#0xff
000f36  d00c              BEQ      |L1.3922|
;;;2007   	{
;;;2008   	temp_ip[0]= ETH_TRAP5_IP_1;
000f38  7022              STRB     r2,[r4,#0]
;;;2009   	temp_ip[1]= ETH_TRAP5_IP_2;
000f3a  7061              STRB     r1,[r4,#1]
;;;2010   	temp_ip[2]= ETH_TRAP5_IP_3;
000f3c  70a0              STRB     r0,[r4,#2]
;;;2011   	temp_ip[3]= ETH_TRAP5_IP_4;
000f3e  70e3              STRB     r3,[r4,#3]
;;;2012   	snmp_trap (temp_ip, 6, 3, obj);
000f40  e8bd41f0          POP      {r4-r8,lr}
000f44  4842              LDR      r0,|L1.4176|
000f46  2203              MOVS     r2,#3
000f48  2106              MOVS     r1,#6
000f4a  4b43              LDR      r3,|L1.4184|
000f4c  30d4              ADDS     r0,r0,#0xd4
000f4e  f7ffbffe          B.W      snmp_trap
                  |L1.3922|
;;;2013   	}			
;;;2014   }
000f52  e8bd81f0          POP      {r4-r8,pc}
;;;2015   
                          ENDP

                  snmp_warm_sign_write PROC
;;;2090   //-----------------------------------------------
;;;2091   void snmp_warm_sign_write(int mode)
000f56  2801              CMP      r0,#1
;;;2092   {
;;;2093   if(mode==MIB_WRITE)
000f58  d10b              BNE      |L1.3954|
;;;2094   	{
;;;2095        if(snmp_warm_sign==1)lc640_write_int(EE_TELECORE2017_KLIMAT_WARM_SIGNAL,1);
000f5a  483d              LDR      r0,|L1.4176|
000f5c  7801              LDRB     r1,[r0,#0]  ; snmp_warm_sign
000f5e  f44f7082          MOV      r0,#0x104
000f62  2901              CMP      r1,#1
000f64  d002              BEQ      |L1.3948|
;;;2096   	 else lc640_write_int(EE_TELECORE2017_KLIMAT_WARM_SIGNAL,0);
000f66  2100              MOVS     r1,#0
000f68  f7ffbffe          B.W      lc640_write_int
                  |L1.3948|
000f6c  2101              MOVS     r1,#1                 ;2095
000f6e  f7ffbffe          B.W      lc640_write_int
                  |L1.3954|
;;;2097   	}
;;;2098   }
000f72  4770              BX       lr
;;;2099   
                          ENDP

                  snmp_cool_sign_write PROC
;;;2100   //-----------------------------------------------
;;;2101   void snmp_cool_sign_write(int mode)
000f74  2801              CMP      r0,#1
;;;2102   {
;;;2103   if(mode==MIB_WRITE)
000f76  d10b              BNE      |L1.3984|
;;;2104   	{
;;;2105       if(snmp_cool_sign==1)lc640_write_int(EE_TELECORE2017_KLIMAT_VENT_SIGNAL,1);
000f78  4835              LDR      r0,|L1.4176|
000f7a  7841              LDRB     r1,[r0,#1]  ; snmp_cool_sign
000f7c  f44f708a          MOV      r0,#0x114
000f80  2901              CMP      r1,#1
000f82  d002              BEQ      |L1.3978|
;;;2106   	else lc640_write_int(EE_TELECORE2017_KLIMAT_VENT_SIGNAL,0);
000f84  2100              MOVS     r1,#0
000f86  f7ffbffe          B.W      lc640_write_int
                  |L1.3978|
000f8a  2101              MOVS     r1,#1                 ;2105
000f8c  f7ffbffe          B.W      lc640_write_int
                  |L1.3984|
;;;2107   	}
;;;2108   }
000f90  4770              BX       lr
;;;2109   
                          ENDP

                  snmp_warm_on_temper_write PROC
;;;2110   //-----------------------------------------------
;;;2111   void snmp_warm_on_temper_write(int mode)
000f92  2801              CMP      r0,#1
;;;2112   {
;;;2113   if(mode==MIB_WRITE)
000f94  d106              BNE      |L1.4004|
;;;2114   	{
;;;2115        lc640_write_int(EE_TELECORE2017_KLIMAT_WARM_ON,snmp_warm_on_temper);
000f96  482e              LDR      r0,|L1.4176|
000f98  f9901002          LDRSB    r1,[r0,#2]  ; snmp_warm_on_temper
000f9c  f44f7083          MOV      r0,#0x106
000fa0  f7ffbffe          B.W      lc640_write_int
                  |L1.4004|
;;;2116   	}
;;;2117   }
000fa4  4770              BX       lr
;;;2118   
                          ENDP

                  snmp_warm_off_temper_write PROC
;;;2119   //-----------------------------------------------
;;;2120   void snmp_warm_off_temper_write(int mode)
000fa6  2801              CMP      r0,#1
;;;2121   {
;;;2122   if(mode==MIB_WRITE)
000fa8  d106              BNE      |L1.4024|
;;;2123   	{
;;;2124        lc640_write_int(EE_TELECORE2017_KLIMAT_WARM_OFF,snmp_warm_off_temper);
000faa  4829              LDR      r0,|L1.4176|
000fac  f9901003          LDRSB    r1,[r0,#3]  ; snmp_warm_off_temper
000fb0  f44f7084          MOV      r0,#0x108
000fb4  f7ffbffe          B.W      lc640_write_int
                  |L1.4024|
;;;2125   	}
;;;2126   }
000fb8  4770              BX       lr
;;;2127   
                          ENDP

                  snmp_warm_q_write PROC
;;;2128   //-----------------------------------------------
;;;2129   void snmp_warm_q_write(int mode)
000fba  2801              CMP      r0,#1
;;;2130   {
;;;2131   if(mode==MIB_WRITE)
000fbc  d106              BNE      |L1.4044|
;;;2132   	{
;;;2133        lc640_write_int(EE_TELECORE2017_KLIMAT_CAP,snmp_warm_q);
000fbe  4824              LDR      r0,|L1.4176|
000fc0  f9901004          LDRSB    r1,[r0,#4]  ; snmp_warm_q
000fc4  f44f7085          MOV      r0,#0x10a
000fc8  f7ffbffe          B.W      lc640_write_int
                  |L1.4044|
;;;2134   	}
;;;2135   }
000fcc  4770              BX       lr
;;;2136   
                          ENDP

                  snmp_cool_100_temper_write PROC
;;;2137   //-----------------------------------------------
;;;2138   void snmp_cool_100_temper_write(int mode)
000fce  2801              CMP      r0,#1
;;;2139   {
;;;2140   if(mode==MIB_WRITE)
000fd0  d106              BNE      |L1.4064|
;;;2141   	{
;;;2142        lc640_write_int(EE_TELECORE2017_KLIMAT_VENT_ON100,snmp_cool_100_temper);
000fd2  481f              LDR      r0,|L1.4176|
000fd4  f9901005          LDRSB    r1,[r0,#5]  ; snmp_cool_100_temper
000fd8  f44f70a3          MOV      r0,#0x146
000fdc  f7ffbffe          B.W      lc640_write_int
                  |L1.4064|
;;;2143   	}
;;;2144   }
000fe0  4770              BX       lr
;;;2145   
                          ENDP

                  snmp_cool_80_temper_write PROC
;;;2146   //-----------------------------------------------
;;;2147   void snmp_cool_80_temper_write(int mode)
000fe2  2801              CMP      r0,#1
;;;2148   {
;;;2149   if(mode==MIB_WRITE)
000fe4  d106              BNE      |L1.4084|
;;;2150   	{
;;;2151        lc640_write_int(EE_TELECORE2017_KLIMAT_VENT_ON80,snmp_cool_80_temper);
000fe6  481a              LDR      r0,|L1.4176|
000fe8  f9901006          LDRSB    r1,[r0,#6]  ; snmp_cool_80_temper
000fec  f44f70a2          MOV      r0,#0x144
000ff0  f7ffbffe          B.W      lc640_write_int
                  |L1.4084|
;;;2152   	}
;;;2153   }
000ff4  4770              BX       lr
;;;2154   
                          ENDP

                  snmp_cool_60_temper_write PROC
;;;2155   //-----------------------------------------------
;;;2156   void snmp_cool_60_temper_write(int mode)
000ff6  2801              CMP      r0,#1
;;;2157   {
;;;2158   if(mode==MIB_WRITE)
000ff8  d106              BNE      |L1.4104|
;;;2159   	{
;;;2160        lc640_write_int(EE_TELECORE2017_KLIMAT_VENT_ON60,snmp_cool_60_temper);
000ffa  4815              LDR      r0,|L1.4176|
000ffc  f9901007          LDRSB    r1,[r0,#7]  ; snmp_cool_60_temper
001000  f44f70a1          MOV      r0,#0x142
001004  f7ffbffe          B.W      lc640_write_int
                  |L1.4104|
;;;2161   	}
;;;2162   }
001008  4770              BX       lr
;;;2163   
                          ENDP

                  snmp_cool_40_temper_write PROC
;;;2164   //-----------------------------------------------
;;;2165   void snmp_cool_40_temper_write(int mode)
00100a  2801              CMP      r0,#1
;;;2166   {
;;;2167   if(mode==MIB_WRITE)
00100c  d106              BNE      |L1.4124|
;;;2168   	{
;;;2169        lc640_write_int(EE_TELECORE2017_KLIMAT_VENT_ON40,snmp_cool_40_temper);
00100e  4810              LDR      r0,|L1.4176|
001010  f9901008          LDRSB    r1,[r0,#8]  ; snmp_cool_40_temper
001014  f44f70a0          MOV      r0,#0x140
001018  f7ffbffe          B.W      lc640_write_int
                  |L1.4124|
;;;2170   	}
;;;2171   }
00101c  4770              BX       lr
;;;2172   
                          ENDP

                  snmp_cool_20_temper_write PROC
;;;2173   //-----------------------------------------------
;;;2174   void snmp_cool_20_temper_write(int mode)
00101e  2801              CMP      r0,#1
;;;2175   {
;;;2176   if(mode==MIB_WRITE)
001020  d106              BNE      |L1.4144|
;;;2177   	{
;;;2178        lc640_write_int(EE_TELECORE2017_KLIMAT_VENT_ON20,snmp_cool_20_temper);
001022  480b              LDR      r0,|L1.4176|
001024  f9901009          LDRSB    r1,[r0,#9]  ; snmp_cool_20_temper
001028  f44f709f          MOV      r0,#0x13e
00102c  f7ffbffe          B.W      lc640_write_int
                  |L1.4144|
;;;2179   	}
;;;2180   }
001030  4770              BX       lr
;;;2181   
                          ENDP

                  snmp_cool_100_dtemper_write PROC
;;;2182   //-----------------------------------------------
;;;2183   void snmp_cool_100_dtemper_write(int mode)
001032  4770              BX       lr
;;;2184   {
;;;2185   if(mode==MIB_WRITE)
;;;2186   	{
;;;2187   //     lc640_write_int(EE_TELECORE2017_KLIMAT_DVENT_ON100,snmp_cool_100_dtemper);
;;;2188   	}
;;;2189   }
;;;2190   
                          ENDP

                  snmp_cool_80_dtemper_write PROC
;;;2191   //-----------------------------------------------
;;;2192   void snmp_cool_80_dtemper_write(int mode)
001034  4770              BX       lr
;;;2193   {
;;;2194   if(mode==MIB_WRITE)
;;;2195   	{
;;;2196   //     lc640_write_int(EE_TELECORE2017_KLIMAT_DVENT_ON80,snmp_cool_80_dtemper);
;;;2197   	}
;;;2198   }
;;;2199   
                          ENDP

                  snmp_cool_60_dtemper_write PROC
;;;2200   //-----------------------------------------------
;;;2201   void snmp_cool_60_dtemper_write(int mode)
001036  4770              BX       lr
;;;2202   {
;;;2203   if(mode==MIB_WRITE)
;;;2204   	{
;;;2205   //     lc640_write_int(EE_TELECORE2017_KLIMAT_DVENT_ON60,snmp_cool_60_dtemper);
;;;2206   	}
;;;2207   }
;;;2208   
                          ENDP

                  snmp_cool_40_dtemper_write PROC
;;;2209   //-----------------------------------------------
;;;2210   void snmp_cool_40_dtemper_write(int mode)
001038  4770              BX       lr
;;;2211   {
;;;2212   if(mode==MIB_WRITE)
;;;2213   	{
;;;2214   //     lc640_write_int(EE_TELECORE2017_KLIMAT_DVENT_ON40,snmp_cool_40_dtemper);
;;;2215   	}
;;;2216   }
;;;2217   
                          ENDP

                  snmp_cool_20_dtemper_write PROC
;;;2218   //-----------------------------------------------
;;;2219   void snmp_cool_20_dtemper_write(int mode)
00103a  2801              CMP      r0,#1
;;;2220   {
;;;2221   if(mode==MIB_WRITE)
00103c  d106              BNE      |L1.4172|
;;;2222   	{
;;;2223        lc640_write_int(EE_TELECORE2017_KLIMAT_DVENT_ON20,snmp_cool_20_dtemper);
00103e  4804              LDR      r0,|L1.4176|
001040  f990100a          LDRSB    r1,[r0,#0xa]  ; snmp_cool_20_dtemper
001044  f44f70a5          MOV      r0,#0x14a
001048  f7ffbffe          B.W      lc640_write_int
                  |L1.4172|
;;;2224   	}
;;;2225   }
00104c  4770              BX       lr
;;;2226   
                          ENDP

00104e  0000              DCW      0x0000
                  |L1.4176|
                          DCD      ||.data||
                  |L1.4180|
                          DCD      ||.bss||+0xc8
                  |L1.4184|
                          DCD      ||.bss||+0x266
                  |L1.4188|
                          DCD      ETH_TRAP1_IP_1
                  |L1.4192|
                          DCD      ETH_TRAP1_IP_2
                  |L1.4196|
                          DCD      ETH_TRAP1_IP_3
                  |L1.4200|
                          DCD      ETH_TRAP1_IP_4
                  |L1.4204|
                          DCD      ETH_TRAP2_IP_1
                  |L1.4208|
                          DCD      ETH_TRAP2_IP_2
                  |L1.4212|
                          DCD      ETH_TRAP2_IP_3
                  |L1.4216|
                          DCD      ETH_TRAP2_IP_4
                  |L1.4220|
                          DCD      ETH_TRAP3_IP_1
                  |L1.4224|
                          DCD      ETH_TRAP3_IP_2
                  |L1.4228|
                          DCD      ETH_TRAP3_IP_3
                  |L1.4232|
                          DCD      ETH_TRAP3_IP_4
                  |L1.4236|
                          DCD      ETH_TRAP4_IP_1
                  |L1.4240|
                          DCD      ETH_TRAP4_IP_2
                  |L1.4244|
                          DCD      ETH_TRAP4_IP_3
                  |L1.4248|
                          DCD      ETH_TRAP4_IP_4
                  |L1.4252|
                          DCD      ETH_TRAP5_IP_1
                  |L1.4256|
                          DCD      ETH_TRAP5_IP_2
                  |L1.4260|
                          DCD      ETH_TRAP5_IP_3
                  |L1.4264|
                          DCD      ETH_TRAP5_IP_4

                          AREA ||area_number.2||, CODE, READONLY, ALIGN=2

                          EXPORTAS ||area_number.2||, ||.text||
                  snmp_sernum_write PROC
;;;259    //-----------------------------------------------
;;;260    void snmp_data (void) 
000000  b510              PUSH     {r4,lr}
;;;261    {
000002  2801              CMP      r0,#1
;;;262    char i;
;;;263    
;;;264    snmp_mains_power_voltage=net_U;
000004  d10c              BNE      |L2.32|
000006  4c07              LDR      r4,|L2.36|
000008  f44f70ab          MOV      r0,#0x156
;;;265    #ifdef UKU_220_IPS_TERMOKOMPENSAT
;;;266    snmp_mains_power_frequency=net_F3;
00000c  69e1              LDR      r1,[r4,#0x1c]  ; snmp_sernum
00000e  f7fffffe          BL       lc640_write_long
;;;267    #else
;;;268    snmp_mains_power_frequency=net_F;
;;;269    #endif
;;;270    snmp_mains_power_voltage_phaseA=net_Ua;
000012  69e1              LDR      r1,[r4,#0x1c]  ; snmp_sernum
000014  e8bd4010          POP      {r4,lr}
;;;271    snmp_mains_power_voltage_phaseB=net_Ub;
000018  f44f70ac          MOV      r0,#0x158
00001c  f7ffbffe          B.W      lc640_write_long
                  |L2.32|
;;;272    snmp_mains_power_voltage_phaseC=net_Uc;
000020  bd10              POP      {r4,pc}
;;;273    
;;;274    /*
;;;275    snmp_mains_power_status=0; 
;;;276    #if(UKU_VERSION==900)
;;;277    snmp_mains_power_status=2;
;;;278    #endif
;;;279    if(St&0x01)snmp_mains_power_status|=0x01;
;;;280    if(St&0x01)snmp_mains_power_alarm=1;
;;;281    
;;;282    
;;;283    
;;;284    
;;;285    
;;;286    
;;;287    for(i=0;i<snmp_numofevents;i++)event2snmp(i);
;;;288    //snmp_bpsnumber[0]=1;
;;;289    //snmp_bpsnumber[1]=2;
;;;290    
;;;291    snmp_sernum=AUSW_MAIN_NUMBER;
;;;292    snmp_sernum_lsb=0x1122;
;;;293    snmp_sernum_msb=0x3344;
;;;294    snmp_device_code=AUSW_MAIN;
;;;295    
;;;296    //memcpy(snmp_location,"lkhg;la",);
;;;297    
;;;298    
;;;299    snmp_numofbat=1;
;;;300    
;;;301    */
;;;302    
;;;303    snmp_load_voltage=load_U;
;;;304    snmp_load_current=load_I;
;;;305    snmp_numofbat=NUMBAT;
;;;306    snmp_numofbps=NUMIST;
;;;307    snmp_numofinv=NUMINV;
;;;308    snmp_numofavt=NUMAVT;
;;;309    snmp_numofdt=NUMDT;
;;;310    snmp_numofsk=NUMSK;
;;;311    snmp_numofevents=lc640_read_int(CNT_EVENT_LOG);
;;;312    
;;;313    snmp_energy_vvod_phase_a=Uvv_eb2[0];
;;;314    snmp_energy_vvod_phase_b=Uvv_eb2[1];
;;;315    snmp_energy_vvod_phase_c=Uvv_eb2[2];
;;;316    snmp_energy_pes_phase_a=Upes_eb2[0];
;;;317    snmp_energy_pes_phase_b=Upes_eb2[1];
;;;318    snmp_energy_pes_phase_c=Upes_eb2[2];
;;;319    
;;;320    #ifdef UKU_KONTUR
;;;321    snmp_energy_vvod_phase_a=Uvv0;
;;;322    snmp_energy_pes_phase_a=Uvv[1];
;;;323    #endif
;;;324    
;;;325    snmp_energy_total_energy=power_summary;
;;;326    snmp_energy_current_energy=power_current;
;;;327    snmp_energy_input_voltage=net_U;
;;;328    
;;;329    snmp_bat_number[0]=1;
;;;330    snmp_bat_voltage[0]=bat[0]._Ub;
;;;331    snmp_bat_part_voltage[0]=bat[0]._Ubm;
;;;332    snmp_bat_current[0]=bat[0]._Ib;
;;;333    
;;;334    #ifdef UKU_220_IPS_TERMOKOMPENSAT
;;;335    if(((AUSW_MAIN==22063)||(AUSW_MAIN==22023))&&(bps[8]._device==dIBAT_METR))
;;;336    	{
;;;337    	snmp_bat_current[0]=Ib_ips_termokompensat;
;;;338    	}
;;;339    #endif
;;;340    
;;;341    snmp_bat_temperature[0]=bat[0]._Tb;
;;;342    if(BAT_C_REAL[0]==0x5555)snmp_bat_capacity[0]=BAT_C_NOM[0];
;;;343    else snmp_bat_capacity[0]=BAT_C_REAL[0];
;;;344    snmp_bat_charge[0]=bat[0]._zar;
;;;345    snmp_bat_status[0]=bat[0]._av;
;;;346    if(BAT_IS_ON[0]!=bisON)snmp_bat_status[0]=0xff;
;;;347    
;;;348    snmp_bat_number[1]=2;
;;;349    snmp_bat_voltage[1]=bat[1]._Ub;
;;;350    snmp_bat_part_voltage[1]=bat[1]._Ubm;
;;;351    snmp_bat_current[1]=bat[1]._Ib;
;;;352    snmp_bat_temperature[1]=bat[1]._Tb;
;;;353    if(BAT_C_REAL[1]==0x5555)snmp_bat_capacity[1]=BAT_C_NOM[1];
;;;354    else snmp_bat_capacity[1]=BAT_C_REAL[1];
;;;355    snmp_bat_charge[1]=bat[1]._zar;
;;;356    snmp_bat_status[1]=bat[1]._av;
;;;357    if(BAT_IS_ON[1]!=bisON)snmp_bat_status[1]=0xff;
;;;358    
;;;359    
;;;360    
;;;361    snmp_bps_number[0]=1;
;;;362    snmp_bps_voltage[0]=bps[0]._Uii;
;;;363    snmp_bps_current[0]=bps[0]._Ii;
;;;364    snmp_bps_temperature[0]=bps[0]._Ti;
;;;365    snmp_bps_stat[0]=bps[0]._av;
;;;366    if(!(NUMIST>0))snmp_bps_stat[0]=0xff;												//Байт состояния БПСа.
;;;367    
;;;368    /*if(St_[0]&(1<<2))snmp_bps_stat[0]=(1<<3); 							//авария по Umin
;;;369    else if(St_[0]&(1<<3))snmp_bps_stat[0]=(1<<2); 						//авария по Umax
;;;370    else if(bps[0]._av&(1<<0))snmp_bps_stat[0]=(1<<1); 						//авария по Tmax
;;;371    else if(St_[0]&(1<<5))snmp_bps_stat[0]=(1<<5); 						//заблокирован
;;;372    else if((!(St_[0]&0x3c))&&(!St&0x01)&&(!OFFBP1))snmp_bps_stat[0]=1; 		//Работает
;;;373    */
;;;374    
;;;375    snmp_bps_number[1]=2;
;;;376    snmp_bps_voltage[1]=bps[1]._Uii;
;;;377    snmp_bps_current[1]=bps[1]._Ii;
;;;378    snmp_bps_temperature[1]=bps[1]._Ti;
;;;379    snmp_bps_stat[1]=bps[1]._av;
;;;380    if(!(NUMIST>1))snmp_bps_stat[1]=0xff;												//Байт состояния БПСа.
;;;381    /*if(St_[1]&(1<<2))snmp_bps_stat[1]=(1<<3); 							//авария по Umin
;;;382    else if(St_[1]&(1<<3))snmp_bps_stat[1]=(1<<2); 						//авария по Umax
;;;383    else if(St_[1]&(1<<4))snmp_bps_stat[1]=(1<<1); 						//авария по Tmax
;;;384    else if(St_[1]&(1<<5))snmp_bps_stat[1]=(1<<5); 						//заблокирован
;;;385    else if((!(St_[1]&0x3c))&&(!St&0x01)&&(!OFFBP2))snmp_bps_stat[1]=1; 		//Работает
;;;386    */
;;;387    
;;;388    snmp_bps_number[2]=3;
;;;389    snmp_bps_voltage[2]=bps[2]._Uii;
;;;390    snmp_bps_current[2]=bps[2]._Ii;
;;;391    snmp_bps_temperature[2]=bps[2]._Ti;
;;;392    snmp_bps_stat[2]=bps[2]._av;
;;;393    if(!(NUMIST>2))snmp_bps_stat[2]=0xff;
;;;394    
;;;395    snmp_bps_number[3]=4;
;;;396    snmp_bps_voltage[3]=bps[3]._Uii;
;;;397    snmp_bps_current[3]=bps[3]._Ii;
;;;398    snmp_bps_temperature[3]=bps[3]._Ti;
;;;399    snmp_bps_stat[3]=bps[3]._av;
;;;400    if(!(NUMIST>3))snmp_bps_stat[3]=0xff;
;;;401    
;;;402    snmp_bps_number[4]=5;
;;;403    snmp_bps_voltage[4]=bps[4]._Uii;
;;;404    snmp_bps_current[4]=bps[4]._Ii;
;;;405    snmp_bps_temperature[4]=bps[4]._Ti;
;;;406    snmp_bps_stat[4]=bps[4]._av;
;;;407    if(!(NUMIST>4))snmp_bps_stat[4]=0xff;
;;;408    
;;;409    snmp_bps_number[5]=6;
;;;410    snmp_bps_voltage[5]=bps[5]._Uii;
;;;411    snmp_bps_current[5]=bps[5]._Ii;
;;;412    snmp_bps_temperature[5]=bps[5]._Ti;
;;;413    snmp_bps_stat[5]=bps[5]._av;
;;;414    if(!(NUMIST>5))snmp_bps_stat[5]=0xff;
;;;415    
;;;416    snmp_bps_number[6]=7;
;;;417    snmp_bps_voltage[6]=bps[6]._Uii;
;;;418    snmp_bps_current[6]=bps[6]._Ii;
;;;419    snmp_bps_temperature[6]=bps[6]._Ti;
;;;420    snmp_bps_stat[6]=bps[6]._av;
;;;421    if(!(NUMIST>6))snmp_bps_stat[6]=0xff;
;;;422    
;;;423    snmp_bps_number[7]=8;
;;;424    snmp_bps_voltage[7]=bps[7]._Uii;
;;;425    snmp_bps_current[7]=bps[7]._Ii;
;;;426    snmp_bps_temperature[7]=bps[7]._Ti;
;;;427    snmp_bps_stat[7]=bps[7]._av;
;;;428    if(!(NUMIST>7))snmp_bps_stat[7]=0xff;
;;;429    
;;;430    
;;;431    
;;;432    snmp_inv_number[0]=1;
;;;433    snmp_inv_voltage[0]=inv[0]._Uio;
;;;434    snmp_inv_current[0]=inv[0]._Ii;
;;;435    snmp_inv_temperature[0]=inv[0]._Ti;
;;;436    snmp_inv_stat[0]=inv[0]._flags_tm;
;;;437    
;;;438    snmp_inv_number[1]=2;
;;;439    snmp_inv_voltage[1]=inv[1]._Uio;
;;;440    snmp_inv_current[1]=inv[1]._Ii;
;;;441    snmp_inv_temperature[1]=inv[1]._Ti;
;;;442    snmp_inv_stat[1]=inv[1]._flags_tm;
;;;443    
;;;444    snmp_inv_number[2]=3;
;;;445    snmp_inv_voltage[2]=inv[2]._Uio;
;;;446    snmp_inv_current[2]=inv[2]._Ii;
;;;447    snmp_inv_temperature[2]=inv[2]._Ti;
;;;448    snmp_inv_stat[2]=inv[2]._flags_tm;
;;;449    
;;;450    
;;;451    
;;;452    
;;;453    					  
;;;454    snmp_sk_number[0]=1;
;;;455    memcpy(&snmp_sk_name[0][0],"Door",10);
;;;456    if(sk_stat[0]==ssON) snmp_sk_aktiv[0]=1;
;;;457    else snmp_sk_aktiv[0]=0;
;;;458    if(!SK_SIGN[0])snmp_sk_alarm_aktiv[0]=1;
;;;459    else snmp_sk_alarm_aktiv[0]=0;
;;;460    if(sk_av_stat[0]==sasON)	snmp_sk_alarm[0]=1;
;;;461    else                     snmp_sk_alarm[0]=0;
;;;462    
;;;463    
;;;464    snmp_sk_number[1]=2;
;;;465    memcpy(&snmp_sk_name[1][0],"Smoke",10);
;;;466    if(sk_stat[1]==ssON) snmp_sk_aktiv[1]=1;
;;;467    else snmp_sk_aktiv[1]=0;
;;;468    if(!SK_SIGN[1])snmp_sk_alarm_aktiv[1]=1;
;;;469    else snmp_sk_alarm_aktiv[1]=0;
;;;470    if(sk_av_stat[1]==sasON)	snmp_sk_alarm[1]=1;
;;;471    else                     snmp_sk_alarm[1]=0;
;;;472    
;;;473    snmp_sk_number[2]=3;
;;;474    memcpy(&snmp_sk_name[2][0],"Shock",10);
;;;475    if(sk_stat[2]==ssON) snmp_sk_aktiv[2]=1;
;;;476    else snmp_sk_aktiv[2]=0;
;;;477    if(!SK_SIGN[2])snmp_sk_alarm_aktiv[2]=1;
;;;478    else snmp_sk_alarm_aktiv[2]=0;
;;;479    if(sk_av_stat[2]==sasON)	snmp_sk_alarm[2]=1;
;;;480    else                     snmp_sk_alarm[2]=0;
;;;481    
;;;482    snmp_sk_number[3]=4;
;;;483    memcpy(&snmp_sk_name[3][0],"     ",10);
;;;484    if(sk_stat[3]==ssON) snmp_sk_aktiv[3]=1;
;;;485    else snmp_sk_aktiv[3]=0;
;;;486    if(!SK_SIGN[3])snmp_sk_alarm_aktiv[3]=1;
;;;487    else snmp_sk_alarm_aktiv[3]=0;
;;;488    if(sk_av_stat[3]==sasON)	snmp_sk_alarm[3]=1;
;;;489    else                     snmp_sk_alarm[3]=0;
;;;490    
;;;491    
;;;492    if(makb[0]._cnt>8) snmp_makb_connect_status[0]=1;
;;;493    else if(makb[0]._cnt<2) snmp_makb_connect_status[0]=0;
;;;494    if(makb[1]._cnt>8) snmp_makb_connect_status[1]=1;
;;;495    else if(makb[1]._cnt<2) snmp_makb_connect_status[1]=0;
;;;496    if(makb[2]._cnt>8) snmp_makb_connect_status[2]=1;
;;;497    else if(makb[2]._cnt<2) snmp_makb_connect_status[2]=0;
;;;498    if(makb[3]._cnt>8) snmp_makb_connect_status[3]=1;
;;;499    else if(makb[3]._cnt<2) snmp_makb_connect_status[3]=0;
;;;500    
;;;501    snmp_makb_voltage0[0]=makb[0]._Ub[0];
;;;502    snmp_makb_voltage1[0]=makb[0]._Ub[1];
;;;503    snmp_makb_voltage2[0]=makb[0]._Ub[2];
;;;504    snmp_makb_voltage3[0]=makb[0]._Ub[3];
;;;505    snmp_makb_voltage4[0]=makb[0]._Ub[4];
;;;506    snmp_makb_voltage0[1]=makb[1]._Ub[0];
;;;507    snmp_makb_voltage1[1]=makb[1]._Ub[1];
;;;508    snmp_makb_voltage2[1]=makb[1]._Ub[2];
;;;509    snmp_makb_voltage3[1]=makb[1]._Ub[3];
;;;510    snmp_makb_voltage4[1]=makb[1]._Ub[4];
;;;511    snmp_makb_voltage0[2]=makb[2]._Ub[0];
;;;512    snmp_makb_voltage1[2]=makb[2]._Ub[1];
;;;513    snmp_makb_voltage2[2]=makb[2]._Ub[2];
;;;514    snmp_makb_voltage3[2]=makb[2]._Ub[3];
;;;515    snmp_makb_voltage4[2]=makb[2]._Ub[4];
;;;516    snmp_makb_voltage0[3]=makb[3]._Ub[0];
;;;517    snmp_makb_voltage1[3]=makb[3]._Ub[1];
;;;518    snmp_makb_voltage2[3]=makb[3]._Ub[2];
;;;519    snmp_makb_voltage3[3]=makb[3]._Ub[3];
;;;520    snmp_makb_voltage4[3]=makb[3]._Ub[4];
;;;521    
;;;522    snmp_makb_temper0[0]=makb[0]._T[0];
;;;523    snmp_makb_temper1[0]=makb[0]._T[1];
;;;524    snmp_makb_temper2[0]=makb[0]._T[2];
;;;525    snmp_makb_temper3[0]=makb[0]._T[3];
;;;526    snmp_makb_temper4[0]=makb[0]._T[4];
;;;527    snmp_makb_temper0[1]=makb[1]._T[0];
;;;528    snmp_makb_temper1[1]=makb[1]._T[1];
;;;529    snmp_makb_temper2[1]=makb[1]._T[2];
;;;530    snmp_makb_temper3[1]=makb[1]._T[3];
;;;531    snmp_makb_temper4[1]=makb[1]._T[4];
;;;532    snmp_makb_temper0[2]=makb[2]._T[0];
;;;533    snmp_makb_temper1[2]=makb[2]._T[1];
;;;534    snmp_makb_temper2[2]=makb[2]._T[2];
;;;535    snmp_makb_temper3[2]=makb[2]._T[3];
;;;536    snmp_makb_temper4[2]=makb[2]._T[4];
;;;537    snmp_makb_temper0[3]=makb[3]._T[0];
;;;538    snmp_makb_temper1[3]=makb[3]._T[1];
;;;539    snmp_makb_temper2[3]=makb[3]._T[2];
;;;540    snmp_makb_temper3[3]=makb[3]._T[3];
;;;541    snmp_makb_temper4[3]=makb[3]._T[4];
;;;542    
;;;543    snmp_makb_temper0_stat[0]=makb[0]._T_nd[0];
;;;544    snmp_makb_temper1_stat[0]=makb[0]._T_nd[1];
;;;545    snmp_makb_temper2_stat[0]=makb[0]._T_nd[2];
;;;546    snmp_makb_temper3_stat[0]=makb[0]._T_nd[3];
;;;547    snmp_makb_temper4_stat[0]=makb[0]._T_nd[4];
;;;548    snmp_makb_temper0_stat[1]=makb[1]._T_nd[0];
;;;549    snmp_makb_temper1_stat[1]=makb[1]._T_nd[1];
;;;550    snmp_makb_temper2_stat[1]=makb[1]._T_nd[2];
;;;551    snmp_makb_temper3_stat[1]=makb[1]._T_nd[3];
;;;552    snmp_makb_temper4_stat[1]=makb[1]._T_nd[4];
;;;553    snmp_makb_temper0_stat[2]=makb[2]._T_nd[0];
;;;554    snmp_makb_temper1_stat[2]=makb[2]._T_nd[1];
;;;555    snmp_makb_temper2_stat[2]=makb[2]._T_nd[2];
;;;556    snmp_makb_temper3_stat[2]=makb[2]._T_nd[3];
;;;557    snmp_makb_temper4_stat[2]=makb[2]._T_nd[4];
;;;558    snmp_makb_temper0_stat[3]=makb[3]._T_nd[0];
;;;559    snmp_makb_temper1_stat[3]=makb[3]._T_nd[1];
;;;560    snmp_makb_temper2_stat[3]=makb[3]._T_nd[2];
;;;561    snmp_makb_temper3_stat[3]=makb[3]._T_nd[3];
;;;562    snmp_makb_temper4_stat[3]=makb[3]._T_nd[4];
;;;563    
;;;564    
;;;565    snmp_klimat_box_temper=t_box;
;;;566    snmp_klimat_settings_box_alarm=TBOXMAX;
;;;567    snmp_klimat_settings_vent_on=TBOXVENTON;
;;;568    snmp_klimat_settings_vent_off=TBOXVENTOFF;
;;;569    snmp_klimat_settings_warm_on=TBOXWARMON;
;;;570    snmp_klimat_settings_warm_off=TBOXWARMOFF;
;;;571    snmp_klimat_settings_load_on=TLOADENABLE;
;;;572    snmp_klimat_settings_load_off=TLOADDISABLE;
;;;573    snmp_klimat_settings_batt_on=TBATENABLE;
;;;574    snmp_klimat_settings_batt_off=TBATDISABLE;
;;;575    
;;;576    snmp_dt_ext=t_ext[0];
;;;577    snmp_dt_msan=t_ext[1];
;;;578    snmp_dt_epu=t_ext[2];
;;;579    
;;;580    /*
;;;581    snmp_bat_voltage=Ubat;
;;;582    snmp_bat_current=Ibat;
;;;583    snmp_bat_temperature=t_b;
;;;584    if(BAT_C_REAL==0x5555)
;;;585    	{
;;;586    	snmp_bat_capacity=BAT_C_NOM*10;												    11
;;;587    	}
;;;588    else
;;;589    	{
;;;590    	snmp_bat_capacity=BAT_C_REAL;
;;;591    	}
;;;592    snmp_bat_charge=zar_percent;
;;;593    snmp_bat_status=0;
;;;594    if(St&0x02)snmp_bat_status|=0x01;
;;;595    if(Ibat>0)snmp_bat_status|=0x02;
;;;596    
;;;597    
;;;598    if(spc_stat==spc_OFF) snmp_spc_stat=0;
;;;599    else if(spc_stat==spc_KE) snmp_spc_stat=1;
;;;600    else if(spc_stat==spc_VZ) snmp_spc_stat=10;
;;;601    
;;;602    
;;;603    snmp_main_bps=MAIN_IST+1;
;;;604    */
;;;605    snmp_zv_en=ZV_ON;
;;;606    snmp_alarm_auto_disable=AV_OFF_AVT;
;;;607    snmp_bat_test_time=TBAT;
;;;608    snmp_u_max=UMAX;
;;;609    //snmp_u_min=UB20-DU;
;;;610    //snmp_u_0_grad=UB0;
;;;611    //snmp_u_20_grad=UB20;
;;;612    snmp_u_sign=USIGN;
;;;613    snmp_u_min_power=UMN;
;;;614    snmp_u_withouth_bat=U0B;
;;;615    snmp_control_current=IKB;
;;;616    snmp_max_charge_current=IZMAX;
;;;617    snmp_max_current=IMAX;
;;;618    snmp_min_current=IMIN;
;;;619    //snmp_max_current_koef=KIMAX;
;;;620    //snmp_uvz=UVZ;
;;;621    snmp_powerup_psu_timeout=TZAS;
;;;622    snmp_max_temperature=TMAX;
;;;623    snmp_tsign_bat=TBATSIGN; 
;;;624    snmp_tmax_bat=TBATMAX;
;;;625    snmp_tsign_bps=TSIGN;
;;;626    snmp_tmax_bps=TMAX;
;;;627    snmp_bat_part_alarm=UBM_AV; 
;;;628    snmp_power_cnt_adress=POWER_CNT_ADRESS;
;;;629    
;;;630    for(i=0;i<12;i++)
;;;631    	{
;;;632    	snmp_avt_number[i]=i+1;
;;;633    	if(avt_stat[i]==avtOFF)snmp_avt_stat[i]=0;
;;;634    	else snmp_avt_stat[i]=1;
;;;635    	}
;;;636    
;;;637    snmp_dt_number[0]=1;
;;;638    snmp_dt_number[1]=2;
;;;639    snmp_dt_number[2]=3;
;;;640    //snmp_dt_number[3]=4;
;;;641    snmp_dt_temper[0]=t_ext[0];
;;;642    snmp_dt_temper[1]=t_ext[1];
;;;643    snmp_dt_temper[2]=t_ext[2];
;;;644    //snmp_dt_temper[3]=t_ext[3];
;;;645    snmp_dt_error[0]=ND_EXT[0];
;;;646    if(NUMDT<1)snmp_dt_error[0]=0xff;
;;;647    snmp_dt_error[1]=ND_EXT[1];
;;;648    if(NUMDT<2)snmp_dt_error[0]=0xff;
;;;649    snmp_dt_error[2]=ND_EXT[2];
;;;650    if(NUMDT<3)snmp_dt_error[0]=0xff;
;;;651    //snmp_dt_error[3]=ND_EXT[3];
;;;652    if(NUMDT<4)snmp_dt_error[0]=0xff;
;;;653    
;;;654    /*
;;;655    //Литиевые батареи
;;;656    snmp_lakb_number[0]=1;								//Номер ЛАКБ
;;;657    snmp_lakb_number[1]=2;								//Номер ЛАКБ
;;;658    snmp_lakb_voltage[0]=lakb[0]._tot_bat_volt;				//Напряжение ЛАКБ
;;;659    snmp_lakb_voltage[1]=lakb[1]._tot_bat_volt;				//Напряжение ЛАКБ
;;;660    snmp_lakb_max_cell_voltage[0]=lakb[0]._max_cell_volt;		//Максимальное напряжение ячейки ЛАКБ
;;;661    snmp_lakb_max_cell_voltage[1]=lakb[1]._max_cell_volt;		//Максимальное напряжение ячейки ЛАКБ
;;;662    snmp_lakb_min_cell_voltage[0]=lakb[0]._min_cell_volt;		//Минимальное напряжение ячейки ЛАКБ
;;;663    snmp_lakb_min_cell_voltage[1]=lakb[1]._min_cell_volt;		//Минимальное напряжение ячейки ЛАКБ
;;;664    snmp_lakb_max_cell_temperature[0]=lakb[0]._max_cell_temp;	//Максимальная температура ячейки ЛАКБ
;;;665    snmp_lakb_max_cell_temperature[1]=lakb[1]._max_cell_temp;	//Максимальная температура ячейки ЛАКБ
;;;666    snmp_lakb_min_cell_temperature[0]=lakb[0]._min_cell_temp;	//Минимальная температура ячейки ЛАКБ
;;;667    snmp_lakb_min_cell_temperature[1]=lakb[1]._min_cell_temp;	//Минимальная температура ячейки ЛАКБ
;;;668    snmp_lakb_ch_curr[0]=lakb[0]._ch_curr;					//Ток заряда ЛАКБ
;;;669    snmp_lakb_ch_curr[1]=lakb[1]._ch_curr;					//Ток заряда ЛАКБ
;;;670    snmp_lakb_dsch_curr[0]=lakb[0]._dsch_curr;				//Ток разряда ЛАКБ
;;;671    snmp_lakb_dsch_curr[1]=lakb[1]._dsch_curr;				//Ток разряда ЛАКБ
;;;672    snmp_lakb_rat_cap[0]=lakb[0]._rat_cap;					//Номинальная емкость ЛАКБ
;;;673    snmp_lakb_rat_cap[1]=lakb[1]._rat_cap;					//Номинальная емкость ЛАКБ
;;;674    snmp_lakb_soh[0]=lakb[0]._s_o_h;						//Остаточная емкость ЛАКБ
;;;675    snmp_lakb_soh[1]=lakb[1]._s_o_h;						//Остаточная емкость ЛАКБ
;;;676    snmp_lakb_soc[0]=lakb[0]._s_o_c;						//Заряд ЛАКБ
;;;677    snmp_lakb_soc[1]=lakb[1]._s_o_c;						//Заряд ЛАКБ
;;;678    snmp_lakb_cclv[0]=lakb[0]._c_c_l_v;  					//Максимальный ток заряда ЛАКБ
;;;679    snmp_lakb_cclv[1]=lakb[1]._c_c_l_v;  					//Максимальный ток заряда ЛАКБ
;;;680    snmp_lakb_rbt[0]=lakb[0]._r_b_t;						//Оцениваемое время работы ЛАКБ
;;;681    snmp_lakb_rbt[1]=lakb[1]._r_b_t;						//Оцениваемое время работы ЛАКБ
;;;682    snmp_lakb_flags1[0]=lakb[0]._flags1;					//Первый флаг состояния ЛАКБ
;;;683    snmp_lakb_flags1[1]=lakb[1]._flags1;					//Первый флаг состояния ЛАКБ
;;;684    snmp_lakb_flags2[0]=lakb[0]._flags2;					//Второй флаг состояния ЛАКБ
;;;685    snmp_lakb_flags2[1]=lakb[1]._flags2;					//Второй флаг состояния ЛАКБ */
;;;686    
;;;687    //Литиевые батареи
;;;688    snmp_lakb_number[0]=1;								//Номер ЛАКБ
;;;689    snmp_lakb_number[1]=2;								//Номер ЛАКБ
;;;690    snmp_lakb_number[2]=3;								//Номер ЛАКБ
;;;691    snmp_lakb_number[3]=4;								//Номер ЛАКБ
;;;692    snmp_lakb_number[4]=5;								//Номер ЛАКБ
;;;693    snmp_lakb_number[5]=6;								//Номер ЛАКБ
;;;694    snmp_lakb_number[6]=7;								//Номер ЛАКБ
;;;695    
;;;696    for (i=0;i<3;i++)
;;;697    	{
;;;698    	snmp_lakb_voltage[i]=lakb[i]._tot_bat_volt;				//Напряжение ЛАКБ
;;;699    	snmp_lakb_max_cell_voltage[i]=lakb[i]._max_cell_volt;		//Максимальное напряжение ячейки ЛАКБ
;;;700    	snmp_lakb_min_cell_voltage[i]=lakb[i]._min_cell_volt;		//Минимальное напряжение ячейки ЛАКБ
;;;701    	snmp_lakb_max_cell_temperature[i]=lakb[i]._max_cell_temp;	//Максимальная температура ячейки ЛАКБ
;;;702    	//snmp_lakb_max_cell_temperature[1]=lakb[1]._max_cell_temp;	//Максимальная температура ячейки ЛАКБ
;;;703    	snmp_lakb_min_cell_temperature[i]=lakb[i]._min_cell_temp;	//Минимальная температура ячейки ЛАКБ
;;;704    	//snmp_lakb_min_cell_temperature[1]=lakb[1]._min_cell_temp;	//Минимальная температура ячейки ЛАКБ
;;;705    	snmp_lakb_ch_curr[i]=lakb[i]._ch_curr;					//Ток заряда ЛАКБ
;;;706    	//snmp_lakb_ch_curr[1]=lakb[1]._ch_curr;					//Ток заряда ЛАКБ
;;;707    	snmp_lakb_dsch_curr[i]=lakb[i]._dsch_curr;				//Ток разряда ЛАКБ
;;;708    	//snmp_lakb_dsch_curr[1]=lakb[1]._dsch_curr;				//Ток разряда ЛАКБ
;;;709    	snmp_lakb_rat_cap[i]=lakb[i]._rat_cap;					//Номинальная емкость ЛАКБ
;;;710    	//snmp_lakb_rat_cap[1]=lakb[1]._rat_cap;					//Номинальная емкость ЛАКБ
;;;711    	snmp_lakb_soh[i]=lakb[i]._s_o_h;						//Остаточная емкость ЛАКБ
;;;712    	//snmp_lakb_soh[1]=lakb[1]._s_o_h;						//Остаточная емкость ЛАКБ
;;;713    	snmp_lakb_soc[i]=lakb[i]._s_o_c;						//Заряд ЛАКБ
;;;714    	//snmp_lakb_soc[1]=lakb[1]._s_o_c;						//Заряд ЛАКБ
;;;715    	snmp_lakb_cclv[i]=lakb[i]._c_c_l_v;  					//Максимальный ток заряда ЛАКБ
;;;716    	//snmp_lakb_cclv[1]=lakb[1]._c_c_l_v;  					//Максимальный ток заряда ЛАКБ
;;;717    	snmp_lakb_rbt[i]=lakb[i]._r_b_t;						//Оцениваемое время работы ЛАКБ
;;;718    	//snmp_lakb_rbt[1]=lakb[1]._r_b_t;						//Оцениваемое время работы ЛАКБ
;;;719    	snmp_lakb_flags1[i]=lakb[i]._flags1;					//Первый флаг состояния ЛАКБ
;;;720    	//snmp_lakb_flags1[1]=lakb[1]._flags1;					//Первый флаг состояния ЛАКБ
;;;721    	snmp_lakb_flags2[i]=lakb[i]._flags2;					//Второй флаг состояния ЛАКБ
;;;722    	//snmp_lakb_flags2[1]=lakb[1]._flags2;					//Второй флаг состояния ЛАКБ
;;;723    
;;;724    	snmp_lakb_cell_temperature_1[i]= lakb[i]._cell_temp_1;
;;;725    	snmp_lakb_cell_temperature_2[i]= lakb[i]._cell_temp_2;
;;;726    	snmp_lakb_cell_temperature_3[i]= lakb[i]._cell_temp_3;
;;;727    	snmp_lakb_cell_temperature_4[i]= lakb[i]._cell_temp_4;
;;;728    	snmp_lakb_cell_temperature_ambient[i]=lakb[i]._cell_temp_ambient;
;;;729    	snmp_lakb_cell_temperature_power[i]=lakb[i]._cell_temp_power;
;;;730    	}
;;;731    
;;;732    for (i=0;i<7;i++)
;;;733    {
;;;734    /*
;;;735    snmp_lakb_damp1[i][0]=ABCDEF[(lakb_damp[i][0])>>4];			//Дамп
;;;736    snmp_lakb_damp1[i][1]=ABCDEF[(lakb_damp[i][0])&0x0f];			//Дамп
;;;737    snmp_lakb_damp1[i][2]=' ';
;;;738    snmp_lakb_damp1[i][3]=ABCDEF[(lakb_damp[i][1])>>4];			//Дамп
;;;739    snmp_lakb_damp1[i][4]=ABCDEF[(lakb_damp[i][1])&0x0f];			//Дамп
;;;740    snmp_lakb_damp1[i][5]=' ';
;;;741    snmp_lakb_damp1[i][6]=ABCDEF[(lakb_damp[i][2])>>4];			//Дамп
;;;742    snmp_lakb_damp1[i][7]=ABCDEF[(lakb_damp[i][2])&0x0f];			//Дамп
;;;743    snmp_lakb_damp1[i][8]=' ';
;;;744    snmp_lakb_damp1[i][9]=ABCDEF[(lakb_damp[i][3])>>4];			//Дамп
;;;745    snmp_lakb_damp1[i][10]=ABCDEF[(lakb_damp[i][3])&0x0f];			//Дамп
;;;746    snmp_lakb_damp1[i][11]=' ';
;;;747    snmp_lakb_damp1[i][12]=ABCDEF[(lakb_damp[i][4])>>4];			//Дамп
;;;748    snmp_lakb_damp1[i][13]=ABCDEF[(lakb_damp[i][4])&0x0f];			//Дамп
;;;749    snmp_lakb_damp1[i][14]=' '; 
;;;750    snmp_lakb_damp1[i][15]=ABCDEF[(lakb_damp[i][5])>>4];			//Дамп
;;;751    snmp_lakb_damp1[i][16]=ABCDEF[(lakb_damp[i][5])&0x0f];			//Дамп
;;;752    snmp_lakb_damp1[i][17]=' ';
;;;753    snmp_lakb_damp1[i][18]=ABCDEF[(lakb_damp[i][6])>>4];			//Дамп
;;;754    snmp_lakb_damp1[i][19]=ABCDEF[(lakb_damp[i][6])&0x0f];			//Дамп
;;;755    snmp_lakb_damp1[i][20]=' ';
;;;756    snmp_lakb_damp1[i][21]=ABCDEF[(lakb_damp[i][7])>>4];			//Дамп
;;;757    snmp_lakb_damp1[i][22]=ABCDEF[(lakb_damp[i][7])&0x0f];			//Дамп
;;;758    snmp_lakb_damp1[i][23]=' ';
;;;759    snmp_lakb_damp1[i][24]=ABCDEF[(lakb_damp[i][8])>>4];			//Дамп
;;;760    snmp_lakb_damp1[i][25]=ABCDEF[(lakb_damp[i][8])&0x0f];			//Дамп
;;;761    snmp_lakb_damp1[i][26]=' ';
;;;762    snmp_lakb_damp1[i][27]=ABCDEF[(lakb_damp[i][9])>>4];			//Дамп
;;;763    snmp_lakb_damp1[i][28]=ABCDEF[(lakb_damp[i][9])&0x0f];			//Дамп
;;;764    snmp_lakb_damp1[i][29]=0; 
;;;765    
;;;766    snmp_lakb_damp1[i][30]=ABCDEF[(lakb_damp[i][10])>>4];			//Дамп
;;;767    snmp_lakb_damp1[i][31]=ABCDEF[(lakb_damp[i][10])&0x0f];			//Дамп
;;;768    snmp_lakb_damp1[i][32]=' ';
;;;769    snmp_lakb_damp1[i][33]=ABCDEF[(lakb_damp[i][11])>>4];			//Дамп
;;;770    snmp_lakb_damp1[i][34]=ABCDEF[(lakb_damp[i][11])&0x0f];			//Дамп
;;;771    snmp_lakb_damp1[i][35]=' ';
;;;772    snmp_lakb_damp1[i][36]=ABCDEF[(lakb_damp[i][12])>>4];			//Дамп
;;;773    snmp_lakb_damp1[i][37]=ABCDEF[(lakb_damp[i][12])&0x0f];			//Дамп
;;;774    snmp_lakb_damp1[i][38]=' ';
;;;775    snmp_lakb_damp1[i][39]=ABCDEF[(lakb_damp[i][13])>>4];			//Дамп
;;;776    snmp_lakb_damp1[i][40]=ABCDEF[(lakb_damp[i][13])&0x0f];			//Дамп
;;;777    snmp_lakb_damp1[i][41]=' ';
;;;778    snmp_lakb_damp1[i][42]=ABCDEF[(lakb_damp[i][14])>>4];			//Дамп
;;;779    snmp_lakb_damp1[i][43]=ABCDEF[(lakb_damp[i][14])&0x0f];			//Дамп
;;;780    snmp_lakb_damp1[i][44]=' '; 
;;;781    snmp_lakb_damp1[i][45]=ABCDEF[(lakb_damp[i][15])>>4];			//Дамп
;;;782    snmp_lakb_damp1[i][46]=ABCDEF[(lakb_damp[i][15])&0x0f];			//Дамп
;;;783    snmp_lakb_damp1[i][47]=' ';
;;;784    snmp_lakb_damp1[i][48]=ABCDEF[(lakb_damp[i][16])>>4];			//Дамп
;;;785    snmp_lakb_damp1[i][49]=ABCDEF[(lakb_damp[i][16])&0x0f];			//Дамп
;;;786    snmp_lakb_damp1[i][50]=' ';
;;;787    snmp_lakb_damp1[i][51]=ABCDEF[(lakb_damp[i][17])>>4];			//Дамп
;;;788    snmp_lakb_damp1[i][52]=ABCDEF[(lakb_damp[i][17])&0x0f];			//Дамп
;;;789    snmp_lakb_damp1[i][53]=' ';
;;;790    snmp_lakb_damp1[i][54]=ABCDEF[(lakb_damp[i][18])>>4];			//Дамп
;;;791    snmp_lakb_damp1[i][55]=ABCDEF[(lakb_damp[i][18])&0x0f];			//Дамп
;;;792    snmp_lakb_damp1[i][56]=' ';
;;;793    snmp_lakb_damp1[i][57]=ABCDEF[(lakb_damp[i][19])>>4];			//Дамп
;;;794    snmp_lakb_damp1[i][58]=ABCDEF[(lakb_damp[i][19])&0x0f];			//Дамп
;;;795    snmp_lakb_damp1[i][59]=0; 
;;;796    
;;;797    
;;;798    snmp_lakb_damp1[i][60]=ABCDEF[(lakb_damp[i][20])>>4];			//Дамп
;;;799    snmp_lakb_damp1[i][61]=ABCDEF[(lakb_damp[i][20])&0x0f];			//Дамп
;;;800    snmp_lakb_damp1[i][62]=' ';
;;;801    snmp_lakb_damp1[i][63]=ABCDEF[(lakb_damp[i][21])>>4];			//Дамп
;;;802    snmp_lakb_damp1[i][64]=ABCDEF[(lakb_damp[i][21])&0x0f];			//Дамп
;;;803    snmp_lakb_damp1[i][65]=' ';
;;;804    snmp_lakb_damp1[i][66]=ABCDEF[(lakb_damp[i][22])>>4];			//Дамп
;;;805    snmp_lakb_damp1[i][67]=ABCDEF[(lakb_damp[i][22])&0x0f];			//Дамп
;;;806    snmp_lakb_damp1[i][68]=' ';
;;;807    snmp_lakb_damp1[i][69]=ABCDEF[(lakb_damp[i][23])>>4];			//Дамп
;;;808    snmp_lakb_damp1[i][70]=ABCDEF[(lakb_damp[i][23])&0x0f];			//Дамп
;;;809    snmp_lakb_damp1[i][71]=' ';
;;;810    snmp_lakb_damp1[i][72]=ABCDEF[(lakb_damp[i][24])>>4];			//Дамп
;;;811    snmp_lakb_damp1[i][73]=ABCDEF[(lakb_damp[i][24])&0x0f];			//Дамп
;;;812    snmp_lakb_damp1[i][74]=' '; 
;;;813    snmp_lakb_damp1[i][75]=ABCDEF[(lakb_damp[i][25])>>4];			//Дамп
;;;814    snmp_lakb_damp1[i][76]=ABCDEF[(lakb_damp[i][25])&0x0f];			//Дамп
;;;815    snmp_lakb_damp1[i][77]=' ';
;;;816    snmp_lakb_damp1[i][78]=ABCDEF[(lakb_damp[i][26])>>4];			//Дамп
;;;817    snmp_lakb_damp1[i][79]=ABCDEF[(lakb_damp[i][26])&0x0f];			//Дамп
;;;818    snmp_lakb_damp1[i][80]=' ';
;;;819    snmp_lakb_damp1[i][81]=ABCDEF[(lakb_damp[i][27])>>4];			//Дамп
;;;820    snmp_lakb_damp1[i][82]=ABCDEF[(lakb_damp[i][27])&0x0f];			//Дамп
;;;821    snmp_lakb_damp1[i][83]=' ';
;;;822    snmp_lakb_damp1[i][84]=ABCDEF[(lakb_damp[i][28])>>4];			//Дамп
;;;823    snmp_lakb_damp1[i][85]=ABCDEF[(lakb_damp[i][28])&0x0f];			//Дамп
;;;824    snmp_lakb_damp1[i][86]=' ';
;;;825    snmp_lakb_damp1[i][87]=ABCDEF[(lakb_damp[i][29])>>4];			//Дамп
;;;826    snmp_lakb_damp1[i][88]=ABCDEF[(lakb_damp[i][29])&0x0f];			//Дамп
;;;827    snmp_lakb_damp1[i][89]=0;
;;;828    
;;;829    
;;;830    snmp_lakb_damp1[i][90]=ABCDEF[(lakb_damp[i][30])>>4];			//Дамп
;;;831    snmp_lakb_damp1[i][91]=ABCDEF[(lakb_damp[i][30])&0x0f];			//Дамп
;;;832    snmp_lakb_damp1[i][92]=' ';
;;;833    snmp_lakb_damp1[i][93]=ABCDEF[(lakb_damp[i][31])>>4];			//Дамп
;;;834    snmp_lakb_damp1[i][94]=ABCDEF[(lakb_damp[i][31])&0x0f];			//Дамп
;;;835    snmp_lakb_damp1[i][95]=' ';
;;;836    snmp_lakb_damp1[i][96]=ABCDEF[(lakb_damp[i][32])>>4];			//Дамп
;;;837    snmp_lakb_damp1[i][97]=ABCDEF[(lakb_damp[i][32])&0x0f];			//Дамп
;;;838    snmp_lakb_damp1[i][98]=' ';
;;;839    snmp_lakb_damp1[i][99]=ABCDEF[(lakb_damp[i][33])>>4];			//Дамп
;;;840    snmp_lakb_damp1[i][100]=ABCDEF[(lakb_damp[i][33])&0x0f];			//Дамп
;;;841    snmp_lakb_damp1[i][101]=' ';
;;;842    snmp_lakb_damp1[i][102]=ABCDEF[(lakb_damp[i][34])>>4];			//Дамп
;;;843    snmp_lakb_damp1[i][103]=ABCDEF[(lakb_damp[i][34])&0x0f];			//Дамп
;;;844    snmp_lakb_damp1[i][104]=' '; 
;;;845    snmp_lakb_damp1[i][105]=ABCDEF[(lakb_damp[i][35])>>4];			//Дамп
;;;846    snmp_lakb_damp1[i][106]=ABCDEF[(lakb_damp[i][35])&0x0f];			//Дамп
;;;847    snmp_lakb_damp1[i][107]=' ';
;;;848    snmp_lakb_damp1[i][108]=ABCDEF[(lakb_damp[i][36])>>4];			//Дамп
;;;849    snmp_lakb_damp1[i][109]=ABCDEF[(lakb_damp[i][36])&0x0f];			//Дамп
;;;850    snmp_lakb_damp1[i][110]=' ';
;;;851    snmp_lakb_damp1[i][111]=ABCDEF[(lakb_damp[i][37])>>4];			//Дамп
;;;852    snmp_lakb_damp1[i][112]=ABCDEF[(lakb_damp[i][37])&0x0f];			//Дамп
;;;853    snmp_lakb_damp1[i][113]=' ';
;;;854    snmp_lakb_damp1[i][114]=ABCDEF[(lakb_damp[i][38])>>4];			//Дамп
;;;855    snmp_lakb_damp1[i][115]=ABCDEF[(lakb_damp[i][38])&0x0f];			//Дамп
;;;856    snmp_lakb_damp1[i][116]=' ';
;;;857    snmp_lakb_damp1[i][117]=ABCDEF[(lakb_damp[i][39])>>4];			//Дамп
;;;858    snmp_lakb_damp1[i][118]=ABCDEF[(lakb_damp[i][39])&0x0f];			//Дамп
;;;859    snmp_lakb_damp1[i][119]=0; 
;;;860     
;;;861    
;;;862    snmp_lakb_damp1[i][120]=ABCDEF[(lakb_damp[i][40])>>4];			//Дамп
;;;863    snmp_lakb_damp1[i][121]=ABCDEF[(lakb_damp[i][40])&0x0f];			//Дамп
;;;864    snmp_lakb_damp1[i][122]=' ';
;;;865    snmp_lakb_damp1[i][123]=ABCDEF[(lakb_damp[i][41])>>4];			//Дамп
;;;866    snmp_lakb_damp1[i][124]=ABCDEF[(lakb_damp[i][41])&0x0f];			//Дамп
;;;867    snmp_lakb_damp1[i][125]=' ';
;;;868    snmp_lakb_damp1[i][126]=ABCDEF[(lakb_damp[i][42])>>4];			//Дамп
;;;869    snmp_lakb_damp1[i][127]=ABCDEF[(lakb_damp[i][42])&0x0f];			//Дамп
;;;870    snmp_lakb_damp1[i][128]=' ';
;;;871    snmp_lakb_damp1[i][129]=ABCDEF[(lakb_damp[i][43])>>4];			//Дамп
;;;872    snmp_lakb_damp1[i][130]=ABCDEF[(lakb_damp[i][43])&0x0f];			//Дамп
;;;873    snmp_lakb_damp1[i][131]=' ';
;;;874    snmp_lakb_damp1[i][132]=ABCDEF[(lakb_damp[i][44])>>4];			//Дамп
;;;875    snmp_lakb_damp1[i][133]=ABCDEF[(lakb_damp[i][44])&0x0f];			//Дамп
;;;876    snmp_lakb_damp1[i][134]=' '; 
;;;877    snmp_lakb_damp1[i][135]=ABCDEF[(lakb_damp[i][45])>>4];			//Дамп
;;;878    snmp_lakb_damp1[i][136]=ABCDEF[(lakb_damp[i][45])&0x0f];			//Дамп
;;;879    snmp_lakb_damp1[i][137]=' ';
;;;880    snmp_lakb_damp1[i][138]=ABCDEF[(lakb_damp[i][46])>>4];			//Дамп
;;;881    snmp_lakb_damp1[i][139]=ABCDEF[(lakb_damp[i][46])&0x0f];			//Дамп
;;;882    snmp_lakb_damp1[i][140]=' ';
;;;883    snmp_lakb_damp1[i][141]=ABCDEF[(lakb_damp[i][47])>>4];			//Дамп
;;;884    snmp_lakb_damp1[i][142]=ABCDEF[(lakb_damp[i][47])&0x0f];			//Дамп
;;;885    snmp_lakb_damp1[i][143]=' ';
;;;886    snmp_lakb_damp1[i][144]=ABCDEF[(lakb_damp[i][48])>>4];			//Дамп
;;;887    snmp_lakb_damp1[i][145]=ABCDEF[(lakb_damp[i][48])&0x0f];			//Дамп
;;;888    snmp_lakb_damp1[i][146]=' ';
;;;889    snmp_lakb_damp1[i][147]=ABCDEF[(lakb_damp[i][49])>>4];			//Дамп
;;;890    snmp_lakb_damp1[i][148]=ABCDEF[(lakb_damp[i][49])&0x0f];			//Дамп
;;;891    snmp_lakb_damp1[i][149]=0;  */
;;;892    }
;;;893    
;;;894    #ifdef UKU_TELECORE2017
;;;895    snmp_warm_sign=0;
;;;896    if(TELECORE2017_KLIMAT_WARM_SIGNAL==0) snmp_warm_sign=2;
;;;897    else if(TELECORE2017_KLIMAT_WARM_SIGNAL==1) snmp_warm_sign=1;
;;;898    snmp_cool_sign=0;
;;;899    if(TELECORE2017_KLIMAT_VENT_SIGNAL==0) snmp_cool_sign=2;
;;;900    else if(TELECORE2017_KLIMAT_VENT_SIGNAL==1) snmp_cool_sign=1;
;;;901    snmp_warm_on_temper=(signed char)TELECORE2017_KLIMAT_WARM_ON; 
;;;902    snmp_warm_off_temper=(signed char)TELECORE2017_KLIMAT_WARM_OFF;
;;;903    snmp_warm_q=(signed char)TELECORE2017_KLIMAT_CAP;	
;;;904    snmp_cool_20_temper=(signed char)TELECORE2017_KLIMAT_VENT_ON20;
;;;905    snmp_cool_40_temper=(signed char)TELECORE2017_KLIMAT_VENT_ON40;
;;;906    snmp_cool_60_temper=(signed char)TELECORE2017_KLIMAT_VENT_ON60;
;;;907    snmp_cool_80_temper=(signed char)TELECORE2017_KLIMAT_VENT_ON80;
;;;908    snmp_cool_100_temper=(signed char)TELECORE2017_KLIMAT_VENT_ON100;
;;;909    snmp_cool_20_dtemper=(signed char)TELECORE2017_KLIMAT_DVENT_ON20;
;;;910    snmp_cool_40_dtemper=(signed char)TELECORE2017_KLIMAT_DVENT_ON40;
;;;911    snmp_cool_60_dtemper=(signed char)TELECORE2017_KLIMAT_DVENT_ON60;
;;;912    snmp_cool_80_dtemper=(signed char)TELECORE2017_KLIMAT_DVENT_ON80;
;;;913    snmp_cool_100_dtemper=(signed char)TELECORE2017_KLIMAT_DVENT_ON100;
;;;914    snmp_warm_stat=0;
;;;915    if(warm_stat_k==wsON) snmp_warm_stat=1;
;;;916    #endif
;;;917    }
;;;918    //-----------------------------------------------
                          ENDP

000022  0000              DCW      0x0000
                  |L2.36|
                          DCD      ||.data||+0x80

                          AREA ||area_number.3||, CODE, READONLY, ALIGN=1

                          EXPORTAS ||area_number.3||, ||.text||
                  snmp_main_bps_write PROC
;;;259    //-----------------------------------------------
;;;260    void snmp_data (void) 
000000  4770              BX       lr
;;;261    {
;;;262    char i;
;;;263    
;;;264    snmp_mains_power_voltage=net_U;
;;;265    #ifdef UKU_220_IPS_TERMOKOMPENSAT
;;;266    snmp_mains_power_frequency=net_F3;
;;;267    #else
;;;268    snmp_mains_power_frequency=net_F;
;;;269    #endif
;;;270    snmp_mains_power_voltage_phaseA=net_Ua;
;;;271    snmp_mains_power_voltage_phaseB=net_Ub;
;;;272    snmp_mains_power_voltage_phaseC=net_Uc;
;;;273    
;;;274    /*
;;;275    snmp_mains_power_status=0; 
;;;276    #if(UKU_VERSION==900)
;;;277    snmp_mains_power_status=2;
;;;278    #endif
;;;279    if(St&0x01)snmp_mains_power_status|=0x01;
;;;280    if(St&0x01)snmp_mains_power_alarm=1;
;;;281    
;;;282    
;;;283    
;;;284    
;;;285    
;;;286    
;;;287    for(i=0;i<snmp_numofevents;i++)event2snmp(i);
;;;288    //snmp_bpsnumber[0]=1;
;;;289    //snmp_bpsnumber[1]=2;
;;;290    
;;;291    snmp_sernum=AUSW_MAIN_NUMBER;
;;;292    snmp_sernum_lsb=0x1122;
;;;293    snmp_sernum_msb=0x3344;
;;;294    snmp_device_code=AUSW_MAIN;
;;;295    
;;;296    //memcpy(snmp_location,"lkhg;la",);
;;;297    
;;;298    
;;;299    snmp_numofbat=1;
;;;300    
;;;301    */
;;;302    
;;;303    snmp_load_voltage=load_U;
;;;304    snmp_load_current=load_I;
;;;305    snmp_numofbat=NUMBAT;
;;;306    snmp_numofbps=NUMIST;
;;;307    snmp_numofinv=NUMINV;
;;;308    snmp_numofavt=NUMAVT;
;;;309    snmp_numofdt=NUMDT;
;;;310    snmp_numofsk=NUMSK;
;;;311    snmp_numofevents=lc640_read_int(CNT_EVENT_LOG);
;;;312    
;;;313    snmp_energy_vvod_phase_a=Uvv_eb2[0];
;;;314    snmp_energy_vvod_phase_b=Uvv_eb2[1];
;;;315    snmp_energy_vvod_phase_c=Uvv_eb2[2];
;;;316    snmp_energy_pes_phase_a=Upes_eb2[0];
;;;317    snmp_energy_pes_phase_b=Upes_eb2[1];
;;;318    snmp_energy_pes_phase_c=Upes_eb2[2];
;;;319    
;;;320    #ifdef UKU_KONTUR
;;;321    snmp_energy_vvod_phase_a=Uvv0;
;;;322    snmp_energy_pes_phase_a=Uvv[1];
;;;323    #endif
;;;324    
;;;325    snmp_energy_total_energy=power_summary;
;;;326    snmp_energy_current_energy=power_current;
;;;327    snmp_energy_input_voltage=net_U;
;;;328    
;;;329    snmp_bat_number[0]=1;
;;;330    snmp_bat_voltage[0]=bat[0]._Ub;
;;;331    snmp_bat_part_voltage[0]=bat[0]._Ubm;
;;;332    snmp_bat_current[0]=bat[0]._Ib;
;;;333    
;;;334    #ifdef UKU_220_IPS_TERMOKOMPENSAT
;;;335    if(((AUSW_MAIN==22063)||(AUSW_MAIN==22023))&&(bps[8]._device==dIBAT_METR))
;;;336    	{
;;;337    	snmp_bat_current[0]=Ib_ips_termokompensat;
;;;338    	}
;;;339    #endif
;;;340    
;;;341    snmp_bat_temperature[0]=bat[0]._Tb;
;;;342    if(BAT_C_REAL[0]==0x5555)snmp_bat_capacity[0]=BAT_C_NOM[0];
;;;343    else snmp_bat_capacity[0]=BAT_C_REAL[0];
;;;344    snmp_bat_charge[0]=bat[0]._zar;
;;;345    snmp_bat_status[0]=bat[0]._av;
;;;346    if(BAT_IS_ON[0]!=bisON)snmp_bat_status[0]=0xff;
;;;347    
;;;348    snmp_bat_number[1]=2;
;;;349    snmp_bat_voltage[1]=bat[1]._Ub;
;;;350    snmp_bat_part_voltage[1]=bat[1]._Ubm;
;;;351    snmp_bat_current[1]=bat[1]._Ib;
;;;352    snmp_bat_temperature[1]=bat[1]._Tb;
;;;353    if(BAT_C_REAL[1]==0x5555)snmp_bat_capacity[1]=BAT_C_NOM[1];
;;;354    else snmp_bat_capacity[1]=BAT_C_REAL[1];
;;;355    snmp_bat_charge[1]=bat[1]._zar;
;;;356    snmp_bat_status[1]=bat[1]._av;
;;;357    if(BAT_IS_ON[1]!=bisON)snmp_bat_status[1]=0xff;
;;;358    
;;;359    
;;;360    
;;;361    snmp_bps_number[0]=1;
;;;362    snmp_bps_voltage[0]=bps[0]._Uii;
;;;363    snmp_bps_current[0]=bps[0]._Ii;
;;;364    snmp_bps_temperature[0]=bps[0]._Ti;
;;;365    snmp_bps_stat[0]=bps[0]._av;
;;;366    if(!(NUMIST>0))snmp_bps_stat[0]=0xff;												//Байт состояния БПСа.
;;;367    
;;;368    /*if(St_[0]&(1<<2))snmp_bps_stat[0]=(1<<3); 							//авария по Umin
;;;369    else if(St_[0]&(1<<3))snmp_bps_stat[0]=(1<<2); 						//авария по Umax
;;;370    else if(bps[0]._av&(1<<0))snmp_bps_stat[0]=(1<<1); 						//авария по Tmax
;;;371    else if(St_[0]&(1<<5))snmp_bps_stat[0]=(1<<5); 						//заблокирован
;;;372    else if((!(St_[0]&0x3c))&&(!St&0x01)&&(!OFFBP1))snmp_bps_stat[0]=1; 		//Работает
;;;373    */
;;;374    
;;;375    snmp_bps_number[1]=2;
;;;376    snmp_bps_voltage[1]=bps[1]._Uii;
;;;377    snmp_bps_current[1]=bps[1]._Ii;
;;;378    snmp_bps_temperature[1]=bps[1]._Ti;
;;;379    snmp_bps_stat[1]=bps[1]._av;
;;;380    if(!(NUMIST>1))snmp_bps_stat[1]=0xff;												//Байт состояния БПСа.
;;;381    /*if(St_[1]&(1<<2))snmp_bps_stat[1]=(1<<3); 							//авария по Umin
;;;382    else if(St_[1]&(1<<3))snmp_bps_stat[1]=(1<<2); 						//авария по Umax
;;;383    else if(St_[1]&(1<<4))snmp_bps_stat[1]=(1<<1); 						//авария по Tmax
;;;384    else if(St_[1]&(1<<5))snmp_bps_stat[1]=(1<<5); 						//заблокирован
;;;385    else if((!(St_[1]&0x3c))&&(!St&0x01)&&(!OFFBP2))snmp_bps_stat[1]=1; 		//Работает
;;;386    */
;;;387    
;;;388    snmp_bps_number[2]=3;
;;;389    snmp_bps_voltage[2]=bps[2]._Uii;
;;;390    snmp_bps_current[2]=bps[2]._Ii;
;;;391    snmp_bps_temperature[2]=bps[2]._Ti;
;;;392    snmp_bps_stat[2]=bps[2]._av;
;;;393    if(!(NUMIST>2))snmp_bps_stat[2]=0xff;
;;;394    
;;;395    snmp_bps_number[3]=4;
;;;396    snmp_bps_voltage[3]=bps[3]._Uii;
;;;397    snmp_bps_current[3]=bps[3]._Ii;
;;;398    snmp_bps_temperature[3]=bps[3]._Ti;
;;;399    snmp_bps_stat[3]=bps[3]._av;
;;;400    if(!(NUMIST>3))snmp_bps_stat[3]=0xff;
;;;401    
;;;402    snmp_bps_number[4]=5;
;;;403    snmp_bps_voltage[4]=bps[4]._Uii;
;;;404    snmp_bps_current[4]=bps[4]._Ii;
;;;405    snmp_bps_temperature[4]=bps[4]._Ti;
;;;406    snmp_bps_stat[4]=bps[4]._av;
;;;407    if(!(NUMIST>4))snmp_bps_stat[4]=0xff;
;;;408    
;;;409    snmp_bps_number[5]=6;
;;;410    snmp_bps_voltage[5]=bps[5]._Uii;
;;;411    snmp_bps_current[5]=bps[5]._Ii;
;;;412    snmp_bps_temperature[5]=bps[5]._Ti;
;;;413    snmp_bps_stat[5]=bps[5]._av;
;;;414    if(!(NUMIST>5))snmp_bps_stat[5]=0xff;
;;;415    
;;;416    snmp_bps_number[6]=7;
;;;417    snmp_bps_voltage[6]=bps[6]._Uii;
;;;418    snmp_bps_current[6]=bps[6]._Ii;
;;;419    snmp_bps_temperature[6]=bps[6]._Ti;
;;;420    snmp_bps_stat[6]=bps[6]._av;
;;;421    if(!(NUMIST>6))snmp_bps_stat[6]=0xff;
;;;422    
;;;423    snmp_bps_number[7]=8;
;;;424    snmp_bps_voltage[7]=bps[7]._Uii;
;;;425    snmp_bps_current[7]=bps[7]._Ii;
;;;426    snmp_bps_temperature[7]=bps[7]._Ti;
;;;427    snmp_bps_stat[7]=bps[7]._av;
;;;428    if(!(NUMIST>7))snmp_bps_stat[7]=0xff;
;;;429    
;;;430    
;;;431    
;;;432    snmp_inv_number[0]=1;
;;;433    snmp_inv_voltage[0]=inv[0]._Uio;
;;;434    snmp_inv_current[0]=inv[0]._Ii;
;;;435    snmp_inv_temperature[0]=inv[0]._Ti;
;;;436    snmp_inv_stat[0]=inv[0]._flags_tm;
;;;437    
;;;438    snmp_inv_number[1]=2;
;;;439    snmp_inv_voltage[1]=inv[1]._Uio;
;;;440    snmp_inv_current[1]=inv[1]._Ii;
;;;441    snmp_inv_temperature[1]=inv[1]._Ti;
;;;442    snmp_inv_stat[1]=inv[1]._flags_tm;
;;;443    
;;;444    snmp_inv_number[2]=3;
;;;445    snmp_inv_voltage[2]=inv[2]._Uio;
;;;446    snmp_inv_current[2]=inv[2]._Ii;
;;;447    snmp_inv_temperature[2]=inv[2]._Ti;
;;;448    snmp_inv_stat[2]=inv[2]._flags_tm;
;;;449    
;;;450    
;;;451    
;;;452    
;;;453    					  
;;;454    snmp_sk_number[0]=1;
;;;455    memcpy(&snmp_sk_name[0][0],"Door",10);
;;;456    if(sk_stat[0]==ssON) snmp_sk_aktiv[0]=1;
;;;457    else snmp_sk_aktiv[0]=0;
;;;458    if(!SK_SIGN[0])snmp_sk_alarm_aktiv[0]=1;
;;;459    else snmp_sk_alarm_aktiv[0]=0;
;;;460    if(sk_av_stat[0]==sasON)	snmp_sk_alarm[0]=1;
;;;461    else                     snmp_sk_alarm[0]=0;
;;;462    
;;;463    
;;;464    snmp_sk_number[1]=2;
;;;465    memcpy(&snmp_sk_name[1][0],"Smoke",10);
;;;466    if(sk_stat[1]==ssON) snmp_sk_aktiv[1]=1;
;;;467    else snmp_sk_aktiv[1]=0;
;;;468    if(!SK_SIGN[1])snmp_sk_alarm_aktiv[1]=1;
;;;469    else snmp_sk_alarm_aktiv[1]=0;
;;;470    if(sk_av_stat[1]==sasON)	snmp_sk_alarm[1]=1;
;;;471    else                     snmp_sk_alarm[1]=0;
;;;472    
;;;473    snmp_sk_number[2]=3;
;;;474    memcpy(&snmp_sk_name[2][0],"Shock",10);
;;;475    if(sk_stat[2]==ssON) snmp_sk_aktiv[2]=1;
;;;476    else snmp_sk_aktiv[2]=0;
;;;477    if(!SK_SIGN[2])snmp_sk_alarm_aktiv[2]=1;
;;;478    else snmp_sk_alarm_aktiv[2]=0;
;;;479    if(sk_av_stat[2]==sasON)	snmp_sk_alarm[2]=1;
;;;480    else                     snmp_sk_alarm[2]=0;
;;;481    
;;;482    snmp_sk_number[3]=4;
;;;483    memcpy(&snmp_sk_name[3][0],"     ",10);
;;;484    if(sk_stat[3]==ssON) snmp_sk_aktiv[3]=1;
;;;485    else snmp_sk_aktiv[3]=0;
;;;486    if(!SK_SIGN[3])snmp_sk_alarm_aktiv[3]=1;
;;;487    else snmp_sk_alarm_aktiv[3]=0;
;;;488    if(sk_av_stat[3]==sasON)	snmp_sk_alarm[3]=1;
;;;489    else                     snmp_sk_alarm[3]=0;
;;;490    
;;;491    
;;;492    if(makb[0]._cnt>8) snmp_makb_connect_status[0]=1;
;;;493    else if(makb[0]._cnt<2) snmp_makb_connect_status[0]=0;
;;;494    if(makb[1]._cnt>8) snmp_makb_connect_status[1]=1;
;;;495    else if(makb[1]._cnt<2) snmp_makb_connect_status[1]=0;
;;;496    if(makb[2]._cnt>8) snmp_makb_connect_status[2]=1;
;;;497    else if(makb[2]._cnt<2) snmp_makb_connect_status[2]=0;
;;;498    if(makb[3]._cnt>8) snmp_makb_connect_status[3]=1;
;;;499    else if(makb[3]._cnt<2) snmp_makb_connect_status[3]=0;
;;;500    
;;;501    snmp_makb_voltage0[0]=makb[0]._Ub[0];
;;;502    snmp_makb_voltage1[0]=makb[0]._Ub[1];
;;;503    snmp_makb_voltage2[0]=makb[0]._Ub[2];
;;;504    snmp_makb_voltage3[0]=makb[0]._Ub[3];
;;;505    snmp_makb_voltage4[0]=makb[0]._Ub[4];
;;;506    snmp_makb_voltage0[1]=makb[1]._Ub[0];
;;;507    snmp_makb_voltage1[1]=makb[1]._Ub[1];
;;;508    snmp_makb_voltage2[1]=makb[1]._Ub[2];
;;;509    snmp_makb_voltage3[1]=makb[1]._Ub[3];
;;;510    snmp_makb_voltage4[1]=makb[1]._Ub[4];
;;;511    snmp_makb_voltage0[2]=makb[2]._Ub[0];
;;;512    snmp_makb_voltage1[2]=makb[2]._Ub[1];
;;;513    snmp_makb_voltage2[2]=makb[2]._Ub[2];
;;;514    snmp_makb_voltage3[2]=makb[2]._Ub[3];
;;;515    snmp_makb_voltage4[2]=makb[2]._Ub[4];
;;;516    snmp_makb_voltage0[3]=makb[3]._Ub[0];
;;;517    snmp_makb_voltage1[3]=makb[3]._Ub[1];
;;;518    snmp_makb_voltage2[3]=makb[3]._Ub[2];
;;;519    snmp_makb_voltage3[3]=makb[3]._Ub[3];
;;;520    snmp_makb_voltage4[3]=makb[3]._Ub[4];
;;;521    
;;;522    snmp_makb_temper0[0]=makb[0]._T[0];
;;;523    snmp_makb_temper1[0]=makb[0]._T[1];
;;;524    snmp_makb_temper2[0]=makb[0]._T[2];
;;;525    snmp_makb_temper3[0]=makb[0]._T[3];
;;;526    snmp_makb_temper4[0]=makb[0]._T[4];
;;;527    snmp_makb_temper0[1]=makb[1]._T[0];
;;;528    snmp_makb_temper1[1]=makb[1]._T[1];
;;;529    snmp_makb_temper2[1]=makb[1]._T[2];
;;;530    snmp_makb_temper3[1]=makb[1]._T[3];
;;;531    snmp_makb_temper4[1]=makb[1]._T[4];
;;;532    snmp_makb_temper0[2]=makb[2]._T[0];
;;;533    snmp_makb_temper1[2]=makb[2]._T[1];
;;;534    snmp_makb_temper2[2]=makb[2]._T[2];
;;;535    snmp_makb_temper3[2]=makb[2]._T[3];
;;;536    snmp_makb_temper4[2]=makb[2]._T[4];
;;;537    snmp_makb_temper0[3]=makb[3]._T[0];
;;;538    snmp_makb_temper1[3]=makb[3]._T[1];
;;;539    snmp_makb_temper2[3]=makb[3]._T[2];
;;;540    snmp_makb_temper3[3]=makb[3]._T[3];
;;;541    snmp_makb_temper4[3]=makb[3]._T[4];
;;;542    
;;;543    snmp_makb_temper0_stat[0]=makb[0]._T_nd[0];
;;;544    snmp_makb_temper1_stat[0]=makb[0]._T_nd[1];
;;;545    snmp_makb_temper2_stat[0]=makb[0]._T_nd[2];
;;;546    snmp_makb_temper3_stat[0]=makb[0]._T_nd[3];
;;;547    snmp_makb_temper4_stat[0]=makb[0]._T_nd[4];
;;;548    snmp_makb_temper0_stat[1]=makb[1]._T_nd[0];
;;;549    snmp_makb_temper1_stat[1]=makb[1]._T_nd[1];
;;;550    snmp_makb_temper2_stat[1]=makb[1]._T_nd[2];
;;;551    snmp_makb_temper3_stat[1]=makb[1]._T_nd[3];
;;;552    snmp_makb_temper4_stat[1]=makb[1]._T_nd[4];
;;;553    snmp_makb_temper0_stat[2]=makb[2]._T_nd[0];
;;;554    snmp_makb_temper1_stat[2]=makb[2]._T_nd[1];
;;;555    snmp_makb_temper2_stat[2]=makb[2]._T_nd[2];
;;;556    snmp_makb_temper3_stat[2]=makb[2]._T_nd[3];
;;;557    snmp_makb_temper4_stat[2]=makb[2]._T_nd[4];
;;;558    snmp_makb_temper0_stat[3]=makb[3]._T_nd[0];
;;;559    snmp_makb_temper1_stat[3]=makb[3]._T_nd[1];
;;;560    snmp_makb_temper2_stat[3]=makb[3]._T_nd[2];
;;;561    snmp_makb_temper3_stat[3]=makb[3]._T_nd[3];
;;;562    snmp_makb_temper4_stat[3]=makb[3]._T_nd[4];
;;;563    
;;;564    
;;;565    snmp_klimat_box_temper=t_box;
;;;566    snmp_klimat_settings_box_alarm=TBOXMAX;
;;;567    snmp_klimat_settings_vent_on=TBOXVENTON;
;;;568    snmp_klimat_settings_vent_off=TBOXVENTOFF;
;;;569    snmp_klimat_settings_warm_on=TBOXWARMON;
;;;570    snmp_klimat_settings_warm_off=TBOXWARMOFF;
;;;571    snmp_klimat_settings_load_on=TLOADENABLE;
;;;572    snmp_klimat_settings_load_off=TLOADDISABLE;
;;;573    snmp_klimat_settings_batt_on=TBATENABLE;
;;;574    snmp_klimat_settings_batt_off=TBATDISABLE;
;;;575    
;;;576    snmp_dt_ext=t_ext[0];
;;;577    snmp_dt_msan=t_ext[1];
;;;578    snmp_dt_epu=t_ext[2];
;;;579    
;;;580    /*
;;;581    snmp_bat_voltage=Ubat;
;;;582    snmp_bat_current=Ibat;
;;;583    snmp_bat_temperature=t_b;
;;;584    if(BAT_C_REAL==0x5555)
;;;585    	{
;;;586    	snmp_bat_capacity=BAT_C_NOM*10;												    11
;;;587    	}
;;;588    else
;;;589    	{
;;;590    	snmp_bat_capacity=BAT_C_REAL;
;;;591    	}
;;;592    snmp_bat_charge=zar_percent;
;;;593    snmp_bat_status=0;
;;;594    if(St&0x02)snmp_bat_status|=0x01;
;;;595    if(Ibat>0)snmp_bat_status|=0x02;
;;;596    
;;;597    
;;;598    if(spc_stat==spc_OFF) snmp_spc_stat=0;
;;;599    else if(spc_stat==spc_KE) snmp_spc_stat=1;
;;;600    else if(spc_stat==spc_VZ) snmp_spc_stat=10;
;;;601    
;;;602    
;;;603    snmp_main_bps=MAIN_IST+1;
;;;604    */
;;;605    snmp_zv_en=ZV_ON;
;;;606    snmp_alarm_auto_disable=AV_OFF_AVT;
;;;607    snmp_bat_test_time=TBAT;
;;;608    snmp_u_max=UMAX;
;;;609    //snmp_u_min=UB20-DU;
;;;610    //snmp_u_0_grad=UB0;
;;;611    //snmp_u_20_grad=UB20;
;;;612    snmp_u_sign=USIGN;
;;;613    snmp_u_min_power=UMN;
;;;614    snmp_u_withouth_bat=U0B;
;;;615    snmp_control_current=IKB;
;;;616    snmp_max_charge_current=IZMAX;
;;;617    snmp_max_current=IMAX;
;;;618    snmp_min_current=IMIN;
;;;619    //snmp_max_current_koef=KIMAX;
;;;620    //snmp_uvz=UVZ;
;;;621    snmp_powerup_psu_timeout=TZAS;
;;;622    snmp_max_temperature=TMAX;
;;;623    snmp_tsign_bat=TBATSIGN; 
;;;624    snmp_tmax_bat=TBATMAX;
;;;625    snmp_tsign_bps=TSIGN;
;;;626    snmp_tmax_bps=TMAX;
;;;627    snmp_bat_part_alarm=UBM_AV; 
;;;628    snmp_power_cnt_adress=POWER_CNT_ADRESS;
;;;629    
;;;630    for(i=0;i<12;i++)
;;;631    	{
;;;632    	snmp_avt_number[i]=i+1;
;;;633    	if(avt_stat[i]==avtOFF)snmp_avt_stat[i]=0;
;;;634    	else snmp_avt_stat[i]=1;
;;;635    	}
;;;636    
;;;637    snmp_dt_number[0]=1;
;;;638    snmp_dt_number[1]=2;
;;;639    snmp_dt_number[2]=3;
;;;640    //snmp_dt_number[3]=4;
;;;641    snmp_dt_temper[0]=t_ext[0];
;;;642    snmp_dt_temper[1]=t_ext[1];
;;;643    snmp_dt_temper[2]=t_ext[2];
;;;644    //snmp_dt_temper[3]=t_ext[3];
;;;645    snmp_dt_error[0]=ND_EXT[0];
;;;646    if(NUMDT<1)snmp_dt_error[0]=0xff;
;;;647    snmp_dt_error[1]=ND_EXT[1];
;;;648    if(NUMDT<2)snmp_dt_error[0]=0xff;
;;;649    snmp_dt_error[2]=ND_EXT[2];
;;;650    if(NUMDT<3)snmp_dt_error[0]=0xff;
;;;651    //snmp_dt_error[3]=ND_EXT[3];
;;;652    if(NUMDT<4)snmp_dt_error[0]=0xff;
;;;653    
;;;654    /*
;;;655    //Литиевые батареи
;;;656    snmp_lakb_number[0]=1;								//Номер ЛАКБ
;;;657    snmp_lakb_number[1]=2;								//Номер ЛАКБ
;;;658    snmp_lakb_voltage[0]=lakb[0]._tot_bat_volt;				//Напряжение ЛАКБ
;;;659    snmp_lakb_voltage[1]=lakb[1]._tot_bat_volt;				//Напряжение ЛАКБ
;;;660    snmp_lakb_max_cell_voltage[0]=lakb[0]._max_cell_volt;		//Максимальное напряжение ячейки ЛАКБ
;;;661    snmp_lakb_max_cell_voltage[1]=lakb[1]._max_cell_volt;		//Максимальное напряжение ячейки ЛАКБ
;;;662    snmp_lakb_min_cell_voltage[0]=lakb[0]._min_cell_volt;		//Минимальное напряжение ячейки ЛАКБ
;;;663    snmp_lakb_min_cell_voltage[1]=lakb[1]._min_cell_volt;		//Минимальное напряжение ячейки ЛАКБ
;;;664    snmp_lakb_max_cell_temperature[0]=lakb[0]._max_cell_temp;	//Максимальная температура ячейки ЛАКБ
;;;665    snmp_lakb_max_cell_temperature[1]=lakb[1]._max_cell_temp;	//Максимальная температура ячейки ЛАКБ
;;;666    snmp_lakb_min_cell_temperature[0]=lakb[0]._min_cell_temp;	//Минимальная температура ячейки ЛАКБ
;;;667    snmp_lakb_min_cell_temperature[1]=lakb[1]._min_cell_temp;	//Минимальная температура ячейки ЛАКБ
;;;668    snmp_lakb_ch_curr[0]=lakb[0]._ch_curr;					//Ток заряда ЛАКБ
;;;669    snmp_lakb_ch_curr[1]=lakb[1]._ch_curr;					//Ток заряда ЛАКБ
;;;670    snmp_lakb_dsch_curr[0]=lakb[0]._dsch_curr;				//Ток разряда ЛАКБ
;;;671    snmp_lakb_dsch_curr[1]=lakb[1]._dsch_curr;				//Ток разряда ЛАКБ
;;;672    snmp_lakb_rat_cap[0]=lakb[0]._rat_cap;					//Номинальная емкость ЛАКБ
;;;673    snmp_lakb_rat_cap[1]=lakb[1]._rat_cap;					//Номинальная емкость ЛАКБ
;;;674    snmp_lakb_soh[0]=lakb[0]._s_o_h;						//Остаточная емкость ЛАКБ
;;;675    snmp_lakb_soh[1]=lakb[1]._s_o_h;						//Остаточная емкость ЛАКБ
;;;676    snmp_lakb_soc[0]=lakb[0]._s_o_c;						//Заряд ЛАКБ
;;;677    snmp_lakb_soc[1]=lakb[1]._s_o_c;						//Заряд ЛАКБ
;;;678    snmp_lakb_cclv[0]=lakb[0]._c_c_l_v;  					//Максимальный ток заряда ЛАКБ
;;;679    snmp_lakb_cclv[1]=lakb[1]._c_c_l_v;  					//Максимальный ток заряда ЛАКБ
;;;680    snmp_lakb_rbt[0]=lakb[0]._r_b_t;						//Оцениваемое время работы ЛАКБ
;;;681    snmp_lakb_rbt[1]=lakb[1]._r_b_t;						//Оцениваемое время работы ЛАКБ
;;;682    snmp_lakb_flags1[0]=lakb[0]._flags1;					//Первый флаг состояния ЛАКБ
;;;683    snmp_lakb_flags1[1]=lakb[1]._flags1;					//Первый флаг состояния ЛАКБ
;;;684    snmp_lakb_flags2[0]=lakb[0]._flags2;					//Второй флаг состояния ЛАКБ
;;;685    snmp_lakb_flags2[1]=lakb[1]._flags2;					//Второй флаг состояния ЛАКБ */
;;;686    
;;;687    //Литиевые батареи
;;;688    snmp_lakb_number[0]=1;								//Номер ЛАКБ
;;;689    snmp_lakb_number[1]=2;								//Номер ЛАКБ
;;;690    snmp_lakb_number[2]=3;								//Номер ЛАКБ
;;;691    snmp_lakb_number[3]=4;								//Номер ЛАКБ
;;;692    snmp_lakb_number[4]=5;								//Номер ЛАКБ
;;;693    snmp_lakb_number[5]=6;								//Номер ЛАКБ
;;;694    snmp_lakb_number[6]=7;								//Номер ЛАКБ
;;;695    
;;;696    for (i=0;i<3;i++)
;;;697    	{
;;;698    	snmp_lakb_voltage[i]=lakb[i]._tot_bat_volt;				//Напряжение ЛАКБ
;;;699    	snmp_lakb_max_cell_voltage[i]=lakb[i]._max_cell_volt;		//Максимальное напряжение ячейки ЛАКБ
;;;700    	snmp_lakb_min_cell_voltage[i]=lakb[i]._min_cell_volt;		//Минимальное напряжение ячейки ЛАКБ
;;;701    	snmp_lakb_max_cell_temperature[i]=lakb[i]._max_cell_temp;	//Максимальная температура ячейки ЛАКБ
;;;702    	//snmp_lakb_max_cell_temperature[1]=lakb[1]._max_cell_temp;	//Максимальная температура ячейки ЛАКБ
;;;703    	snmp_lakb_min_cell_temperature[i]=lakb[i]._min_cell_temp;	//Минимальная температура ячейки ЛАКБ
;;;704    	//snmp_lakb_min_cell_temperature[1]=lakb[1]._min_cell_temp;	//Минимальная температура ячейки ЛАКБ
;;;705    	snmp_lakb_ch_curr[i]=lakb[i]._ch_curr;					//Ток заряда ЛАКБ
;;;706    	//snmp_lakb_ch_curr[1]=lakb[1]._ch_curr;					//Ток заряда ЛАКБ
;;;707    	snmp_lakb_dsch_curr[i]=lakb[i]._dsch_curr;				//Ток разряда ЛАКБ
;;;708    	//snmp_lakb_dsch_curr[1]=lakb[1]._dsch_curr;				//Ток разряда ЛАКБ
;;;709    	snmp_lakb_rat_cap[i]=lakb[i]._rat_cap;					//Номинальная емкость ЛАКБ
;;;710    	//snmp_lakb_rat_cap[1]=lakb[1]._rat_cap;					//Номинальная емкость ЛАКБ
;;;711    	snmp_lakb_soh[i]=lakb[i]._s_o_h;						//Остаточная емкость ЛАКБ
;;;712    	//snmp_lakb_soh[1]=lakb[1]._s_o_h;						//Остаточная емкость ЛАКБ
;;;713    	snmp_lakb_soc[i]=lakb[i]._s_o_c;						//Заряд ЛАКБ
;;;714    	//snmp_lakb_soc[1]=lakb[1]._s_o_c;						//Заряд ЛАКБ
;;;715    	snmp_lakb_cclv[i]=lakb[i]._c_c_l_v;  					//Максимальный ток заряда ЛАКБ
;;;716    	//snmp_lakb_cclv[1]=lakb[1]._c_c_l_v;  					//Максимальный ток заряда ЛАКБ
;;;717    	snmp_lakb_rbt[i]=lakb[i]._r_b_t;						//Оцениваемое время работы ЛАКБ
;;;718    	//snmp_lakb_rbt[1]=lakb[1]._r_b_t;						//Оцениваемое время работы ЛАКБ
;;;719    	snmp_lakb_flags1[i]=lakb[i]._flags1;					//Первый флаг состояния ЛАКБ
;;;720    	//snmp_lakb_flags1[1]=lakb[1]._flags1;					//Первый флаг состояния ЛАКБ
;;;721    	snmp_lakb_flags2[i]=lakb[i]._flags2;					//Второй флаг состояния ЛАКБ
;;;722    	//snmp_lakb_flags2[1]=lakb[1]._flags2;					//Второй флаг состояния ЛАКБ
;;;723    
;;;724    	snmp_lakb_cell_temperature_1[i]= lakb[i]._cell_temp_1;
;;;725    	snmp_lakb_cell_temperature_2[i]= lakb[i]._cell_temp_2;
;;;726    	snmp_lakb_cell_temperature_3[i]= lakb[i]._cell_temp_3;
;;;727    	snmp_lakb_cell_temperature_4[i]= lakb[i]._cell_temp_4;
;;;728    	snmp_lakb_cell_temperature_ambient[i]=lakb[i]._cell_temp_ambient;
;;;729    	snmp_lakb_cell_temperature_power[i]=lakb[i]._cell_temp_power;
;;;730    	}
;;;731    
;;;732    for (i=0;i<7;i++)
;;;733    {
;;;734    /*
;;;735    snmp_lakb_damp1[i][0]=ABCDEF[(lakb_damp[i][0])>>4];			//Дамп
;;;736    snmp_lakb_damp1[i][1]=ABCDEF[(lakb_damp[i][0])&0x0f];			//Дамп
;;;737    snmp_lakb_damp1[i][2]=' ';
;;;738    snmp_lakb_damp1[i][3]=ABCDEF[(lakb_damp[i][1])>>4];			//Дамп
;;;739    snmp_lakb_damp1[i][4]=ABCDEF[(lakb_damp[i][1])&0x0f];			//Дамп
;;;740    snmp_lakb_damp1[i][5]=' ';
;;;741    snmp_lakb_damp1[i][6]=ABCDEF[(lakb_damp[i][2])>>4];			//Дамп
;;;742    snmp_lakb_damp1[i][7]=ABCDEF[(lakb_damp[i][2])&0x0f];			//Дамп
;;;743    snmp_lakb_damp1[i][8]=' ';
;;;744    snmp_lakb_damp1[i][9]=ABCDEF[(lakb_damp[i][3])>>4];			//Дамп
;;;745    snmp_lakb_damp1[i][10]=ABCDEF[(lakb_damp[i][3])&0x0f];			//Дамп
;;;746    snmp_lakb_damp1[i][11]=' ';
;;;747    snmp_lakb_damp1[i][12]=ABCDEF[(lakb_damp[i][4])>>4];			//Дамп
;;;748    snmp_lakb_damp1[i][13]=ABCDEF[(lakb_damp[i][4])&0x0f];			//Дамп
;;;749    snmp_lakb_damp1[i][14]=' '; 
;;;750    snmp_lakb_damp1[i][15]=ABCDEF[(lakb_damp[i][5])>>4];			//Дамп
;;;751    snmp_lakb_damp1[i][16]=ABCDEF[(lakb_damp[i][5])&0x0f];			//Дамп
;;;752    snmp_lakb_damp1[i][17]=' ';
;;;753    snmp_lakb_damp1[i][18]=ABCDEF[(lakb_damp[i][6])>>4];			//Дамп
;;;754    snmp_lakb_damp1[i][19]=ABCDEF[(lakb_damp[i][6])&0x0f];			//Дамп
;;;755    snmp_lakb_damp1[i][20]=' ';
;;;756    snmp_lakb_damp1[i][21]=ABCDEF[(lakb_damp[i][7])>>4];			//Дамп
;;;757    snmp_lakb_damp1[i][22]=ABCDEF[(lakb_damp[i][7])&0x0f];			//Дамп
;;;758    snmp_lakb_damp1[i][23]=' ';
;;;759    snmp_lakb_damp1[i][24]=ABCDEF[(lakb_damp[i][8])>>4];			//Дамп
;;;760    snmp_lakb_damp1[i][25]=ABCDEF[(lakb_damp[i][8])&0x0f];			//Дамп
;;;761    snmp_lakb_damp1[i][26]=' ';
;;;762    snmp_lakb_damp1[i][27]=ABCDEF[(lakb_damp[i][9])>>4];			//Дамп
;;;763    snmp_lakb_damp1[i][28]=ABCDEF[(lakb_damp[i][9])&0x0f];			//Дамп
;;;764    snmp_lakb_damp1[i][29]=0; 
;;;765    
;;;766    snmp_lakb_damp1[i][30]=ABCDEF[(lakb_damp[i][10])>>4];			//Дамп
;;;767    snmp_lakb_damp1[i][31]=ABCDEF[(lakb_damp[i][10])&0x0f];			//Дамп
;;;768    snmp_lakb_damp1[i][32]=' ';
;;;769    snmp_lakb_damp1[i][33]=ABCDEF[(lakb_damp[i][11])>>4];			//Дамп
;;;770    snmp_lakb_damp1[i][34]=ABCDEF[(lakb_damp[i][11])&0x0f];			//Дамп
;;;771    snmp_lakb_damp1[i][35]=' ';
;;;772    snmp_lakb_damp1[i][36]=ABCDEF[(lakb_damp[i][12])>>4];			//Дамп
;;;773    snmp_lakb_damp1[i][37]=ABCDEF[(lakb_damp[i][12])&0x0f];			//Дамп
;;;774    snmp_lakb_damp1[i][38]=' ';
;;;775    snmp_lakb_damp1[i][39]=ABCDEF[(lakb_damp[i][13])>>4];			//Дамп
;;;776    snmp_lakb_damp1[i][40]=ABCDEF[(lakb_damp[i][13])&0x0f];			//Дамп
;;;777    snmp_lakb_damp1[i][41]=' ';
;;;778    snmp_lakb_damp1[i][42]=ABCDEF[(lakb_damp[i][14])>>4];			//Дамп
;;;779    snmp_lakb_damp1[i][43]=ABCDEF[(lakb_damp[i][14])&0x0f];			//Дамп
;;;780    snmp_lakb_damp1[i][44]=' '; 
;;;781    snmp_lakb_damp1[i][45]=ABCDEF[(lakb_damp[i][15])>>4];			//Дамп
;;;782    snmp_lakb_damp1[i][46]=ABCDEF[(lakb_damp[i][15])&0x0f];			//Дамп
;;;783    snmp_lakb_damp1[i][47]=' ';
;;;784    snmp_lakb_damp1[i][48]=ABCDEF[(lakb_damp[i][16])>>4];			//Дамп
;;;785    snmp_lakb_damp1[i][49]=ABCDEF[(lakb_damp[i][16])&0x0f];			//Дамп
;;;786    snmp_lakb_damp1[i][50]=' ';
;;;787    snmp_lakb_damp1[i][51]=ABCDEF[(lakb_damp[i][17])>>4];			//Дамп
;;;788    snmp_lakb_damp1[i][52]=ABCDEF[(lakb_damp[i][17])&0x0f];			//Дамп
;;;789    snmp_lakb_damp1[i][53]=' ';
;;;790    snmp_lakb_damp1[i][54]=ABCDEF[(lakb_damp[i][18])>>4];			//Дамп
;;;791    snmp_lakb_damp1[i][55]=ABCDEF[(lakb_damp[i][18])&0x0f];			//Дамп
;;;792    snmp_lakb_damp1[i][56]=' ';
;;;793    snmp_lakb_damp1[i][57]=ABCDEF[(lakb_damp[i][19])>>4];			//Дамп
;;;794    snmp_lakb_damp1[i][58]=ABCDEF[(lakb_damp[i][19])&0x0f];			//Дамп
;;;795    snmp_lakb_damp1[i][59]=0; 
;;;796    
;;;797    
;;;798    snmp_lakb_damp1[i][60]=ABCDEF[(lakb_damp[i][20])>>4];			//Дамп
;;;799    snmp_lakb_damp1[i][61]=ABCDEF[(lakb_damp[i][20])&0x0f];			//Дамп
;;;800    snmp_lakb_damp1[i][62]=' ';
;;;801    snmp_lakb_damp1[i][63]=ABCDEF[(lakb_damp[i][21])>>4];			//Дамп
;;;802    snmp_lakb_damp1[i][64]=ABCDEF[(lakb_damp[i][21])&0x0f];			//Дамп
;;;803    snmp_lakb_damp1[i][65]=' ';
;;;804    snmp_lakb_damp1[i][66]=ABCDEF[(lakb_damp[i][22])>>4];			//Дамп
;;;805    snmp_lakb_damp1[i][67]=ABCDEF[(lakb_damp[i][22])&0x0f];			//Дамп
;;;806    snmp_lakb_damp1[i][68]=' ';
;;;807    snmp_lakb_damp1[i][69]=ABCDEF[(lakb_damp[i][23])>>4];			//Дамп
;;;808    snmp_lakb_damp1[i][70]=ABCDEF[(lakb_damp[i][23])&0x0f];			//Дамп
;;;809    snmp_lakb_damp1[i][71]=' ';
;;;810    snmp_lakb_damp1[i][72]=ABCDEF[(lakb_damp[i][24])>>4];			//Дамп
;;;811    snmp_lakb_damp1[i][73]=ABCDEF[(lakb_damp[i][24])&0x0f];			//Дамп
;;;812    snmp_lakb_damp1[i][74]=' '; 
;;;813    snmp_lakb_damp1[i][75]=ABCDEF[(lakb_damp[i][25])>>4];			//Дамп
;;;814    snmp_lakb_damp1[i][76]=ABCDEF[(lakb_damp[i][25])&0x0f];			//Дамп
;;;815    snmp_lakb_damp1[i][77]=' ';
;;;816    snmp_lakb_damp1[i][78]=ABCDEF[(lakb_damp[i][26])>>4];			//Дамп
;;;817    snmp_lakb_damp1[i][79]=ABCDEF[(lakb_damp[i][26])&0x0f];			//Дамп
;;;818    snmp_lakb_damp1[i][80]=' ';
;;;819    snmp_lakb_damp1[i][81]=ABCDEF[(lakb_damp[i][27])>>4];			//Дамп
;;;820    snmp_lakb_damp1[i][82]=ABCDEF[(lakb_damp[i][27])&0x0f];			//Дамп
;;;821    snmp_lakb_damp1[i][83]=' ';
;;;822    snmp_lakb_damp1[i][84]=ABCDEF[(lakb_damp[i][28])>>4];			//Дамп
;;;823    snmp_lakb_damp1[i][85]=ABCDEF[(lakb_damp[i][28])&0x0f];			//Дамп
;;;824    snmp_lakb_damp1[i][86]=' ';
;;;825    snmp_lakb_damp1[i][87]=ABCDEF[(lakb_damp[i][29])>>4];			//Дамп
;;;826    snmp_lakb_damp1[i][88]=ABCDEF[(lakb_damp[i][29])&0x0f];			//Дамп
;;;827    snmp_lakb_damp1[i][89]=0;
;;;828    
;;;829    
;;;830    snmp_lakb_damp1[i][90]=ABCDEF[(lakb_damp[i][30])>>4];			//Дамп
;;;831    snmp_lakb_damp1[i][91]=ABCDEF[(lakb_damp[i][30])&0x0f];			//Дамп
;;;832    snmp_lakb_damp1[i][92]=' ';
;;;833    snmp_lakb_damp1[i][93]=ABCDEF[(lakb_damp[i][31])>>4];			//Дамп
;;;834    snmp_lakb_damp1[i][94]=ABCDEF[(lakb_damp[i][31])&0x0f];			//Дамп
;;;835    snmp_lakb_damp1[i][95]=' ';
;;;836    snmp_lakb_damp1[i][96]=ABCDEF[(lakb_damp[i][32])>>4];			//Дамп
;;;837    snmp_lakb_damp1[i][97]=ABCDEF[(lakb_damp[i][32])&0x0f];			//Дамп
;;;838    snmp_lakb_damp1[i][98]=' ';
;;;839    snmp_lakb_damp1[i][99]=ABCDEF[(lakb_damp[i][33])>>4];			//Дамп
;;;840    snmp_lakb_damp1[i][100]=ABCDEF[(lakb_damp[i][33])&0x0f];			//Дамп
;;;841    snmp_lakb_damp1[i][101]=' ';
;;;842    snmp_lakb_damp1[i][102]=ABCDEF[(lakb_damp[i][34])>>4];			//Дамп
;;;843    snmp_lakb_damp1[i][103]=ABCDEF[(lakb_damp[i][34])&0x0f];			//Дамп
;;;844    snmp_lakb_damp1[i][104]=' '; 
;;;845    snmp_lakb_damp1[i][105]=ABCDEF[(lakb_damp[i][35])>>4];			//Дамп
;;;846    snmp_lakb_damp1[i][106]=ABCDEF[(lakb_damp[i][35])&0x0f];			//Дамп
;;;847    snmp_lakb_damp1[i][107]=' ';
;;;848    snmp_lakb_damp1[i][108]=ABCDEF[(lakb_damp[i][36])>>4];			//Дамп
;;;849    snmp_lakb_damp1[i][109]=ABCDEF[(lakb_damp[i][36])&0x0f];			//Дамп
;;;850    snmp_lakb_damp1[i][110]=' ';
;;;851    snmp_lakb_damp1[i][111]=ABCDEF[(lakb_damp[i][37])>>4];			//Дамп
;;;852    snmp_lakb_damp1[i][112]=ABCDEF[(lakb_damp[i][37])&0x0f];			//Дамп
;;;853    snmp_lakb_damp1[i][113]=' ';
;;;854    snmp_lakb_damp1[i][114]=ABCDEF[(lakb_damp[i][38])>>4];			//Дамп
;;;855    snmp_lakb_damp1[i][115]=ABCDEF[(lakb_damp[i][38])&0x0f];			//Дамп
;;;856    snmp_lakb_damp1[i][116]=' ';
;;;857    snmp_lakb_damp1[i][117]=ABCDEF[(lakb_damp[i][39])>>4];			//Дамп
;;;858    snmp_lakb_damp1[i][118]=ABCDEF[(lakb_damp[i][39])&0x0f];			//Дамп
;;;859    snmp_lakb_damp1[i][119]=0; 
;;;860     
;;;861    
;;;862    snmp_lakb_damp1[i][120]=ABCDEF[(lakb_damp[i][40])>>4];			//Дамп
;;;863    snmp_lakb_damp1[i][121]=ABCDEF[(lakb_damp[i][40])&0x0f];			//Дамп
;;;864    snmp_lakb_damp1[i][122]=' ';
;;;865    snmp_lakb_damp1[i][123]=ABCDEF[(lakb_damp[i][41])>>4];			//Дамп
;;;866    snmp_lakb_damp1[i][124]=ABCDEF[(lakb_damp[i][41])&0x0f];			//Дамп
;;;867    snmp_lakb_damp1[i][125]=' ';
;;;868    snmp_lakb_damp1[i][126]=ABCDEF[(lakb_damp[i][42])>>4];			//Дамп
;;;869    snmp_lakb_damp1[i][127]=ABCDEF[(lakb_damp[i][42])&0x0f];			//Дамп
;;;870    snmp_lakb_damp1[i][128]=' ';
;;;871    snmp_lakb_damp1[i][129]=ABCDEF[(lakb_damp[i][43])>>4];			//Дамп
;;;872    snmp_lakb_damp1[i][130]=ABCDEF[(lakb_damp[i][43])&0x0f];			//Дамп
;;;873    snmp_lakb_damp1[i][131]=' ';
;;;874    snmp_lakb_damp1[i][132]=ABCDEF[(lakb_damp[i][44])>>4];			//Дамп
;;;875    snmp_lakb_damp1[i][133]=ABCDEF[(lakb_damp[i][44])&0x0f];			//Дамп
;;;876    snmp_lakb_damp1[i][134]=' '; 
;;;877    snmp_lakb_damp1[i][135]=ABCDEF[(lakb_damp[i][45])>>4];			//Дамп
;;;878    snmp_lakb_damp1[i][136]=ABCDEF[(lakb_damp[i][45])&0x0f];			//Дамп
;;;879    snmp_lakb_damp1[i][137]=' ';
;;;880    snmp_lakb_damp1[i][138]=ABCDEF[(lakb_damp[i][46])>>4];			//Дамп
;;;881    snmp_lakb_damp1[i][139]=ABCDEF[(lakb_damp[i][46])&0x0f];			//Дамп
;;;882    snmp_lakb_damp1[i][140]=' ';
;;;883    snmp_lakb_damp1[i][141]=ABCDEF[(lakb_damp[i][47])>>4];			//Дамп
;;;884    snmp_lakb_damp1[i][142]=ABCDEF[(lakb_damp[i][47])&0x0f];			//Дамп
;;;885    snmp_lakb_damp1[i][143]=' ';
;;;886    snmp_lakb_damp1[i][144]=ABCDEF[(lakb_damp[i][48])>>4];			//Дамп
;;;887    snmp_lakb_damp1[i][145]=ABCDEF[(lakb_damp[i][48])&0x0f];			//Дамп
;;;888    snmp_lakb_damp1[i][146]=' ';
;;;889    snmp_lakb_damp1[i][147]=ABCDEF[(lakb_damp[i][49])>>4];			//Дамп
;;;890    snmp_lakb_damp1[i][148]=ABCDEF[(lakb_damp[i][49])&0x0f];			//Дамп
;;;891    snmp_lakb_damp1[i][149]=0;  */
;;;892    }
;;;893    
;;;894    #ifdef UKU_TELECORE2017
;;;895    snmp_warm_sign=0;
;;;896    if(TELECORE2017_KLIMAT_WARM_SIGNAL==0) snmp_warm_sign=2;
;;;897    else if(TELECORE2017_KLIMAT_WARM_SIGNAL==1) snmp_warm_sign=1;
;;;898    snmp_cool_sign=0;
;;;899    if(TELECORE2017_KLIMAT_VENT_SIGNAL==0) snmp_cool_sign=2;
;;;900    else if(TELECORE2017_KLIMAT_VENT_SIGNAL==1) snmp_cool_sign=1;
;;;901    snmp_warm_on_temper=(signed char)TELECORE2017_KLIMAT_WARM_ON; 
;;;902    snmp_warm_off_temper=(signed char)TELECORE2017_KLIMAT_WARM_OFF;
;;;903    snmp_warm_q=(signed char)TELECORE2017_KLIMAT_CAP;	
;;;904    snmp_cool_20_temper=(signed char)TELECORE2017_KLIMAT_VENT_ON20;
;;;905    snmp_cool_40_temper=(signed char)TELECORE2017_KLIMAT_VENT_ON40;
;;;906    snmp_cool_60_temper=(signed char)TELECORE2017_KLIMAT_VENT_ON60;
;;;907    snmp_cool_80_temper=(signed char)TELECORE2017_KLIMAT_VENT_ON80;
;;;908    snmp_cool_100_temper=(signed char)TELECORE2017_KLIMAT_VENT_ON100;
;;;909    snmp_cool_20_dtemper=(signed char)TELECORE2017_KLIMAT_DVENT_ON20;
;;;910    snmp_cool_40_dtemper=(signed char)TELECORE2017_KLIMAT_DVENT_ON40;
;;;911    snmp_cool_60_dtemper=(signed char)TELECORE2017_KLIMAT_DVENT_ON60;
;;;912    snmp_cool_80_dtemper=(signed char)TELECORE2017_KLIMAT_DVENT_ON80;
;;;913    snmp_cool_100_dtemper=(signed char)TELECORE2017_KLIMAT_DVENT_ON100;
;;;914    snmp_warm_stat=0;
;;;915    if(warm_stat_k==wsON) snmp_warm_stat=1;
;;;916    #endif
;;;917    }
;;;918    //-----------------------------------------------
                          ENDP


                          AREA ||area_number.4||, CODE, READONLY, ALIGN=1

                          EXPORTAS ||area_number.4||, ||.text||
                  snmp_max_current_koef_write PROC
;;;259    //-----------------------------------------------
;;;260    void snmp_data (void) 
000000  4770              BX       lr
;;;261    {
;;;262    char i;
;;;263    
;;;264    snmp_mains_power_voltage=net_U;
;;;265    #ifdef UKU_220_IPS_TERMOKOMPENSAT
;;;266    snmp_mains_power_frequency=net_F3;
;;;267    #else
;;;268    snmp_mains_power_frequency=net_F;
;;;269    #endif
;;;270    snmp_mains_power_voltage_phaseA=net_Ua;
;;;271    snmp_mains_power_voltage_phaseB=net_Ub;
;;;272    snmp_mains_power_voltage_phaseC=net_Uc;
;;;273    
;;;274    /*
;;;275    snmp_mains_power_status=0; 
;;;276    #if(UKU_VERSION==900)
;;;277    snmp_mains_power_status=2;
;;;278    #endif
;;;279    if(St&0x01)snmp_mains_power_status|=0x01;
;;;280    if(St&0x01)snmp_mains_power_alarm=1;
;;;281    
;;;282    
;;;283    
;;;284    
;;;285    
;;;286    
;;;287    for(i=0;i<snmp_numofevents;i++)event2snmp(i);
;;;288    //snmp_bpsnumber[0]=1;
;;;289    //snmp_bpsnumber[1]=2;
;;;290    
;;;291    snmp_sernum=AUSW_MAIN_NUMBER;
;;;292    snmp_sernum_lsb=0x1122;
;;;293    snmp_sernum_msb=0x3344;
;;;294    snmp_device_code=AUSW_MAIN;
;;;295    
;;;296    //memcpy(snmp_location,"lkhg;la",);
;;;297    
;;;298    
;;;299    snmp_numofbat=1;
;;;300    
;;;301    */
;;;302    
;;;303    snmp_load_voltage=load_U;
;;;304    snmp_load_current=load_I;
;;;305    snmp_numofbat=NUMBAT;
;;;306    snmp_numofbps=NUMIST;
;;;307    snmp_numofinv=NUMINV;
;;;308    snmp_numofavt=NUMAVT;
;;;309    snmp_numofdt=NUMDT;
;;;310    snmp_numofsk=NUMSK;
;;;311    snmp_numofevents=lc640_read_int(CNT_EVENT_LOG);
;;;312    
;;;313    snmp_energy_vvod_phase_a=Uvv_eb2[0];
;;;314    snmp_energy_vvod_phase_b=Uvv_eb2[1];
;;;315    snmp_energy_vvod_phase_c=Uvv_eb2[2];
;;;316    snmp_energy_pes_phase_a=Upes_eb2[0];
;;;317    snmp_energy_pes_phase_b=Upes_eb2[1];
;;;318    snmp_energy_pes_phase_c=Upes_eb2[2];
;;;319    
;;;320    #ifdef UKU_KONTUR
;;;321    snmp_energy_vvod_phase_a=Uvv0;
;;;322    snmp_energy_pes_phase_a=Uvv[1];
;;;323    #endif
;;;324    
;;;325    snmp_energy_total_energy=power_summary;
;;;326    snmp_energy_current_energy=power_current;
;;;327    snmp_energy_input_voltage=net_U;
;;;328    
;;;329    snmp_bat_number[0]=1;
;;;330    snmp_bat_voltage[0]=bat[0]._Ub;
;;;331    snmp_bat_part_voltage[0]=bat[0]._Ubm;
;;;332    snmp_bat_current[0]=bat[0]._Ib;
;;;333    
;;;334    #ifdef UKU_220_IPS_TERMOKOMPENSAT
;;;335    if(((AUSW_MAIN==22063)||(AUSW_MAIN==22023))&&(bps[8]._device==dIBAT_METR))
;;;336    	{
;;;337    	snmp_bat_current[0]=Ib_ips_termokompensat;
;;;338    	}
;;;339    #endif
;;;340    
;;;341    snmp_bat_temperature[0]=bat[0]._Tb;
;;;342    if(BAT_C_REAL[0]==0x5555)snmp_bat_capacity[0]=BAT_C_NOM[0];
;;;343    else snmp_bat_capacity[0]=BAT_C_REAL[0];
;;;344    snmp_bat_charge[0]=bat[0]._zar;
;;;345    snmp_bat_status[0]=bat[0]._av;
;;;346    if(BAT_IS_ON[0]!=bisON)snmp_bat_status[0]=0xff;
;;;347    
;;;348    snmp_bat_number[1]=2;
;;;349    snmp_bat_voltage[1]=bat[1]._Ub;
;;;350    snmp_bat_part_voltage[1]=bat[1]._Ubm;
;;;351    snmp_bat_current[1]=bat[1]._Ib;
;;;352    snmp_bat_temperature[1]=bat[1]._Tb;
;;;353    if(BAT_C_REAL[1]==0x5555)snmp_bat_capacity[1]=BAT_C_NOM[1];
;;;354    else snmp_bat_capacity[1]=BAT_C_REAL[1];
;;;355    snmp_bat_charge[1]=bat[1]._zar;
;;;356    snmp_bat_status[1]=bat[1]._av;
;;;357    if(BAT_IS_ON[1]!=bisON)snmp_bat_status[1]=0xff;
;;;358    
;;;359    
;;;360    
;;;361    snmp_bps_number[0]=1;
;;;362    snmp_bps_voltage[0]=bps[0]._Uii;
;;;363    snmp_bps_current[0]=bps[0]._Ii;
;;;364    snmp_bps_temperature[0]=bps[0]._Ti;
;;;365    snmp_bps_stat[0]=bps[0]._av;
;;;366    if(!(NUMIST>0))snmp_bps_stat[0]=0xff;												//Байт состояния БПСа.
;;;367    
;;;368    /*if(St_[0]&(1<<2))snmp_bps_stat[0]=(1<<3); 							//авария по Umin
;;;369    else if(St_[0]&(1<<3))snmp_bps_stat[0]=(1<<2); 						//авария по Umax
;;;370    else if(bps[0]._av&(1<<0))snmp_bps_stat[0]=(1<<1); 						//авария по Tmax
;;;371    else if(St_[0]&(1<<5))snmp_bps_stat[0]=(1<<5); 						//заблокирован
;;;372    else if((!(St_[0]&0x3c))&&(!St&0x01)&&(!OFFBP1))snmp_bps_stat[0]=1; 		//Работает
;;;373    */
;;;374    
;;;375    snmp_bps_number[1]=2;
;;;376    snmp_bps_voltage[1]=bps[1]._Uii;
;;;377    snmp_bps_current[1]=bps[1]._Ii;
;;;378    snmp_bps_temperature[1]=bps[1]._Ti;
;;;379    snmp_bps_stat[1]=bps[1]._av;
;;;380    if(!(NUMIST>1))snmp_bps_stat[1]=0xff;												//Байт состояния БПСа.
;;;381    /*if(St_[1]&(1<<2))snmp_bps_stat[1]=(1<<3); 							//авария по Umin
;;;382    else if(St_[1]&(1<<3))snmp_bps_stat[1]=(1<<2); 						//авария по Umax
;;;383    else if(St_[1]&(1<<4))snmp_bps_stat[1]=(1<<1); 						//авария по Tmax
;;;384    else if(St_[1]&(1<<5))snmp_bps_stat[1]=(1<<5); 						//заблокирован
;;;385    else if((!(St_[1]&0x3c))&&(!St&0x01)&&(!OFFBP2))snmp_bps_stat[1]=1; 		//Работает
;;;386    */
;;;387    
;;;388    snmp_bps_number[2]=3;
;;;389    snmp_bps_voltage[2]=bps[2]._Uii;
;;;390    snmp_bps_current[2]=bps[2]._Ii;
;;;391    snmp_bps_temperature[2]=bps[2]._Ti;
;;;392    snmp_bps_stat[2]=bps[2]._av;
;;;393    if(!(NUMIST>2))snmp_bps_stat[2]=0xff;
;;;394    
;;;395    snmp_bps_number[3]=4;
;;;396    snmp_bps_voltage[3]=bps[3]._Uii;
;;;397    snmp_bps_current[3]=bps[3]._Ii;
;;;398    snmp_bps_temperature[3]=bps[3]._Ti;
;;;399    snmp_bps_stat[3]=bps[3]._av;
;;;400    if(!(NUMIST>3))snmp_bps_stat[3]=0xff;
;;;401    
;;;402    snmp_bps_number[4]=5;
;;;403    snmp_bps_voltage[4]=bps[4]._Uii;
;;;404    snmp_bps_current[4]=bps[4]._Ii;
;;;405    snmp_bps_temperature[4]=bps[4]._Ti;
;;;406    snmp_bps_stat[4]=bps[4]._av;
;;;407    if(!(NUMIST>4))snmp_bps_stat[4]=0xff;
;;;408    
;;;409    snmp_bps_number[5]=6;
;;;410    snmp_bps_voltage[5]=bps[5]._Uii;
;;;411    snmp_bps_current[5]=bps[5]._Ii;
;;;412    snmp_bps_temperature[5]=bps[5]._Ti;
;;;413    snmp_bps_stat[5]=bps[5]._av;
;;;414    if(!(NUMIST>5))snmp_bps_stat[5]=0xff;
;;;415    
;;;416    snmp_bps_number[6]=7;
;;;417    snmp_bps_voltage[6]=bps[6]._Uii;
;;;418    snmp_bps_current[6]=bps[6]._Ii;
;;;419    snmp_bps_temperature[6]=bps[6]._Ti;
;;;420    snmp_bps_stat[6]=bps[6]._av;
;;;421    if(!(NUMIST>6))snmp_bps_stat[6]=0xff;
;;;422    
;;;423    snmp_bps_number[7]=8;
;;;424    snmp_bps_voltage[7]=bps[7]._Uii;
;;;425    snmp_bps_current[7]=bps[7]._Ii;
;;;426    snmp_bps_temperature[7]=bps[7]._Ti;
;;;427    snmp_bps_stat[7]=bps[7]._av;
;;;428    if(!(NUMIST>7))snmp_bps_stat[7]=0xff;
;;;429    
;;;430    
;;;431    
;;;432    snmp_inv_number[0]=1;
;;;433    snmp_inv_voltage[0]=inv[0]._Uio;
;;;434    snmp_inv_current[0]=inv[0]._Ii;
;;;435    snmp_inv_temperature[0]=inv[0]._Ti;
;;;436    snmp_inv_stat[0]=inv[0]._flags_tm;
;;;437    
;;;438    snmp_inv_number[1]=2;
;;;439    snmp_inv_voltage[1]=inv[1]._Uio;
;;;440    snmp_inv_current[1]=inv[1]._Ii;
;;;441    snmp_inv_temperature[1]=inv[1]._Ti;
;;;442    snmp_inv_stat[1]=inv[1]._flags_tm;
;;;443    
;;;444    snmp_inv_number[2]=3;
;;;445    snmp_inv_voltage[2]=inv[2]._Uio;
;;;446    snmp_inv_current[2]=inv[2]._Ii;
;;;447    snmp_inv_temperature[2]=inv[2]._Ti;
;;;448    snmp_inv_stat[2]=inv[2]._flags_tm;
;;;449    
;;;450    
;;;451    
;;;452    
;;;453    					  
;;;454    snmp_sk_number[0]=1;
;;;455    memcpy(&snmp_sk_name[0][0],"Door",10);
;;;456    if(sk_stat[0]==ssON) snmp_sk_aktiv[0]=1;
;;;457    else snmp_sk_aktiv[0]=0;
;;;458    if(!SK_SIGN[0])snmp_sk_alarm_aktiv[0]=1;
;;;459    else snmp_sk_alarm_aktiv[0]=0;
;;;460    if(sk_av_stat[0]==sasON)	snmp_sk_alarm[0]=1;
;;;461    else                     snmp_sk_alarm[0]=0;
;;;462    
;;;463    
;;;464    snmp_sk_number[1]=2;
;;;465    memcpy(&snmp_sk_name[1][0],"Smoke",10);
;;;466    if(sk_stat[1]==ssON) snmp_sk_aktiv[1]=1;
;;;467    else snmp_sk_aktiv[1]=0;
;;;468    if(!SK_SIGN[1])snmp_sk_alarm_aktiv[1]=1;
;;;469    else snmp_sk_alarm_aktiv[1]=0;
;;;470    if(sk_av_stat[1]==sasON)	snmp_sk_alarm[1]=1;
;;;471    else                     snmp_sk_alarm[1]=0;
;;;472    
;;;473    snmp_sk_number[2]=3;
;;;474    memcpy(&snmp_sk_name[2][0],"Shock",10);
;;;475    if(sk_stat[2]==ssON) snmp_sk_aktiv[2]=1;
;;;476    else snmp_sk_aktiv[2]=0;
;;;477    if(!SK_SIGN[2])snmp_sk_alarm_aktiv[2]=1;
;;;478    else snmp_sk_alarm_aktiv[2]=0;
;;;479    if(sk_av_stat[2]==sasON)	snmp_sk_alarm[2]=1;
;;;480    else                     snmp_sk_alarm[2]=0;
;;;481    
;;;482    snmp_sk_number[3]=4;
;;;483    memcpy(&snmp_sk_name[3][0],"     ",10);
;;;484    if(sk_stat[3]==ssON) snmp_sk_aktiv[3]=1;
;;;485    else snmp_sk_aktiv[3]=0;
;;;486    if(!SK_SIGN[3])snmp_sk_alarm_aktiv[3]=1;
;;;487    else snmp_sk_alarm_aktiv[3]=0;
;;;488    if(sk_av_stat[3]==sasON)	snmp_sk_alarm[3]=1;
;;;489    else                     snmp_sk_alarm[3]=0;
;;;490    
;;;491    
;;;492    if(makb[0]._cnt>8) snmp_makb_connect_status[0]=1;
;;;493    else if(makb[0]._cnt<2) snmp_makb_connect_status[0]=0;
;;;494    if(makb[1]._cnt>8) snmp_makb_connect_status[1]=1;
;;;495    else if(makb[1]._cnt<2) snmp_makb_connect_status[1]=0;
;;;496    if(makb[2]._cnt>8) snmp_makb_connect_status[2]=1;
;;;497    else if(makb[2]._cnt<2) snmp_makb_connect_status[2]=0;
;;;498    if(makb[3]._cnt>8) snmp_makb_connect_status[3]=1;
;;;499    else if(makb[3]._cnt<2) snmp_makb_connect_status[3]=0;
;;;500    
;;;501    snmp_makb_voltage0[0]=makb[0]._Ub[0];
;;;502    snmp_makb_voltage1[0]=makb[0]._Ub[1];
;;;503    snmp_makb_voltage2[0]=makb[0]._Ub[2];
;;;504    snmp_makb_voltage3[0]=makb[0]._Ub[3];
;;;505    snmp_makb_voltage4[0]=makb[0]._Ub[4];
;;;506    snmp_makb_voltage0[1]=makb[1]._Ub[0];
;;;507    snmp_makb_voltage1[1]=makb[1]._Ub[1];
;;;508    snmp_makb_voltage2[1]=makb[1]._Ub[2];
;;;509    snmp_makb_voltage3[1]=makb[1]._Ub[3];
;;;510    snmp_makb_voltage4[1]=makb[1]._Ub[4];
;;;511    snmp_makb_voltage0[2]=makb[2]._Ub[0];
;;;512    snmp_makb_voltage1[2]=makb[2]._Ub[1];
;;;513    snmp_makb_voltage2[2]=makb[2]._Ub[2];
;;;514    snmp_makb_voltage3[2]=makb[2]._Ub[3];
;;;515    snmp_makb_voltage4[2]=makb[2]._Ub[4];
;;;516    snmp_makb_voltage0[3]=makb[3]._Ub[0];
;;;517    snmp_makb_voltage1[3]=makb[3]._Ub[1];
;;;518    snmp_makb_voltage2[3]=makb[3]._Ub[2];
;;;519    snmp_makb_voltage3[3]=makb[3]._Ub[3];
;;;520    snmp_makb_voltage4[3]=makb[3]._Ub[4];
;;;521    
;;;522    snmp_makb_temper0[0]=makb[0]._T[0];
;;;523    snmp_makb_temper1[0]=makb[0]._T[1];
;;;524    snmp_makb_temper2[0]=makb[0]._T[2];
;;;525    snmp_makb_temper3[0]=makb[0]._T[3];
;;;526    snmp_makb_temper4[0]=makb[0]._T[4];
;;;527    snmp_makb_temper0[1]=makb[1]._T[0];
;;;528    snmp_makb_temper1[1]=makb[1]._T[1];
;;;529    snmp_makb_temper2[1]=makb[1]._T[2];
;;;530    snmp_makb_temper3[1]=makb[1]._T[3];
;;;531    snmp_makb_temper4[1]=makb[1]._T[4];
;;;532    snmp_makb_temper0[2]=makb[2]._T[0];
;;;533    snmp_makb_temper1[2]=makb[2]._T[1];
;;;534    snmp_makb_temper2[2]=makb[2]._T[2];
;;;535    snmp_makb_temper3[2]=makb[2]._T[3];
;;;536    snmp_makb_temper4[2]=makb[2]._T[4];
;;;537    snmp_makb_temper0[3]=makb[3]._T[0];
;;;538    snmp_makb_temper1[3]=makb[3]._T[1];
;;;539    snmp_makb_temper2[3]=makb[3]._T[2];
;;;540    snmp_makb_temper3[3]=makb[3]._T[3];
;;;541    snmp_makb_temper4[3]=makb[3]._T[4];
;;;542    
;;;543    snmp_makb_temper0_stat[0]=makb[0]._T_nd[0];
;;;544    snmp_makb_temper1_stat[0]=makb[0]._T_nd[1];
;;;545    snmp_makb_temper2_stat[0]=makb[0]._T_nd[2];
;;;546    snmp_makb_temper3_stat[0]=makb[0]._T_nd[3];
;;;547    snmp_makb_temper4_stat[0]=makb[0]._T_nd[4];
;;;548    snmp_makb_temper0_stat[1]=makb[1]._T_nd[0];
;;;549    snmp_makb_temper1_stat[1]=makb[1]._T_nd[1];
;;;550    snmp_makb_temper2_stat[1]=makb[1]._T_nd[2];
;;;551    snmp_makb_temper3_stat[1]=makb[1]._T_nd[3];
;;;552    snmp_makb_temper4_stat[1]=makb[1]._T_nd[4];
;;;553    snmp_makb_temper0_stat[2]=makb[2]._T_nd[0];
;;;554    snmp_makb_temper1_stat[2]=makb[2]._T_nd[1];
;;;555    snmp_makb_temper2_stat[2]=makb[2]._T_nd[2];
;;;556    snmp_makb_temper3_stat[2]=makb[2]._T_nd[3];
;;;557    snmp_makb_temper4_stat[2]=makb[2]._T_nd[4];
;;;558    snmp_makb_temper0_stat[3]=makb[3]._T_nd[0];
;;;559    snmp_makb_temper1_stat[3]=makb[3]._T_nd[1];
;;;560    snmp_makb_temper2_stat[3]=makb[3]._T_nd[2];
;;;561    snmp_makb_temper3_stat[3]=makb[3]._T_nd[3];
;;;562    snmp_makb_temper4_stat[3]=makb[3]._T_nd[4];
;;;563    
;;;564    
;;;565    snmp_klimat_box_temper=t_box;
;;;566    snmp_klimat_settings_box_alarm=TBOXMAX;
;;;567    snmp_klimat_settings_vent_on=TBOXVENTON;
;;;568    snmp_klimat_settings_vent_off=TBOXVENTOFF;
;;;569    snmp_klimat_settings_warm_on=TBOXWARMON;
;;;570    snmp_klimat_settings_warm_off=TBOXWARMOFF;
;;;571    snmp_klimat_settings_load_on=TLOADENABLE;
;;;572    snmp_klimat_settings_load_off=TLOADDISABLE;
;;;573    snmp_klimat_settings_batt_on=TBATENABLE;
;;;574    snmp_klimat_settings_batt_off=TBATDISABLE;
;;;575    
;;;576    snmp_dt_ext=t_ext[0];
;;;577    snmp_dt_msan=t_ext[1];
;;;578    snmp_dt_epu=t_ext[2];
;;;579    
;;;580    /*
;;;581    snmp_bat_voltage=Ubat;
;;;582    snmp_bat_current=Ibat;
;;;583    snmp_bat_temperature=t_b;
;;;584    if(BAT_C_REAL==0x5555)
;;;585    	{
;;;586    	snmp_bat_capacity=BAT_C_NOM*10;												    11
;;;587    	}
;;;588    else
;;;589    	{
;;;590    	snmp_bat_capacity=BAT_C_REAL;
;;;591    	}
;;;592    snmp_bat_charge=zar_percent;
;;;593    snmp_bat_status=0;
;;;594    if(St&0x02)snmp_bat_status|=0x01;
;;;595    if(Ibat>0)snmp_bat_status|=0x02;
;;;596    
;;;597    
;;;598    if(spc_stat==spc_OFF) snmp_spc_stat=0;
;;;599    else if(spc_stat==spc_KE) snmp_spc_stat=1;
;;;600    else if(spc_stat==spc_VZ) snmp_spc_stat=10;
;;;601    
;;;602    
;;;603    snmp_main_bps=MAIN_IST+1;
;;;604    */
;;;605    snmp_zv_en=ZV_ON;
;;;606    snmp_alarm_auto_disable=AV_OFF_AVT;
;;;607    snmp_bat_test_time=TBAT;
;;;608    snmp_u_max=UMAX;
;;;609    //snmp_u_min=UB20-DU;
;;;610    //snmp_u_0_grad=UB0;
;;;611    //snmp_u_20_grad=UB20;
;;;612    snmp_u_sign=USIGN;
;;;613    snmp_u_min_power=UMN;
;;;614    snmp_u_withouth_bat=U0B;
;;;615    snmp_control_current=IKB;
;;;616    snmp_max_charge_current=IZMAX;
;;;617    snmp_max_current=IMAX;
;;;618    snmp_min_current=IMIN;
;;;619    //snmp_max_current_koef=KIMAX;
;;;620    //snmp_uvz=UVZ;
;;;621    snmp_powerup_psu_timeout=TZAS;
;;;622    snmp_max_temperature=TMAX;
;;;623    snmp_tsign_bat=TBATSIGN; 
;;;624    snmp_tmax_bat=TBATMAX;
;;;625    snmp_tsign_bps=TSIGN;
;;;626    snmp_tmax_bps=TMAX;
;;;627    snmp_bat_part_alarm=UBM_AV; 
;;;628    snmp_power_cnt_adress=POWER_CNT_ADRESS;
;;;629    
;;;630    for(i=0;i<12;i++)
;;;631    	{
;;;632    	snmp_avt_number[i]=i+1;
;;;633    	if(avt_stat[i]==avtOFF)snmp_avt_stat[i]=0;
;;;634    	else snmp_avt_stat[i]=1;
;;;635    	}
;;;636    
;;;637    snmp_dt_number[0]=1;
;;;638    snmp_dt_number[1]=2;
;;;639    snmp_dt_number[2]=3;
;;;640    //snmp_dt_number[3]=4;
;;;641    snmp_dt_temper[0]=t_ext[0];
;;;642    snmp_dt_temper[1]=t_ext[1];
;;;643    snmp_dt_temper[2]=t_ext[2];
;;;644    //snmp_dt_temper[3]=t_ext[3];
;;;645    snmp_dt_error[0]=ND_EXT[0];
;;;646    if(NUMDT<1)snmp_dt_error[0]=0xff;
;;;647    snmp_dt_error[1]=ND_EXT[1];
;;;648    if(NUMDT<2)snmp_dt_error[0]=0xff;
;;;649    snmp_dt_error[2]=ND_EXT[2];
;;;650    if(NUMDT<3)snmp_dt_error[0]=0xff;
;;;651    //snmp_dt_error[3]=ND_EXT[3];
;;;652    if(NUMDT<4)snmp_dt_error[0]=0xff;
;;;653    
;;;654    /*
;;;655    //Литиевые батареи
;;;656    snmp_lakb_number[0]=1;								//Номер ЛАКБ
;;;657    snmp_lakb_number[1]=2;								//Номер ЛАКБ
;;;658    snmp_lakb_voltage[0]=lakb[0]._tot_bat_volt;				//Напряжение ЛАКБ
;;;659    snmp_lakb_voltage[1]=lakb[1]._tot_bat_volt;				//Напряжение ЛАКБ
;;;660    snmp_lakb_max_cell_voltage[0]=lakb[0]._max_cell_volt;		//Максимальное напряжение ячейки ЛАКБ
;;;661    snmp_lakb_max_cell_voltage[1]=lakb[1]._max_cell_volt;		//Максимальное напряжение ячейки ЛАКБ
;;;662    snmp_lakb_min_cell_voltage[0]=lakb[0]._min_cell_volt;		//Минимальное напряжение ячейки ЛАКБ
;;;663    snmp_lakb_min_cell_voltage[1]=lakb[1]._min_cell_volt;		//Минимальное напряжение ячейки ЛАКБ
;;;664    snmp_lakb_max_cell_temperature[0]=lakb[0]._max_cell_temp;	//Максимальная температура ячейки ЛАКБ
;;;665    snmp_lakb_max_cell_temperature[1]=lakb[1]._max_cell_temp;	//Максимальная температура ячейки ЛАКБ
;;;666    snmp_lakb_min_cell_temperature[0]=lakb[0]._min_cell_temp;	//Минимальная температура ячейки ЛАКБ
;;;667    snmp_lakb_min_cell_temperature[1]=lakb[1]._min_cell_temp;	//Минимальная температура ячейки ЛАКБ
;;;668    snmp_lakb_ch_curr[0]=lakb[0]._ch_curr;					//Ток заряда ЛАКБ
;;;669    snmp_lakb_ch_curr[1]=lakb[1]._ch_curr;					//Ток заряда ЛАКБ
;;;670    snmp_lakb_dsch_curr[0]=lakb[0]._dsch_curr;				//Ток разряда ЛАКБ
;;;671    snmp_lakb_dsch_curr[1]=lakb[1]._dsch_curr;				//Ток разряда ЛАКБ
;;;672    snmp_lakb_rat_cap[0]=lakb[0]._rat_cap;					//Номинальная емкость ЛАКБ
;;;673    snmp_lakb_rat_cap[1]=lakb[1]._rat_cap;					//Номинальная емкость ЛАКБ
;;;674    snmp_lakb_soh[0]=lakb[0]._s_o_h;						//Остаточная емкость ЛАКБ
;;;675    snmp_lakb_soh[1]=lakb[1]._s_o_h;						//Остаточная емкость ЛАКБ
;;;676    snmp_lakb_soc[0]=lakb[0]._s_o_c;						//Заряд ЛАКБ
;;;677    snmp_lakb_soc[1]=lakb[1]._s_o_c;						//Заряд ЛАКБ
;;;678    snmp_lakb_cclv[0]=lakb[0]._c_c_l_v;  					//Максимальный ток заряда ЛАКБ
;;;679    snmp_lakb_cclv[1]=lakb[1]._c_c_l_v;  					//Максимальный ток заряда ЛАКБ
;;;680    snmp_lakb_rbt[0]=lakb[0]._r_b_t;						//Оцениваемое время работы ЛАКБ
;;;681    snmp_lakb_rbt[1]=lakb[1]._r_b_t;						//Оцениваемое время работы ЛАКБ
;;;682    snmp_lakb_flags1[0]=lakb[0]._flags1;					//Первый флаг состояния ЛАКБ
;;;683    snmp_lakb_flags1[1]=lakb[1]._flags1;					//Первый флаг состояния ЛАКБ
;;;684    snmp_lakb_flags2[0]=lakb[0]._flags2;					//Второй флаг состояния ЛАКБ
;;;685    snmp_lakb_flags2[1]=lakb[1]._flags2;					//Второй флаг состояния ЛАКБ */
;;;686    
;;;687    //Литиевые батареи
;;;688    snmp_lakb_number[0]=1;								//Номер ЛАКБ
;;;689    snmp_lakb_number[1]=2;								//Номер ЛАКБ
;;;690    snmp_lakb_number[2]=3;								//Номер ЛАКБ
;;;691    snmp_lakb_number[3]=4;								//Номер ЛАКБ
;;;692    snmp_lakb_number[4]=5;								//Номер ЛАКБ
;;;693    snmp_lakb_number[5]=6;								//Номер ЛАКБ
;;;694    snmp_lakb_number[6]=7;								//Номер ЛАКБ
;;;695    
;;;696    for (i=0;i<3;i++)
;;;697    	{
;;;698    	snmp_lakb_voltage[i]=lakb[i]._tot_bat_volt;				//Напряжение ЛАКБ
;;;699    	snmp_lakb_max_cell_voltage[i]=lakb[i]._max_cell_volt;		//Максимальное напряжение ячейки ЛАКБ
;;;700    	snmp_lakb_min_cell_voltage[i]=lakb[i]._min_cell_volt;		//Минимальное напряжение ячейки ЛАКБ
;;;701    	snmp_lakb_max_cell_temperature[i]=lakb[i]._max_cell_temp;	//Максимальная температура ячейки ЛАКБ
;;;702    	//snmp_lakb_max_cell_temperature[1]=lakb[1]._max_cell_temp;	//Максимальная температура ячейки ЛАКБ
;;;703    	snmp_lakb_min_cell_temperature[i]=lakb[i]._min_cell_temp;	//Минимальная температура ячейки ЛАКБ
;;;704    	//snmp_lakb_min_cell_temperature[1]=lakb[1]._min_cell_temp;	//Минимальная температура ячейки ЛАКБ
;;;705    	snmp_lakb_ch_curr[i]=lakb[i]._ch_curr;					//Ток заряда ЛАКБ
;;;706    	//snmp_lakb_ch_curr[1]=lakb[1]._ch_curr;					//Ток заряда ЛАКБ
;;;707    	snmp_lakb_dsch_curr[i]=lakb[i]._dsch_curr;				//Ток разряда ЛАКБ
;;;708    	//snmp_lakb_dsch_curr[1]=lakb[1]._dsch_curr;				//Ток разряда ЛАКБ
;;;709    	snmp_lakb_rat_cap[i]=lakb[i]._rat_cap;					//Номинальная емкость ЛАКБ
;;;710    	//snmp_lakb_rat_cap[1]=lakb[1]._rat_cap;					//Номинальная емкость ЛАКБ
;;;711    	snmp_lakb_soh[i]=lakb[i]._s_o_h;						//Остаточная емкость ЛАКБ
;;;712    	//snmp_lakb_soh[1]=lakb[1]._s_o_h;						//Остаточная емкость ЛАКБ
;;;713    	snmp_lakb_soc[i]=lakb[i]._s_o_c;						//Заряд ЛАКБ
;;;714    	//snmp_lakb_soc[1]=lakb[1]._s_o_c;						//Заряд ЛАКБ
;;;715    	snmp_lakb_cclv[i]=lakb[i]._c_c_l_v;  					//Максимальный ток заряда ЛАКБ
;;;716    	//snmp_lakb_cclv[1]=lakb[1]._c_c_l_v;  					//Максимальный ток заряда ЛАКБ
;;;717    	snmp_lakb_rbt[i]=lakb[i]._r_b_t;						//Оцениваемое время работы ЛАКБ
;;;718    	//snmp_lakb_rbt[1]=lakb[1]._r_b_t;						//Оцениваемое время работы ЛАКБ
;;;719    	snmp_lakb_flags1[i]=lakb[i]._flags1;					//Первый флаг состояния ЛАКБ
;;;720    	//snmp_lakb_flags1[1]=lakb[1]._flags1;					//Первый флаг состояния ЛАКБ
;;;721    	snmp_lakb_flags2[i]=lakb[i]._flags2;					//Второй флаг состояния ЛАКБ
;;;722    	//snmp_lakb_flags2[1]=lakb[1]._flags2;					//Второй флаг состояния ЛАКБ
;;;723    
;;;724    	snmp_lakb_cell_temperature_1[i]= lakb[i]._cell_temp_1;
;;;725    	snmp_lakb_cell_temperature_2[i]= lakb[i]._cell_temp_2;
;;;726    	snmp_lakb_cell_temperature_3[i]= lakb[i]._cell_temp_3;
;;;727    	snmp_lakb_cell_temperature_4[i]= lakb[i]._cell_temp_4;
;;;728    	snmp_lakb_cell_temperature_ambient[i]=lakb[i]._cell_temp_ambient;
;;;729    	snmp_lakb_cell_temperature_power[i]=lakb[i]._cell_temp_power;
;;;730    	}
;;;731    
;;;732    for (i=0;i<7;i++)
;;;733    {
;;;734    /*
;;;735    snmp_lakb_damp1[i][0]=ABCDEF[(lakb_damp[i][0])>>4];			//Дамп
;;;736    snmp_lakb_damp1[i][1]=ABCDEF[(lakb_damp[i][0])&0x0f];			//Дамп
;;;737    snmp_lakb_damp1[i][2]=' ';
;;;738    snmp_lakb_damp1[i][3]=ABCDEF[(lakb_damp[i][1])>>4];			//Дамп
;;;739    snmp_lakb_damp1[i][4]=ABCDEF[(lakb_damp[i][1])&0x0f];			//Дамп
;;;740    snmp_lakb_damp1[i][5]=' ';
;;;741    snmp_lakb_damp1[i][6]=ABCDEF[(lakb_damp[i][2])>>4];			//Дамп
;;;742    snmp_lakb_damp1[i][7]=ABCDEF[(lakb_damp[i][2])&0x0f];			//Дамп
;;;743    snmp_lakb_damp1[i][8]=' ';
;;;744    snmp_lakb_damp1[i][9]=ABCDEF[(lakb_damp[i][3])>>4];			//Дамп
;;;745    snmp_lakb_damp1[i][10]=ABCDEF[(lakb_damp[i][3])&0x0f];			//Дамп
;;;746    snmp_lakb_damp1[i][11]=' ';
;;;747    snmp_lakb_damp1[i][12]=ABCDEF[(lakb_damp[i][4])>>4];			//Дамп
;;;748    snmp_lakb_damp1[i][13]=ABCDEF[(lakb_damp[i][4])&0x0f];			//Дамп
;;;749    snmp_lakb_damp1[i][14]=' '; 
;;;750    snmp_lakb_damp1[i][15]=ABCDEF[(lakb_damp[i][5])>>4];			//Дамп
;;;751    snmp_lakb_damp1[i][16]=ABCDEF[(lakb_damp[i][5])&0x0f];			//Дамп
;;;752    snmp_lakb_damp1[i][17]=' ';
;;;753    snmp_lakb_damp1[i][18]=ABCDEF[(lakb_damp[i][6])>>4];			//Дамп
;;;754    snmp_lakb_damp1[i][19]=ABCDEF[(lakb_damp[i][6])&0x0f];			//Дамп
;;;755    snmp_lakb_damp1[i][20]=' ';
;;;756    snmp_lakb_damp1[i][21]=ABCDEF[(lakb_damp[i][7])>>4];			//Дамп
;;;757    snmp_lakb_damp1[i][22]=ABCDEF[(lakb_damp[i][7])&0x0f];			//Дамп
;;;758    snmp_lakb_damp1[i][23]=' ';
;;;759    snmp_lakb_damp1[i][24]=ABCDEF[(lakb_damp[i][8])>>4];			//Дамп
;;;760    snmp_lakb_damp1[i][25]=ABCDEF[(lakb_damp[i][8])&0x0f];			//Дамп
;;;761    snmp_lakb_damp1[i][26]=' ';
;;;762    snmp_lakb_damp1[i][27]=ABCDEF[(lakb_damp[i][9])>>4];			//Дамп
;;;763    snmp_lakb_damp1[i][28]=ABCDEF[(lakb_damp[i][9])&0x0f];			//Дамп
;;;764    snmp_lakb_damp1[i][29]=0; 
;;;765    
;;;766    snmp_lakb_damp1[i][30]=ABCDEF[(lakb_damp[i][10])>>4];			//Дамп
;;;767    snmp_lakb_damp1[i][31]=ABCDEF[(lakb_damp[i][10])&0x0f];			//Дамп
;;;768    snmp_lakb_damp1[i][32]=' ';
;;;769    snmp_lakb_damp1[i][33]=ABCDEF[(lakb_damp[i][11])>>4];			//Дамп
;;;770    snmp_lakb_damp1[i][34]=ABCDEF[(lakb_damp[i][11])&0x0f];			//Дамп
;;;771    snmp_lakb_damp1[i][35]=' ';
;;;772    snmp_lakb_damp1[i][36]=ABCDEF[(lakb_damp[i][12])>>4];			//Дамп
;;;773    snmp_lakb_damp1[i][37]=ABCDEF[(lakb_damp[i][12])&0x0f];			//Дамп
;;;774    snmp_lakb_damp1[i][38]=' ';
;;;775    snmp_lakb_damp1[i][39]=ABCDEF[(lakb_damp[i][13])>>4];			//Дамп
;;;776    snmp_lakb_damp1[i][40]=ABCDEF[(lakb_damp[i][13])&0x0f];			//Дамп
;;;777    snmp_lakb_damp1[i][41]=' ';
;;;778    snmp_lakb_damp1[i][42]=ABCDEF[(lakb_damp[i][14])>>4];			//Дамп
;;;779    snmp_lakb_damp1[i][43]=ABCDEF[(lakb_damp[i][14])&0x0f];			//Дамп
;;;780    snmp_lakb_damp1[i][44]=' '; 
;;;781    snmp_lakb_damp1[i][45]=ABCDEF[(lakb_damp[i][15])>>4];			//Дамп
;;;782    snmp_lakb_damp1[i][46]=ABCDEF[(lakb_damp[i][15])&0x0f];			//Дамп
;;;783    snmp_lakb_damp1[i][47]=' ';
;;;784    snmp_lakb_damp1[i][48]=ABCDEF[(lakb_damp[i][16])>>4];			//Дамп
;;;785    snmp_lakb_damp1[i][49]=ABCDEF[(lakb_damp[i][16])&0x0f];			//Дамп
;;;786    snmp_lakb_damp1[i][50]=' ';
;;;787    snmp_lakb_damp1[i][51]=ABCDEF[(lakb_damp[i][17])>>4];			//Дамп
;;;788    snmp_lakb_damp1[i][52]=ABCDEF[(lakb_damp[i][17])&0x0f];			//Дамп
;;;789    snmp_lakb_damp1[i][53]=' ';
;;;790    snmp_lakb_damp1[i][54]=ABCDEF[(lakb_damp[i][18])>>4];			//Дамп
;;;791    snmp_lakb_damp1[i][55]=ABCDEF[(lakb_damp[i][18])&0x0f];			//Дамп
;;;792    snmp_lakb_damp1[i][56]=' ';
;;;793    snmp_lakb_damp1[i][57]=ABCDEF[(lakb_damp[i][19])>>4];			//Дамп
;;;794    snmp_lakb_damp1[i][58]=ABCDEF[(lakb_damp[i][19])&0x0f];			//Дамп
;;;795    snmp_lakb_damp1[i][59]=0; 
;;;796    
;;;797    
;;;798    snmp_lakb_damp1[i][60]=ABCDEF[(lakb_damp[i][20])>>4];			//Дамп
;;;799    snmp_lakb_damp1[i][61]=ABCDEF[(lakb_damp[i][20])&0x0f];			//Дамп
;;;800    snmp_lakb_damp1[i][62]=' ';
;;;801    snmp_lakb_damp1[i][63]=ABCDEF[(lakb_damp[i][21])>>4];			//Дамп
;;;802    snmp_lakb_damp1[i][64]=ABCDEF[(lakb_damp[i][21])&0x0f];			//Дамп
;;;803    snmp_lakb_damp1[i][65]=' ';
;;;804    snmp_lakb_damp1[i][66]=ABCDEF[(lakb_damp[i][22])>>4];			//Дамп
;;;805    snmp_lakb_damp1[i][67]=ABCDEF[(lakb_damp[i][22])&0x0f];			//Дамп
;;;806    snmp_lakb_damp1[i][68]=' ';
;;;807    snmp_lakb_damp1[i][69]=ABCDEF[(lakb_damp[i][23])>>4];			//Дамп
;;;808    snmp_lakb_damp1[i][70]=ABCDEF[(lakb_damp[i][23])&0x0f];			//Дамп
;;;809    snmp_lakb_damp1[i][71]=' ';
;;;810    snmp_lakb_damp1[i][72]=ABCDEF[(lakb_damp[i][24])>>4];			//Дамп
;;;811    snmp_lakb_damp1[i][73]=ABCDEF[(lakb_damp[i][24])&0x0f];			//Дамп
;;;812    snmp_lakb_damp1[i][74]=' '; 
;;;813    snmp_lakb_damp1[i][75]=ABCDEF[(lakb_damp[i][25])>>4];			//Дамп
;;;814    snmp_lakb_damp1[i][76]=ABCDEF[(lakb_damp[i][25])&0x0f];			//Дамп
;;;815    snmp_lakb_damp1[i][77]=' ';
;;;816    snmp_lakb_damp1[i][78]=ABCDEF[(lakb_damp[i][26])>>4];			//Дамп
;;;817    snmp_lakb_damp1[i][79]=ABCDEF[(lakb_damp[i][26])&0x0f];			//Дамп
;;;818    snmp_lakb_damp1[i][80]=' ';
;;;819    snmp_lakb_damp1[i][81]=ABCDEF[(lakb_damp[i][27])>>4];			//Дамп
;;;820    snmp_lakb_damp1[i][82]=ABCDEF[(lakb_damp[i][27])&0x0f];			//Дамп
;;;821    snmp_lakb_damp1[i][83]=' ';
;;;822    snmp_lakb_damp1[i][84]=ABCDEF[(lakb_damp[i][28])>>4];			//Дамп
;;;823    snmp_lakb_damp1[i][85]=ABCDEF[(lakb_damp[i][28])&0x0f];			//Дамп
;;;824    snmp_lakb_damp1[i][86]=' ';
;;;825    snmp_lakb_damp1[i][87]=ABCDEF[(lakb_damp[i][29])>>4];			//Дамп
;;;826    snmp_lakb_damp1[i][88]=ABCDEF[(lakb_damp[i][29])&0x0f];			//Дамп
;;;827    snmp_lakb_damp1[i][89]=0;
;;;828    
;;;829    
;;;830    snmp_lakb_damp1[i][90]=ABCDEF[(lakb_damp[i][30])>>4];			//Дамп
;;;831    snmp_lakb_damp1[i][91]=ABCDEF[(lakb_damp[i][30])&0x0f];			//Дамп
;;;832    snmp_lakb_damp1[i][92]=' ';
;;;833    snmp_lakb_damp1[i][93]=ABCDEF[(lakb_damp[i][31])>>4];			//Дамп
;;;834    snmp_lakb_damp1[i][94]=ABCDEF[(lakb_damp[i][31])&0x0f];			//Дамп
;;;835    snmp_lakb_damp1[i][95]=' ';
;;;836    snmp_lakb_damp1[i][96]=ABCDEF[(lakb_damp[i][32])>>4];			//Дамп
;;;837    snmp_lakb_damp1[i][97]=ABCDEF[(lakb_damp[i][32])&0x0f];			//Дамп
;;;838    snmp_lakb_damp1[i][98]=' ';
;;;839    snmp_lakb_damp1[i][99]=ABCDEF[(lakb_damp[i][33])>>4];			//Дамп
;;;840    snmp_lakb_damp1[i][100]=ABCDEF[(lakb_damp[i][33])&0x0f];			//Дамп
;;;841    snmp_lakb_damp1[i][101]=' ';
;;;842    snmp_lakb_damp1[i][102]=ABCDEF[(lakb_damp[i][34])>>4];			//Дамп
;;;843    snmp_lakb_damp1[i][103]=ABCDEF[(lakb_damp[i][34])&0x0f];			//Дамп
;;;844    snmp_lakb_damp1[i][104]=' '; 
;;;845    snmp_lakb_damp1[i][105]=ABCDEF[(lakb_damp[i][35])>>4];			//Дамп
;;;846    snmp_lakb_damp1[i][106]=ABCDEF[(lakb_damp[i][35])&0x0f];			//Дамп
;;;847    snmp_lakb_damp1[i][107]=' ';
;;;848    snmp_lakb_damp1[i][108]=ABCDEF[(lakb_damp[i][36])>>4];			//Дамп
;;;849    snmp_lakb_damp1[i][109]=ABCDEF[(lakb_damp[i][36])&0x0f];			//Дамп
;;;850    snmp_lakb_damp1[i][110]=' ';
;;;851    snmp_lakb_damp1[i][111]=ABCDEF[(lakb_damp[i][37])>>4];			//Дамп
;;;852    snmp_lakb_damp1[i][112]=ABCDEF[(lakb_damp[i][37])&0x0f];			//Дамп
;;;853    snmp_lakb_damp1[i][113]=' ';
;;;854    snmp_lakb_damp1[i][114]=ABCDEF[(lakb_damp[i][38])>>4];			//Дамп
;;;855    snmp_lakb_damp1[i][115]=ABCDEF[(lakb_damp[i][38])&0x0f];			//Дамп
;;;856    snmp_lakb_damp1[i][116]=' ';
;;;857    snmp_lakb_damp1[i][117]=ABCDEF[(lakb_damp[i][39])>>4];			//Дамп
;;;858    snmp_lakb_damp1[i][118]=ABCDEF[(lakb_damp[i][39])&0x0f];			//Дамп
;;;859    snmp_lakb_damp1[i][119]=0; 
;;;860     
;;;861    
;;;862    snmp_lakb_damp1[i][120]=ABCDEF[(lakb_damp[i][40])>>4];			//Дамп
;;;863    snmp_lakb_damp1[i][121]=ABCDEF[(lakb_damp[i][40])&0x0f];			//Дамп
;;;864    snmp_lakb_damp1[i][122]=' ';
;;;865    snmp_lakb_damp1[i][123]=ABCDEF[(lakb_damp[i][41])>>4];			//Дамп
;;;866    snmp_lakb_damp1[i][124]=ABCDEF[(lakb_damp[i][41])&0x0f];			//Дамп
;;;867    snmp_lakb_damp1[i][125]=' ';
;;;868    snmp_lakb_damp1[i][126]=ABCDEF[(lakb_damp[i][42])>>4];			//Дамп
;;;869    snmp_lakb_damp1[i][127]=ABCDEF[(lakb_damp[i][42])&0x0f];			//Дамп
;;;870    snmp_lakb_damp1[i][128]=' ';
;;;871    snmp_lakb_damp1[i][129]=ABCDEF[(lakb_damp[i][43])>>4];			//Дамп
;;;872    snmp_lakb_damp1[i][130]=ABCDEF[(lakb_damp[i][43])&0x0f];			//Дамп
;;;873    snmp_lakb_damp1[i][131]=' ';
;;;874    snmp_lakb_damp1[i][132]=ABCDEF[(lakb_damp[i][44])>>4];			//Дамп
;;;875    snmp_lakb_damp1[i][133]=ABCDEF[(lakb_damp[i][44])&0x0f];			//Дамп
;;;876    snmp_lakb_damp1[i][134]=' '; 
;;;877    snmp_lakb_damp1[i][135]=ABCDEF[(lakb_damp[i][45])>>4];			//Дамп
;;;878    snmp_lakb_damp1[i][136]=ABCDEF[(lakb_damp[i][45])&0x0f];			//Дамп
;;;879    snmp_lakb_damp1[i][137]=' ';
;;;880    snmp_lakb_damp1[i][138]=ABCDEF[(lakb_damp[i][46])>>4];			//Дамп
;;;881    snmp_lakb_damp1[i][139]=ABCDEF[(lakb_damp[i][46])&0x0f];			//Дамп
;;;882    snmp_lakb_damp1[i][140]=' ';
;;;883    snmp_lakb_damp1[i][141]=ABCDEF[(lakb_damp[i][47])>>4];			//Дамп
;;;884    snmp_lakb_damp1[i][142]=ABCDEF[(lakb_damp[i][47])&0x0f];			//Дамп
;;;885    snmp_lakb_damp1[i][143]=' ';
;;;886    snmp_lakb_damp1[i][144]=ABCDEF[(lakb_damp[i][48])>>4];			//Дамп
;;;887    snmp_lakb_damp1[i][145]=ABCDEF[(lakb_damp[i][48])&0x0f];			//Дамп
;;;888    snmp_lakb_damp1[i][146]=' ';
;;;889    snmp_lakb_damp1[i][147]=ABCDEF[(lakb_damp[i][49])>>4];			//Дамп
;;;890    snmp_lakb_damp1[i][148]=ABCDEF[(lakb_damp[i][49])&0x0f];			//Дамп
;;;891    snmp_lakb_damp1[i][149]=0;  */
;;;892    }
;;;893    
;;;894    #ifdef UKU_TELECORE2017
;;;895    snmp_warm_sign=0;
;;;896    if(TELECORE2017_KLIMAT_WARM_SIGNAL==0) snmp_warm_sign=2;
;;;897    else if(TELECORE2017_KLIMAT_WARM_SIGNAL==1) snmp_warm_sign=1;
;;;898    snmp_cool_sign=0;
;;;899    if(TELECORE2017_KLIMAT_VENT_SIGNAL==0) snmp_cool_sign=2;
;;;900    else if(TELECORE2017_KLIMAT_VENT_SIGNAL==1) snmp_cool_sign=1;
;;;901    snmp_warm_on_temper=(signed char)TELECORE2017_KLIMAT_WARM_ON; 
;;;902    snmp_warm_off_temper=(signed char)TELECORE2017_KLIMAT_WARM_OFF;
;;;903    snmp_warm_q=(signed char)TELECORE2017_KLIMAT_CAP;	
;;;904    snmp_cool_20_temper=(signed char)TELECORE2017_KLIMAT_VENT_ON20;
;;;905    snmp_cool_40_temper=(signed char)TELECORE2017_KLIMAT_VENT_ON40;
;;;906    snmp_cool_60_temper=(signed char)TELECORE2017_KLIMAT_VENT_ON60;
;;;907    snmp_cool_80_temper=(signed char)TELECORE2017_KLIMAT_VENT_ON80;
;;;908    snmp_cool_100_temper=(signed char)TELECORE2017_KLIMAT_VENT_ON100;
;;;909    snmp_cool_20_dtemper=(signed char)TELECORE2017_KLIMAT_DVENT_ON20;
;;;910    snmp_cool_40_dtemper=(signed char)TELECORE2017_KLIMAT_DVENT_ON40;
;;;911    snmp_cool_60_dtemper=(signed char)TELECORE2017_KLIMAT_DVENT_ON60;
;;;912    snmp_cool_80_dtemper=(signed char)TELECORE2017_KLIMAT_DVENT_ON80;
;;;913    snmp_cool_100_dtemper=(signed char)TELECORE2017_KLIMAT_DVENT_ON100;
;;;914    snmp_warm_stat=0;
;;;915    if(warm_stat_k==wsON) snmp_warm_stat=1;
;;;916    #endif
;;;917    }
;;;918    //-----------------------------------------------
                          ENDP


                          AREA ||area_number.5||, CODE, READONLY, ALIGN=1

                          EXPORTAS ||area_number.5||, ||.text||
                  snmp_up_charge_koef_write PROC
;;;259    //-----------------------------------------------
;;;260    void snmp_data (void) 
000000  4770              BX       lr
;;;261    {
;;;262    char i;
;;;263    
;;;264    snmp_mains_power_voltage=net_U;
;;;265    #ifdef UKU_220_IPS_TERMOKOMPENSAT
;;;266    snmp_mains_power_frequency=net_F3;
;;;267    #else
;;;268    snmp_mains_power_frequency=net_F;
;;;269    #endif
;;;270    snmp_mains_power_voltage_phaseA=net_Ua;
;;;271    snmp_mains_power_voltage_phaseB=net_Ub;
;;;272    snmp_mains_power_voltage_phaseC=net_Uc;
;;;273    
;;;274    /*
;;;275    snmp_mains_power_status=0; 
;;;276    #if(UKU_VERSION==900)
;;;277    snmp_mains_power_status=2;
;;;278    #endif
;;;279    if(St&0x01)snmp_mains_power_status|=0x01;
;;;280    if(St&0x01)snmp_mains_power_alarm=1;
;;;281    
;;;282    
;;;283    
;;;284    
;;;285    
;;;286    
;;;287    for(i=0;i<snmp_numofevents;i++)event2snmp(i);
;;;288    //snmp_bpsnumber[0]=1;
;;;289    //snmp_bpsnumber[1]=2;
;;;290    
;;;291    snmp_sernum=AUSW_MAIN_NUMBER;
;;;292    snmp_sernum_lsb=0x1122;
;;;293    snmp_sernum_msb=0x3344;
;;;294    snmp_device_code=AUSW_MAIN;
;;;295    
;;;296    //memcpy(snmp_location,"lkhg;la",);
;;;297    
;;;298    
;;;299    snmp_numofbat=1;
;;;300    
;;;301    */
;;;302    
;;;303    snmp_load_voltage=load_U;
;;;304    snmp_load_current=load_I;
;;;305    snmp_numofbat=NUMBAT;
;;;306    snmp_numofbps=NUMIST;
;;;307    snmp_numofinv=NUMINV;
;;;308    snmp_numofavt=NUMAVT;
;;;309    snmp_numofdt=NUMDT;
;;;310    snmp_numofsk=NUMSK;
;;;311    snmp_numofevents=lc640_read_int(CNT_EVENT_LOG);
;;;312    
;;;313    snmp_energy_vvod_phase_a=Uvv_eb2[0];
;;;314    snmp_energy_vvod_phase_b=Uvv_eb2[1];
;;;315    snmp_energy_vvod_phase_c=Uvv_eb2[2];
;;;316    snmp_energy_pes_phase_a=Upes_eb2[0];
;;;317    snmp_energy_pes_phase_b=Upes_eb2[1];
;;;318    snmp_energy_pes_phase_c=Upes_eb2[2];
;;;319    
;;;320    #ifdef UKU_KONTUR
;;;321    snmp_energy_vvod_phase_a=Uvv0;
;;;322    snmp_energy_pes_phase_a=Uvv[1];
;;;323    #endif
;;;324    
;;;325    snmp_energy_total_energy=power_summary;
;;;326    snmp_energy_current_energy=power_current;
;;;327    snmp_energy_input_voltage=net_U;
;;;328    
;;;329    snmp_bat_number[0]=1;
;;;330    snmp_bat_voltage[0]=bat[0]._Ub;
;;;331    snmp_bat_part_voltage[0]=bat[0]._Ubm;
;;;332    snmp_bat_current[0]=bat[0]._Ib;
;;;333    
;;;334    #ifdef UKU_220_IPS_TERMOKOMPENSAT
;;;335    if(((AUSW_MAIN==22063)||(AUSW_MAIN==22023))&&(bps[8]._device==dIBAT_METR))
;;;336    	{
;;;337    	snmp_bat_current[0]=Ib_ips_termokompensat;
;;;338    	}
;;;339    #endif
;;;340    
;;;341    snmp_bat_temperature[0]=bat[0]._Tb;
;;;342    if(BAT_C_REAL[0]==0x5555)snmp_bat_capacity[0]=BAT_C_NOM[0];
;;;343    else snmp_bat_capacity[0]=BAT_C_REAL[0];
;;;344    snmp_bat_charge[0]=bat[0]._zar;
;;;345    snmp_bat_status[0]=bat[0]._av;
;;;346    if(BAT_IS_ON[0]!=bisON)snmp_bat_status[0]=0xff;
;;;347    
;;;348    snmp_bat_number[1]=2;
;;;349    snmp_bat_voltage[1]=bat[1]._Ub;
;;;350    snmp_bat_part_voltage[1]=bat[1]._Ubm;
;;;351    snmp_bat_current[1]=bat[1]._Ib;
;;;352    snmp_bat_temperature[1]=bat[1]._Tb;
;;;353    if(BAT_C_REAL[1]==0x5555)snmp_bat_capacity[1]=BAT_C_NOM[1];
;;;354    else snmp_bat_capacity[1]=BAT_C_REAL[1];
;;;355    snmp_bat_charge[1]=bat[1]._zar;
;;;356    snmp_bat_status[1]=bat[1]._av;
;;;357    if(BAT_IS_ON[1]!=bisON)snmp_bat_status[1]=0xff;
;;;358    
;;;359    
;;;360    
;;;361    snmp_bps_number[0]=1;
;;;362    snmp_bps_voltage[0]=bps[0]._Uii;
;;;363    snmp_bps_current[0]=bps[0]._Ii;
;;;364    snmp_bps_temperature[0]=bps[0]._Ti;
;;;365    snmp_bps_stat[0]=bps[0]._av;
;;;366    if(!(NUMIST>0))snmp_bps_stat[0]=0xff;												//Байт состояния БПСа.
;;;367    
;;;368    /*if(St_[0]&(1<<2))snmp_bps_stat[0]=(1<<3); 							//авария по Umin
;;;369    else if(St_[0]&(1<<3))snmp_bps_stat[0]=(1<<2); 						//авария по Umax
;;;370    else if(bps[0]._av&(1<<0))snmp_bps_stat[0]=(1<<1); 						//авария по Tmax
;;;371    else if(St_[0]&(1<<5))snmp_bps_stat[0]=(1<<5); 						//заблокирован
;;;372    else if((!(St_[0]&0x3c))&&(!St&0x01)&&(!OFFBP1))snmp_bps_stat[0]=1; 		//Работает
;;;373    */
;;;374    
;;;375    snmp_bps_number[1]=2;
;;;376    snmp_bps_voltage[1]=bps[1]._Uii;
;;;377    snmp_bps_current[1]=bps[1]._Ii;
;;;378    snmp_bps_temperature[1]=bps[1]._Ti;
;;;379    snmp_bps_stat[1]=bps[1]._av;
;;;380    if(!(NUMIST>1))snmp_bps_stat[1]=0xff;												//Байт состояния БПСа.
;;;381    /*if(St_[1]&(1<<2))snmp_bps_stat[1]=(1<<3); 							//авария по Umin
;;;382    else if(St_[1]&(1<<3))snmp_bps_stat[1]=(1<<2); 						//авария по Umax
;;;383    else if(St_[1]&(1<<4))snmp_bps_stat[1]=(1<<1); 						//авария по Tmax
;;;384    else if(St_[1]&(1<<5))snmp_bps_stat[1]=(1<<5); 						//заблокирован
;;;385    else if((!(St_[1]&0x3c))&&(!St&0x01)&&(!OFFBP2))snmp_bps_stat[1]=1; 		//Работает
;;;386    */
;;;387    
;;;388    snmp_bps_number[2]=3;
;;;389    snmp_bps_voltage[2]=bps[2]._Uii;
;;;390    snmp_bps_current[2]=bps[2]._Ii;
;;;391    snmp_bps_temperature[2]=bps[2]._Ti;
;;;392    snmp_bps_stat[2]=bps[2]._av;
;;;393    if(!(NUMIST>2))snmp_bps_stat[2]=0xff;
;;;394    
;;;395    snmp_bps_number[3]=4;
;;;396    snmp_bps_voltage[3]=bps[3]._Uii;
;;;397    snmp_bps_current[3]=bps[3]._Ii;
;;;398    snmp_bps_temperature[3]=bps[3]._Ti;
;;;399    snmp_bps_stat[3]=bps[3]._av;
;;;400    if(!(NUMIST>3))snmp_bps_stat[3]=0xff;
;;;401    
;;;402    snmp_bps_number[4]=5;
;;;403    snmp_bps_voltage[4]=bps[4]._Uii;
;;;404    snmp_bps_current[4]=bps[4]._Ii;
;;;405    snmp_bps_temperature[4]=bps[4]._Ti;
;;;406    snmp_bps_stat[4]=bps[4]._av;
;;;407    if(!(NUMIST>4))snmp_bps_stat[4]=0xff;
;;;408    
;;;409    snmp_bps_number[5]=6;
;;;410    snmp_bps_voltage[5]=bps[5]._Uii;
;;;411    snmp_bps_current[5]=bps[5]._Ii;
;;;412    snmp_bps_temperature[5]=bps[5]._Ti;
;;;413    snmp_bps_stat[5]=bps[5]._av;
;;;414    if(!(NUMIST>5))snmp_bps_stat[5]=0xff;
;;;415    
;;;416    snmp_bps_number[6]=7;
;;;417    snmp_bps_voltage[6]=bps[6]._Uii;
;;;418    snmp_bps_current[6]=bps[6]._Ii;
;;;419    snmp_bps_temperature[6]=bps[6]._Ti;
;;;420    snmp_bps_stat[6]=bps[6]._av;
;;;421    if(!(NUMIST>6))snmp_bps_stat[6]=0xff;
;;;422    
;;;423    snmp_bps_number[7]=8;
;;;424    snmp_bps_voltage[7]=bps[7]._Uii;
;;;425    snmp_bps_current[7]=bps[7]._Ii;
;;;426    snmp_bps_temperature[7]=bps[7]._Ti;
;;;427    snmp_bps_stat[7]=bps[7]._av;
;;;428    if(!(NUMIST>7))snmp_bps_stat[7]=0xff;
;;;429    
;;;430    
;;;431    
;;;432    snmp_inv_number[0]=1;
;;;433    snmp_inv_voltage[0]=inv[0]._Uio;
;;;434    snmp_inv_current[0]=inv[0]._Ii;
;;;435    snmp_inv_temperature[0]=inv[0]._Ti;
;;;436    snmp_inv_stat[0]=inv[0]._flags_tm;
;;;437    
;;;438    snmp_inv_number[1]=2;
;;;439    snmp_inv_voltage[1]=inv[1]._Uio;
;;;440    snmp_inv_current[1]=inv[1]._Ii;
;;;441    snmp_inv_temperature[1]=inv[1]._Ti;
;;;442    snmp_inv_stat[1]=inv[1]._flags_tm;
;;;443    
;;;444    snmp_inv_number[2]=3;
;;;445    snmp_inv_voltage[2]=inv[2]._Uio;
;;;446    snmp_inv_current[2]=inv[2]._Ii;
;;;447    snmp_inv_temperature[2]=inv[2]._Ti;
;;;448    snmp_inv_stat[2]=inv[2]._flags_tm;
;;;449    
;;;450    
;;;451    
;;;452    
;;;453    					  
;;;454    snmp_sk_number[0]=1;
;;;455    memcpy(&snmp_sk_name[0][0],"Door",10);
;;;456    if(sk_stat[0]==ssON) snmp_sk_aktiv[0]=1;
;;;457    else snmp_sk_aktiv[0]=0;
;;;458    if(!SK_SIGN[0])snmp_sk_alarm_aktiv[0]=1;
;;;459    else snmp_sk_alarm_aktiv[0]=0;
;;;460    if(sk_av_stat[0]==sasON)	snmp_sk_alarm[0]=1;
;;;461    else                     snmp_sk_alarm[0]=0;
;;;462    
;;;463    
;;;464    snmp_sk_number[1]=2;
;;;465    memcpy(&snmp_sk_name[1][0],"Smoke",10);
;;;466    if(sk_stat[1]==ssON) snmp_sk_aktiv[1]=1;
;;;467    else snmp_sk_aktiv[1]=0;
;;;468    if(!SK_SIGN[1])snmp_sk_alarm_aktiv[1]=1;
;;;469    else snmp_sk_alarm_aktiv[1]=0;
;;;470    if(sk_av_stat[1]==sasON)	snmp_sk_alarm[1]=1;
;;;471    else                     snmp_sk_alarm[1]=0;
;;;472    
;;;473    snmp_sk_number[2]=3;
;;;474    memcpy(&snmp_sk_name[2][0],"Shock",10);
;;;475    if(sk_stat[2]==ssON) snmp_sk_aktiv[2]=1;
;;;476    else snmp_sk_aktiv[2]=0;
;;;477    if(!SK_SIGN[2])snmp_sk_alarm_aktiv[2]=1;
;;;478    else snmp_sk_alarm_aktiv[2]=0;
;;;479    if(sk_av_stat[2]==sasON)	snmp_sk_alarm[2]=1;
;;;480    else                     snmp_sk_alarm[2]=0;
;;;481    
;;;482    snmp_sk_number[3]=4;
;;;483    memcpy(&snmp_sk_name[3][0],"     ",10);
;;;484    if(sk_stat[3]==ssON) snmp_sk_aktiv[3]=1;
;;;485    else snmp_sk_aktiv[3]=0;
;;;486    if(!SK_SIGN[3])snmp_sk_alarm_aktiv[3]=1;
;;;487    else snmp_sk_alarm_aktiv[3]=0;
;;;488    if(sk_av_stat[3]==sasON)	snmp_sk_alarm[3]=1;
;;;489    else                     snmp_sk_alarm[3]=0;
;;;490    
;;;491    
;;;492    if(makb[0]._cnt>8) snmp_makb_connect_status[0]=1;
;;;493    else if(makb[0]._cnt<2) snmp_makb_connect_status[0]=0;
;;;494    if(makb[1]._cnt>8) snmp_makb_connect_status[1]=1;
;;;495    else if(makb[1]._cnt<2) snmp_makb_connect_status[1]=0;
;;;496    if(makb[2]._cnt>8) snmp_makb_connect_status[2]=1;
;;;497    else if(makb[2]._cnt<2) snmp_makb_connect_status[2]=0;
;;;498    if(makb[3]._cnt>8) snmp_makb_connect_status[3]=1;
;;;499    else if(makb[3]._cnt<2) snmp_makb_connect_status[3]=0;
;;;500    
;;;501    snmp_makb_voltage0[0]=makb[0]._Ub[0];
;;;502    snmp_makb_voltage1[0]=makb[0]._Ub[1];
;;;503    snmp_makb_voltage2[0]=makb[0]._Ub[2];
;;;504    snmp_makb_voltage3[0]=makb[0]._Ub[3];
;;;505    snmp_makb_voltage4[0]=makb[0]._Ub[4];
;;;506    snmp_makb_voltage0[1]=makb[1]._Ub[0];
;;;507    snmp_makb_voltage1[1]=makb[1]._Ub[1];
;;;508    snmp_makb_voltage2[1]=makb[1]._Ub[2];
;;;509    snmp_makb_voltage3[1]=makb[1]._Ub[3];
;;;510    snmp_makb_voltage4[1]=makb[1]._Ub[4];
;;;511    snmp_makb_voltage0[2]=makb[2]._Ub[0];
;;;512    snmp_makb_voltage1[2]=makb[2]._Ub[1];
;;;513    snmp_makb_voltage2[2]=makb[2]._Ub[2];
;;;514    snmp_makb_voltage3[2]=makb[2]._Ub[3];
;;;515    snmp_makb_voltage4[2]=makb[2]._Ub[4];
;;;516    snmp_makb_voltage0[3]=makb[3]._Ub[0];
;;;517    snmp_makb_voltage1[3]=makb[3]._Ub[1];
;;;518    snmp_makb_voltage2[3]=makb[3]._Ub[2];
;;;519    snmp_makb_voltage3[3]=makb[3]._Ub[3];
;;;520    snmp_makb_voltage4[3]=makb[3]._Ub[4];
;;;521    
;;;522    snmp_makb_temper0[0]=makb[0]._T[0];
;;;523    snmp_makb_temper1[0]=makb[0]._T[1];
;;;524    snmp_makb_temper2[0]=makb[0]._T[2];
;;;525    snmp_makb_temper3[0]=makb[0]._T[3];
;;;526    snmp_makb_temper4[0]=makb[0]._T[4];
;;;527    snmp_makb_temper0[1]=makb[1]._T[0];
;;;528    snmp_makb_temper1[1]=makb[1]._T[1];
;;;529    snmp_makb_temper2[1]=makb[1]._T[2];
;;;530    snmp_makb_temper3[1]=makb[1]._T[3];
;;;531    snmp_makb_temper4[1]=makb[1]._T[4];
;;;532    snmp_makb_temper0[2]=makb[2]._T[0];
;;;533    snmp_makb_temper1[2]=makb[2]._T[1];
;;;534    snmp_makb_temper2[2]=makb[2]._T[2];
;;;535    snmp_makb_temper3[2]=makb[2]._T[3];
;;;536    snmp_makb_temper4[2]=makb[2]._T[4];
;;;537    snmp_makb_temper0[3]=makb[3]._T[0];
;;;538    snmp_makb_temper1[3]=makb[3]._T[1];
;;;539    snmp_makb_temper2[3]=makb[3]._T[2];
;;;540    snmp_makb_temper3[3]=makb[3]._T[3];
;;;541    snmp_makb_temper4[3]=makb[3]._T[4];
;;;542    
;;;543    snmp_makb_temper0_stat[0]=makb[0]._T_nd[0];
;;;544    snmp_makb_temper1_stat[0]=makb[0]._T_nd[1];
;;;545    snmp_makb_temper2_stat[0]=makb[0]._T_nd[2];
;;;546    snmp_makb_temper3_stat[0]=makb[0]._T_nd[3];
;;;547    snmp_makb_temper4_stat[0]=makb[0]._T_nd[4];
;;;548    snmp_makb_temper0_stat[1]=makb[1]._T_nd[0];
;;;549    snmp_makb_temper1_stat[1]=makb[1]._T_nd[1];
;;;550    snmp_makb_temper2_stat[1]=makb[1]._T_nd[2];
;;;551    snmp_makb_temper3_stat[1]=makb[1]._T_nd[3];
;;;552    snmp_makb_temper4_stat[1]=makb[1]._T_nd[4];
;;;553    snmp_makb_temper0_stat[2]=makb[2]._T_nd[0];
;;;554    snmp_makb_temper1_stat[2]=makb[2]._T_nd[1];
;;;555    snmp_makb_temper2_stat[2]=makb[2]._T_nd[2];
;;;556    snmp_makb_temper3_stat[2]=makb[2]._T_nd[3];
;;;557    snmp_makb_temper4_stat[2]=makb[2]._T_nd[4];
;;;558    snmp_makb_temper0_stat[3]=makb[3]._T_nd[0];
;;;559    snmp_makb_temper1_stat[3]=makb[3]._T_nd[1];
;;;560    snmp_makb_temper2_stat[3]=makb[3]._T_nd[2];
;;;561    snmp_makb_temper3_stat[3]=makb[3]._T_nd[3];
;;;562    snmp_makb_temper4_stat[3]=makb[3]._T_nd[4];
;;;563    
;;;564    
;;;565    snmp_klimat_box_temper=t_box;
;;;566    snmp_klimat_settings_box_alarm=TBOXMAX;
;;;567    snmp_klimat_settings_vent_on=TBOXVENTON;
;;;568    snmp_klimat_settings_vent_off=TBOXVENTOFF;
;;;569    snmp_klimat_settings_warm_on=TBOXWARMON;
;;;570    snmp_klimat_settings_warm_off=TBOXWARMOFF;
;;;571    snmp_klimat_settings_load_on=TLOADENABLE;
;;;572    snmp_klimat_settings_load_off=TLOADDISABLE;
;;;573    snmp_klimat_settings_batt_on=TBATENABLE;
;;;574    snmp_klimat_settings_batt_off=TBATDISABLE;
;;;575    
;;;576    snmp_dt_ext=t_ext[0];
;;;577    snmp_dt_msan=t_ext[1];
;;;578    snmp_dt_epu=t_ext[2];
;;;579    
;;;580    /*
;;;581    snmp_bat_voltage=Ubat;
;;;582    snmp_bat_current=Ibat;
;;;583    snmp_bat_temperature=t_b;
;;;584    if(BAT_C_REAL==0x5555)
;;;585    	{
;;;586    	snmp_bat_capacity=BAT_C_NOM*10;												    11
;;;587    	}
;;;588    else
;;;589    	{
;;;590    	snmp_bat_capacity=BAT_C_REAL;
;;;591    	}
;;;592    snmp_bat_charge=zar_percent;
;;;593    snmp_bat_status=0;
;;;594    if(St&0x02)snmp_bat_status|=0x01;
;;;595    if(Ibat>0)snmp_bat_status|=0x02;
;;;596    
;;;597    
;;;598    if(spc_stat==spc_OFF) snmp_spc_stat=0;
;;;599    else if(spc_stat==spc_KE) snmp_spc_stat=1;
;;;600    else if(spc_stat==spc_VZ) snmp_spc_stat=10;
;;;601    
;;;602    
;;;603    snmp_main_bps=MAIN_IST+1;
;;;604    */
;;;605    snmp_zv_en=ZV_ON;
;;;606    snmp_alarm_auto_disable=AV_OFF_AVT;
;;;607    snmp_bat_test_time=TBAT;
;;;608    snmp_u_max=UMAX;
;;;609    //snmp_u_min=UB20-DU;
;;;610    //snmp_u_0_grad=UB0;
;;;611    //snmp_u_20_grad=UB20;
;;;612    snmp_u_sign=USIGN;
;;;613    snmp_u_min_power=UMN;
;;;614    snmp_u_withouth_bat=U0B;
;;;615    snmp_control_current=IKB;
;;;616    snmp_max_charge_current=IZMAX;
;;;617    snmp_max_current=IMAX;
;;;618    snmp_min_current=IMIN;
;;;619    //snmp_max_current_koef=KIMAX;
;;;620    //snmp_uvz=UVZ;
;;;621    snmp_powerup_psu_timeout=TZAS;
;;;622    snmp_max_temperature=TMAX;
;;;623    snmp_tsign_bat=TBATSIGN; 
;;;624    snmp_tmax_bat=TBATMAX;
;;;625    snmp_tsign_bps=TSIGN;
;;;626    snmp_tmax_bps=TMAX;
;;;627    snmp_bat_part_alarm=UBM_AV; 
;;;628    snmp_power_cnt_adress=POWER_CNT_ADRESS;
;;;629    
;;;630    for(i=0;i<12;i++)
;;;631    	{
;;;632    	snmp_avt_number[i]=i+1;
;;;633    	if(avt_stat[i]==avtOFF)snmp_avt_stat[i]=0;
;;;634    	else snmp_avt_stat[i]=1;
;;;635    	}
;;;636    
;;;637    snmp_dt_number[0]=1;
;;;638    snmp_dt_number[1]=2;
;;;639    snmp_dt_number[2]=3;
;;;640    //snmp_dt_number[3]=4;
;;;641    snmp_dt_temper[0]=t_ext[0];
;;;642    snmp_dt_temper[1]=t_ext[1];
;;;643    snmp_dt_temper[2]=t_ext[2];
;;;644    //snmp_dt_temper[3]=t_ext[3];
;;;645    snmp_dt_error[0]=ND_EXT[0];
;;;646    if(NUMDT<1)snmp_dt_error[0]=0xff;
;;;647    snmp_dt_error[1]=ND_EXT[1];
;;;648    if(NUMDT<2)snmp_dt_error[0]=0xff;
;;;649    snmp_dt_error[2]=ND_EXT[2];
;;;650    if(NUMDT<3)snmp_dt_error[0]=0xff;
;;;651    //snmp_dt_error[3]=ND_EXT[3];
;;;652    if(NUMDT<4)snmp_dt_error[0]=0xff;
;;;653    
;;;654    /*
;;;655    //Литиевые батареи
;;;656    snmp_lakb_number[0]=1;								//Номер ЛАКБ
;;;657    snmp_lakb_number[1]=2;								//Номер ЛАКБ
;;;658    snmp_lakb_voltage[0]=lakb[0]._tot_bat_volt;				//Напряжение ЛАКБ
;;;659    snmp_lakb_voltage[1]=lakb[1]._tot_bat_volt;				//Напряжение ЛАКБ
;;;660    snmp_lakb_max_cell_voltage[0]=lakb[0]._max_cell_volt;		//Максимальное напряжение ячейки ЛАКБ
;;;661    snmp_lakb_max_cell_voltage[1]=lakb[1]._max_cell_volt;		//Максимальное напряжение ячейки ЛАКБ
;;;662    snmp_lakb_min_cell_voltage[0]=lakb[0]._min_cell_volt;		//Минимальное напряжение ячейки ЛАКБ
;;;663    snmp_lakb_min_cell_voltage[1]=lakb[1]._min_cell_volt;		//Минимальное напряжение ячейки ЛАКБ
;;;664    snmp_lakb_max_cell_temperature[0]=lakb[0]._max_cell_temp;	//Максимальная температура ячейки ЛАКБ
;;;665    snmp_lakb_max_cell_temperature[1]=lakb[1]._max_cell_temp;	//Максимальная температура ячейки ЛАКБ
;;;666    snmp_lakb_min_cell_temperature[0]=lakb[0]._min_cell_temp;	//Минимальная температура ячейки ЛАКБ
;;;667    snmp_lakb_min_cell_temperature[1]=lakb[1]._min_cell_temp;	//Минимальная температура ячейки ЛАКБ
;;;668    snmp_lakb_ch_curr[0]=lakb[0]._ch_curr;					//Ток заряда ЛАКБ
;;;669    snmp_lakb_ch_curr[1]=lakb[1]._ch_curr;					//Ток заряда ЛАКБ
;;;670    snmp_lakb_dsch_curr[0]=lakb[0]._dsch_curr;				//Ток разряда ЛАКБ
;;;671    snmp_lakb_dsch_curr[1]=lakb[1]._dsch_curr;				//Ток разряда ЛАКБ
;;;672    snmp_lakb_rat_cap[0]=lakb[0]._rat_cap;					//Номинальная емкость ЛАКБ
;;;673    snmp_lakb_rat_cap[1]=lakb[1]._rat_cap;					//Номинальная емкость ЛАКБ
;;;674    snmp_lakb_soh[0]=lakb[0]._s_o_h;						//Остаточная емкость ЛАКБ
;;;675    snmp_lakb_soh[1]=lakb[1]._s_o_h;						//Остаточная емкость ЛАКБ
;;;676    snmp_lakb_soc[0]=lakb[0]._s_o_c;						//Заряд ЛАКБ
;;;677    snmp_lakb_soc[1]=lakb[1]._s_o_c;						//Заряд ЛАКБ
;;;678    snmp_lakb_cclv[0]=lakb[0]._c_c_l_v;  					//Максимальный ток заряда ЛАКБ
;;;679    snmp_lakb_cclv[1]=lakb[1]._c_c_l_v;  					//Максимальный ток заряда ЛАКБ
;;;680    snmp_lakb_rbt[0]=lakb[0]._r_b_t;						//Оцениваемое время работы ЛАКБ
;;;681    snmp_lakb_rbt[1]=lakb[1]._r_b_t;						//Оцениваемое время работы ЛАКБ
;;;682    snmp_lakb_flags1[0]=lakb[0]._flags1;					//Первый флаг состояния ЛАКБ
;;;683    snmp_lakb_flags1[1]=lakb[1]._flags1;					//Первый флаг состояния ЛАКБ
;;;684    snmp_lakb_flags2[0]=lakb[0]._flags2;					//Второй флаг состояния ЛАКБ
;;;685    snmp_lakb_flags2[1]=lakb[1]._flags2;					//Второй флаг состояния ЛАКБ */
;;;686    
;;;687    //Литиевые батареи
;;;688    snmp_lakb_number[0]=1;								//Номер ЛАКБ
;;;689    snmp_lakb_number[1]=2;								//Номер ЛАКБ
;;;690    snmp_lakb_number[2]=3;								//Номер ЛАКБ
;;;691    snmp_lakb_number[3]=4;								//Номер ЛАКБ
;;;692    snmp_lakb_number[4]=5;								//Номер ЛАКБ
;;;693    snmp_lakb_number[5]=6;								//Номер ЛАКБ
;;;694    snmp_lakb_number[6]=7;								//Номер ЛАКБ
;;;695    
;;;696    for (i=0;i<3;i++)
;;;697    	{
;;;698    	snmp_lakb_voltage[i]=lakb[i]._tot_bat_volt;				//Напряжение ЛАКБ
;;;699    	snmp_lakb_max_cell_voltage[i]=lakb[i]._max_cell_volt;		//Максимальное напряжение ячейки ЛАКБ
;;;700    	snmp_lakb_min_cell_voltage[i]=lakb[i]._min_cell_volt;		//Минимальное напряжение ячейки ЛАКБ
;;;701    	snmp_lakb_max_cell_temperature[i]=lakb[i]._max_cell_temp;	//Максимальная температура ячейки ЛАКБ
;;;702    	//snmp_lakb_max_cell_temperature[1]=lakb[1]._max_cell_temp;	//Максимальная температура ячейки ЛАКБ
;;;703    	snmp_lakb_min_cell_temperature[i]=lakb[i]._min_cell_temp;	//Минимальная температура ячейки ЛАКБ
;;;704    	//snmp_lakb_min_cell_temperature[1]=lakb[1]._min_cell_temp;	//Минимальная температура ячейки ЛАКБ
;;;705    	snmp_lakb_ch_curr[i]=lakb[i]._ch_curr;					//Ток заряда ЛАКБ
;;;706    	//snmp_lakb_ch_curr[1]=lakb[1]._ch_curr;					//Ток заряда ЛАКБ
;;;707    	snmp_lakb_dsch_curr[i]=lakb[i]._dsch_curr;				//Ток разряда ЛАКБ
;;;708    	//snmp_lakb_dsch_curr[1]=lakb[1]._dsch_curr;				//Ток разряда ЛАКБ
;;;709    	snmp_lakb_rat_cap[i]=lakb[i]._rat_cap;					//Номинальная емкость ЛАКБ
;;;710    	//snmp_lakb_rat_cap[1]=lakb[1]._rat_cap;					//Номинальная емкость ЛАКБ
;;;711    	snmp_lakb_soh[i]=lakb[i]._s_o_h;						//Остаточная емкость ЛАКБ
;;;712    	//snmp_lakb_soh[1]=lakb[1]._s_o_h;						//Остаточная емкость ЛАКБ
;;;713    	snmp_lakb_soc[i]=lakb[i]._s_o_c;						//Заряд ЛАКБ
;;;714    	//snmp_lakb_soc[1]=lakb[1]._s_o_c;						//Заряд ЛАКБ
;;;715    	snmp_lakb_cclv[i]=lakb[i]._c_c_l_v;  					//Максимальный ток заряда ЛАКБ
;;;716    	//snmp_lakb_cclv[1]=lakb[1]._c_c_l_v;  					//Максимальный ток заряда ЛАКБ
;;;717    	snmp_lakb_rbt[i]=lakb[i]._r_b_t;						//Оцениваемое время работы ЛАКБ
;;;718    	//snmp_lakb_rbt[1]=lakb[1]._r_b_t;						//Оцениваемое время работы ЛАКБ
;;;719    	snmp_lakb_flags1[i]=lakb[i]._flags1;					//Первый флаг состояния ЛАКБ
;;;720    	//snmp_lakb_flags1[1]=lakb[1]._flags1;					//Первый флаг состояния ЛАКБ
;;;721    	snmp_lakb_flags2[i]=lakb[i]._flags2;					//Второй флаг состояния ЛАКБ
;;;722    	//snmp_lakb_flags2[1]=lakb[1]._flags2;					//Второй флаг состояния ЛАКБ
;;;723    
;;;724    	snmp_lakb_cell_temperature_1[i]= lakb[i]._cell_temp_1;
;;;725    	snmp_lakb_cell_temperature_2[i]= lakb[i]._cell_temp_2;
;;;726    	snmp_lakb_cell_temperature_3[i]= lakb[i]._cell_temp_3;
;;;727    	snmp_lakb_cell_temperature_4[i]= lakb[i]._cell_temp_4;
;;;728    	snmp_lakb_cell_temperature_ambient[i]=lakb[i]._cell_temp_ambient;
;;;729    	snmp_lakb_cell_temperature_power[i]=lakb[i]._cell_temp_power;
;;;730    	}
;;;731    
;;;732    for (i=0;i<7;i++)
;;;733    {
;;;734    /*
;;;735    snmp_lakb_damp1[i][0]=ABCDEF[(lakb_damp[i][0])>>4];			//Дамп
;;;736    snmp_lakb_damp1[i][1]=ABCDEF[(lakb_damp[i][0])&0x0f];			//Дамп
;;;737    snmp_lakb_damp1[i][2]=' ';
;;;738    snmp_lakb_damp1[i][3]=ABCDEF[(lakb_damp[i][1])>>4];			//Дамп
;;;739    snmp_lakb_damp1[i][4]=ABCDEF[(lakb_damp[i][1])&0x0f];			//Дамп
;;;740    snmp_lakb_damp1[i][5]=' ';
;;;741    snmp_lakb_damp1[i][6]=ABCDEF[(lakb_damp[i][2])>>4];			//Дамп
;;;742    snmp_lakb_damp1[i][7]=ABCDEF[(lakb_damp[i][2])&0x0f];			//Дамп
;;;743    snmp_lakb_damp1[i][8]=' ';
;;;744    snmp_lakb_damp1[i][9]=ABCDEF[(lakb_damp[i][3])>>4];			//Дамп
;;;745    snmp_lakb_damp1[i][10]=ABCDEF[(lakb_damp[i][3])&0x0f];			//Дамп
;;;746    snmp_lakb_damp1[i][11]=' ';
;;;747    snmp_lakb_damp1[i][12]=ABCDEF[(lakb_damp[i][4])>>4];			//Дамп
;;;748    snmp_lakb_damp1[i][13]=ABCDEF[(lakb_damp[i][4])&0x0f];			//Дамп
;;;749    snmp_lakb_damp1[i][14]=' '; 
;;;750    snmp_lakb_damp1[i][15]=ABCDEF[(lakb_damp[i][5])>>4];			//Дамп
;;;751    snmp_lakb_damp1[i][16]=ABCDEF[(lakb_damp[i][5])&0x0f];			//Дамп
;;;752    snmp_lakb_damp1[i][17]=' ';
;;;753    snmp_lakb_damp1[i][18]=ABCDEF[(lakb_damp[i][6])>>4];			//Дамп
;;;754    snmp_lakb_damp1[i][19]=ABCDEF[(lakb_damp[i][6])&0x0f];			//Дамп
;;;755    snmp_lakb_damp1[i][20]=' ';
;;;756    snmp_lakb_damp1[i][21]=ABCDEF[(lakb_damp[i][7])>>4];			//Дамп
;;;757    snmp_lakb_damp1[i][22]=ABCDEF[(lakb_damp[i][7])&0x0f];			//Дамп
;;;758    snmp_lakb_damp1[i][23]=' ';
;;;759    snmp_lakb_damp1[i][24]=ABCDEF[(lakb_damp[i][8])>>4];			//Дамп
;;;760    snmp_lakb_damp1[i][25]=ABCDEF[(lakb_damp[i][8])&0x0f];			//Дамп
;;;761    snmp_lakb_damp1[i][26]=' ';
;;;762    snmp_lakb_damp1[i][27]=ABCDEF[(lakb_damp[i][9])>>4];			//Дамп
;;;763    snmp_lakb_damp1[i][28]=ABCDEF[(lakb_damp[i][9])&0x0f];			//Дамп
;;;764    snmp_lakb_damp1[i][29]=0; 
;;;765    
;;;766    snmp_lakb_damp1[i][30]=ABCDEF[(lakb_damp[i][10])>>4];			//Дамп
;;;767    snmp_lakb_damp1[i][31]=ABCDEF[(lakb_damp[i][10])&0x0f];			//Дамп
;;;768    snmp_lakb_damp1[i][32]=' ';
;;;769    snmp_lakb_damp1[i][33]=ABCDEF[(lakb_damp[i][11])>>4];			//Дамп
;;;770    snmp_lakb_damp1[i][34]=ABCDEF[(lakb_damp[i][11])&0x0f];			//Дамп
;;;771    snmp_lakb_damp1[i][35]=' ';
;;;772    snmp_lakb_damp1[i][36]=ABCDEF[(lakb_damp[i][12])>>4];			//Дамп
;;;773    snmp_lakb_damp1[i][37]=ABCDEF[(lakb_damp[i][12])&0x0f];			//Дамп
;;;774    snmp_lakb_damp1[i][38]=' ';
;;;775    snmp_lakb_damp1[i][39]=ABCDEF[(lakb_damp[i][13])>>4];			//Дамп
;;;776    snmp_lakb_damp1[i][40]=ABCDEF[(lakb_damp[i][13])&0x0f];			//Дамп
;;;777    snmp_lakb_damp1[i][41]=' ';
;;;778    snmp_lakb_damp1[i][42]=ABCDEF[(lakb_damp[i][14])>>4];			//Дамп
;;;779    snmp_lakb_damp1[i][43]=ABCDEF[(lakb_damp[i][14])&0x0f];			//Дамп
;;;780    snmp_lakb_damp1[i][44]=' '; 
;;;781    snmp_lakb_damp1[i][45]=ABCDEF[(lakb_damp[i][15])>>4];			//Дамп
;;;782    snmp_lakb_damp1[i][46]=ABCDEF[(lakb_damp[i][15])&0x0f];			//Дамп
;;;783    snmp_lakb_damp1[i][47]=' ';
;;;784    snmp_lakb_damp1[i][48]=ABCDEF[(lakb_damp[i][16])>>4];			//Дамп
;;;785    snmp_lakb_damp1[i][49]=ABCDEF[(lakb_damp[i][16])&0x0f];			//Дамп
;;;786    snmp_lakb_damp1[i][50]=' ';
;;;787    snmp_lakb_damp1[i][51]=ABCDEF[(lakb_damp[i][17])>>4];			//Дамп
;;;788    snmp_lakb_damp1[i][52]=ABCDEF[(lakb_damp[i][17])&0x0f];			//Дамп
;;;789    snmp_lakb_damp1[i][53]=' ';
;;;790    snmp_lakb_damp1[i][54]=ABCDEF[(lakb_damp[i][18])>>4];			//Дамп
;;;791    snmp_lakb_damp1[i][55]=ABCDEF[(lakb_damp[i][18])&0x0f];			//Дамп
;;;792    snmp_lakb_damp1[i][56]=' ';
;;;793    snmp_lakb_damp1[i][57]=ABCDEF[(lakb_damp[i][19])>>4];			//Дамп
;;;794    snmp_lakb_damp1[i][58]=ABCDEF[(lakb_damp[i][19])&0x0f];			//Дамп
;;;795    snmp_lakb_damp1[i][59]=0; 
;;;796    
;;;797    
;;;798    snmp_lakb_damp1[i][60]=ABCDEF[(lakb_damp[i][20])>>4];			//Дамп
;;;799    snmp_lakb_damp1[i][61]=ABCDEF[(lakb_damp[i][20])&0x0f];			//Дамп
;;;800    snmp_lakb_damp1[i][62]=' ';
;;;801    snmp_lakb_damp1[i][63]=ABCDEF[(lakb_damp[i][21])>>4];			//Дамп
;;;802    snmp_lakb_damp1[i][64]=ABCDEF[(lakb_damp[i][21])&0x0f];			//Дамп
;;;803    snmp_lakb_damp1[i][65]=' ';
;;;804    snmp_lakb_damp1[i][66]=ABCDEF[(lakb_damp[i][22])>>4];			//Дамп
;;;805    snmp_lakb_damp1[i][67]=ABCDEF[(lakb_damp[i][22])&0x0f];			//Дамп
;;;806    snmp_lakb_damp1[i][68]=' ';
;;;807    snmp_lakb_damp1[i][69]=ABCDEF[(lakb_damp[i][23])>>4];			//Дамп
;;;808    snmp_lakb_damp1[i][70]=ABCDEF[(lakb_damp[i][23])&0x0f];			//Дамп
;;;809    snmp_lakb_damp1[i][71]=' ';
;;;810    snmp_lakb_damp1[i][72]=ABCDEF[(lakb_damp[i][24])>>4];			//Дамп
;;;811    snmp_lakb_damp1[i][73]=ABCDEF[(lakb_damp[i][24])&0x0f];			//Дамп
;;;812    snmp_lakb_damp1[i][74]=' '; 
;;;813    snmp_lakb_damp1[i][75]=ABCDEF[(lakb_damp[i][25])>>4];			//Дамп
;;;814    snmp_lakb_damp1[i][76]=ABCDEF[(lakb_damp[i][25])&0x0f];			//Дамп
;;;815    snmp_lakb_damp1[i][77]=' ';
;;;816    snmp_lakb_damp1[i][78]=ABCDEF[(lakb_damp[i][26])>>4];			//Дамп
;;;817    snmp_lakb_damp1[i][79]=ABCDEF[(lakb_damp[i][26])&0x0f];			//Дамп
;;;818    snmp_lakb_damp1[i][80]=' ';
;;;819    snmp_lakb_damp1[i][81]=ABCDEF[(lakb_damp[i][27])>>4];			//Дамп
;;;820    snmp_lakb_damp1[i][82]=ABCDEF[(lakb_damp[i][27])&0x0f];			//Дамп
;;;821    snmp_lakb_damp1[i][83]=' ';
;;;822    snmp_lakb_damp1[i][84]=ABCDEF[(lakb_damp[i][28])>>4];			//Дамп
;;;823    snmp_lakb_damp1[i][85]=ABCDEF[(lakb_damp[i][28])&0x0f];			//Дамп
;;;824    snmp_lakb_damp1[i][86]=' ';
;;;825    snmp_lakb_damp1[i][87]=ABCDEF[(lakb_damp[i][29])>>4];			//Дамп
;;;826    snmp_lakb_damp1[i][88]=ABCDEF[(lakb_damp[i][29])&0x0f];			//Дамп
;;;827    snmp_lakb_damp1[i][89]=0;
;;;828    
;;;829    
;;;830    snmp_lakb_damp1[i][90]=ABCDEF[(lakb_damp[i][30])>>4];			//Дамп
;;;831    snmp_lakb_damp1[i][91]=ABCDEF[(lakb_damp[i][30])&0x0f];			//Дамп
;;;832    snmp_lakb_damp1[i][92]=' ';
;;;833    snmp_lakb_damp1[i][93]=ABCDEF[(lakb_damp[i][31])>>4];			//Дамп
;;;834    snmp_lakb_damp1[i][94]=ABCDEF[(lakb_damp[i][31])&0x0f];			//Дамп
;;;835    snmp_lakb_damp1[i][95]=' ';
;;;836    snmp_lakb_damp1[i][96]=ABCDEF[(lakb_damp[i][32])>>4];			//Дамп
;;;837    snmp_lakb_damp1[i][97]=ABCDEF[(lakb_damp[i][32])&0x0f];			//Дамп
;;;838    snmp_lakb_damp1[i][98]=' ';
;;;839    snmp_lakb_damp1[i][99]=ABCDEF[(lakb_damp[i][33])>>4];			//Дамп
;;;840    snmp_lakb_damp1[i][100]=ABCDEF[(lakb_damp[i][33])&0x0f];			//Дамп
;;;841    snmp_lakb_damp1[i][101]=' ';
;;;842    snmp_lakb_damp1[i][102]=ABCDEF[(lakb_damp[i][34])>>4];			//Дамп
;;;843    snmp_lakb_damp1[i][103]=ABCDEF[(lakb_damp[i][34])&0x0f];			//Дамп
;;;844    snmp_lakb_damp1[i][104]=' '; 
;;;845    snmp_lakb_damp1[i][105]=ABCDEF[(lakb_damp[i][35])>>4];			//Дамп
;;;846    snmp_lakb_damp1[i][106]=ABCDEF[(lakb_damp[i][35])&0x0f];			//Дамп
;;;847    snmp_lakb_damp1[i][107]=' ';
;;;848    snmp_lakb_damp1[i][108]=ABCDEF[(lakb_damp[i][36])>>4];			//Дамп
;;;849    snmp_lakb_damp1[i][109]=ABCDEF[(lakb_damp[i][36])&0x0f];			//Дамп
;;;850    snmp_lakb_damp1[i][110]=' ';
;;;851    snmp_lakb_damp1[i][111]=ABCDEF[(lakb_damp[i][37])>>4];			//Дамп
;;;852    snmp_lakb_damp1[i][112]=ABCDEF[(lakb_damp[i][37])&0x0f];			//Дамп
;;;853    snmp_lakb_damp1[i][113]=' ';
;;;854    snmp_lakb_damp1[i][114]=ABCDEF[(lakb_damp[i][38])>>4];			//Дамп
;;;855    snmp_lakb_damp1[i][115]=ABCDEF[(lakb_damp[i][38])&0x0f];			//Дамп
;;;856    snmp_lakb_damp1[i][116]=' ';
;;;857    snmp_lakb_damp1[i][117]=ABCDEF[(lakb_damp[i][39])>>4];			//Дамп
;;;858    snmp_lakb_damp1[i][118]=ABCDEF[(lakb_damp[i][39])&0x0f];			//Дамп
;;;859    snmp_lakb_damp1[i][119]=0; 
;;;860     
;;;861    
;;;862    snmp_lakb_damp1[i][120]=ABCDEF[(lakb_damp[i][40])>>4];			//Дамп
;;;863    snmp_lakb_damp1[i][121]=ABCDEF[(lakb_damp[i][40])&0x0f];			//Дамп
;;;864    snmp_lakb_damp1[i][122]=' ';
;;;865    snmp_lakb_damp1[i][123]=ABCDEF[(lakb_damp[i][41])>>4];			//Дамп
;;;866    snmp_lakb_damp1[i][124]=ABCDEF[(lakb_damp[i][41])&0x0f];			//Дамп
;;;867    snmp_lakb_damp1[i][125]=' ';
;;;868    snmp_lakb_damp1[i][126]=ABCDEF[(lakb_damp[i][42])>>4];			//Дамп
;;;869    snmp_lakb_damp1[i][127]=ABCDEF[(lakb_damp[i][42])&0x0f];			//Дамп
;;;870    snmp_lakb_damp1[i][128]=' ';
;;;871    snmp_lakb_damp1[i][129]=ABCDEF[(lakb_damp[i][43])>>4];			//Дамп
;;;872    snmp_lakb_damp1[i][130]=ABCDEF[(lakb_damp[i][43])&0x0f];			//Дамп
;;;873    snmp_lakb_damp1[i][131]=' ';
;;;874    snmp_lakb_damp1[i][132]=ABCDEF[(lakb_damp[i][44])>>4];			//Дамп
;;;875    snmp_lakb_damp1[i][133]=ABCDEF[(lakb_damp[i][44])&0x0f];			//Дамп
;;;876    snmp_lakb_damp1[i][134]=' '; 
;;;877    snmp_lakb_damp1[i][135]=ABCDEF[(lakb_damp[i][45])>>4];			//Дамп
;;;878    snmp_lakb_damp1[i][136]=ABCDEF[(lakb_damp[i][45])&0x0f];			//Дамп
;;;879    snmp_lakb_damp1[i][137]=' ';
;;;880    snmp_lakb_damp1[i][138]=ABCDEF[(lakb_damp[i][46])>>4];			//Дамп
;;;881    snmp_lakb_damp1[i][139]=ABCDEF[(lakb_damp[i][46])&0x0f];			//Дамп
;;;882    snmp_lakb_damp1[i][140]=' ';
;;;883    snmp_lakb_damp1[i][141]=ABCDEF[(lakb_damp[i][47])>>4];			//Дамп
;;;884    snmp_lakb_damp1[i][142]=ABCDEF[(lakb_damp[i][47])&0x0f];			//Дамп
;;;885    snmp_lakb_damp1[i][143]=' ';
;;;886    snmp_lakb_damp1[i][144]=ABCDEF[(lakb_damp[i][48])>>4];			//Дамп
;;;887    snmp_lakb_damp1[i][145]=ABCDEF[(lakb_damp[i][48])&0x0f];			//Дамп
;;;888    snmp_lakb_damp1[i][146]=' ';
;;;889    snmp_lakb_damp1[i][147]=ABCDEF[(lakb_damp[i][49])>>4];			//Дамп
;;;890    snmp_lakb_damp1[i][148]=ABCDEF[(lakb_damp[i][49])&0x0f];			//Дамп
;;;891    snmp_lakb_damp1[i][149]=0;  */
;;;892    }
;;;893    
;;;894    #ifdef UKU_TELECORE2017
;;;895    snmp_warm_sign=0;
;;;896    if(TELECORE2017_KLIMAT_WARM_SIGNAL==0) snmp_warm_sign=2;
;;;897    else if(TELECORE2017_KLIMAT_WARM_SIGNAL==1) snmp_warm_sign=1;
;;;898    snmp_cool_sign=0;
;;;899    if(TELECORE2017_KLIMAT_VENT_SIGNAL==0) snmp_cool_sign=2;
;;;900    else if(TELECORE2017_KLIMAT_VENT_SIGNAL==1) snmp_cool_sign=1;
;;;901    snmp_warm_on_temper=(signed char)TELECORE2017_KLIMAT_WARM_ON; 
;;;902    snmp_warm_off_temper=(signed char)TELECORE2017_KLIMAT_WARM_OFF;
;;;903    snmp_warm_q=(signed char)TELECORE2017_KLIMAT_CAP;	
;;;904    snmp_cool_20_temper=(signed char)TELECORE2017_KLIMAT_VENT_ON20;
;;;905    snmp_cool_40_temper=(signed char)TELECORE2017_KLIMAT_VENT_ON40;
;;;906    snmp_cool_60_temper=(signed char)TELECORE2017_KLIMAT_VENT_ON60;
;;;907    snmp_cool_80_temper=(signed char)TELECORE2017_KLIMAT_VENT_ON80;
;;;908    snmp_cool_100_temper=(signed char)TELECORE2017_KLIMAT_VENT_ON100;
;;;909    snmp_cool_20_dtemper=(signed char)TELECORE2017_KLIMAT_DVENT_ON20;
;;;910    snmp_cool_40_dtemper=(signed char)TELECORE2017_KLIMAT_DVENT_ON40;
;;;911    snmp_cool_60_dtemper=(signed char)TELECORE2017_KLIMAT_DVENT_ON60;
;;;912    snmp_cool_80_dtemper=(signed char)TELECORE2017_KLIMAT_DVENT_ON80;
;;;913    snmp_cool_100_dtemper=(signed char)TELECORE2017_KLIMAT_DVENT_ON100;
;;;914    snmp_warm_stat=0;
;;;915    if(warm_stat_k==wsON) snmp_warm_stat=1;
;;;916    #endif
;;;917    }
;;;918    //-----------------------------------------------
                          ENDP


                          AREA ||area_number.6||, CODE, READONLY, ALIGN=2

                          EXPORTAS ||area_number.6||, ||.text||
                  snmp_max_temperature_write PROC
;;;259    //-----------------------------------------------
;;;260    void snmp_data (void) 
000000  2801              CMP      r0,#1
;;;261    {
000002  d105              BNE      |L6.16|
;;;262    char i;
;;;263    
;;;264    snmp_mains_power_voltage=net_U;
000004  4803              LDR      r0,|L6.20|
000006  f9b0105c          LDRSH    r1,[r0,#0x5c]  ; snmp_max_temperature
00000a  207e              MOVS     r0,#0x7e
;;;265    #ifdef UKU_220_IPS_TERMOKOMPENSAT
;;;266    snmp_mains_power_frequency=net_F3;
00000c  f7ffbffe          B.W      lc640_write_int
                  |L6.16|
000010  4770              BX       lr
;;;267    #else
;;;268    snmp_mains_power_frequency=net_F;
;;;269    #endif
;;;270    snmp_mains_power_voltage_phaseA=net_Ua;
;;;271    snmp_mains_power_voltage_phaseB=net_Ub;
;;;272    snmp_mains_power_voltage_phaseC=net_Uc;
;;;273    
;;;274    /*
;;;275    snmp_mains_power_status=0; 
;;;276    #if(UKU_VERSION==900)
;;;277    snmp_mains_power_status=2;
;;;278    #endif
;;;279    if(St&0x01)snmp_mains_power_status|=0x01;
;;;280    if(St&0x01)snmp_mains_power_alarm=1;
;;;281    
;;;282    
;;;283    
;;;284    
;;;285    
;;;286    
;;;287    for(i=0;i<snmp_numofevents;i++)event2snmp(i);
;;;288    //snmp_bpsnumber[0]=1;
;;;289    //snmp_bpsnumber[1]=2;
;;;290    
;;;291    snmp_sernum=AUSW_MAIN_NUMBER;
;;;292    snmp_sernum_lsb=0x1122;
;;;293    snmp_sernum_msb=0x3344;
;;;294    snmp_device_code=AUSW_MAIN;
;;;295    
;;;296    //memcpy(snmp_location,"lkhg;la",);
;;;297    
;;;298    
;;;299    snmp_numofbat=1;
;;;300    
;;;301    */
;;;302    
;;;303    snmp_load_voltage=load_U;
;;;304    snmp_load_current=load_I;
;;;305    snmp_numofbat=NUMBAT;
;;;306    snmp_numofbps=NUMIST;
;;;307    snmp_numofinv=NUMINV;
;;;308    snmp_numofavt=NUMAVT;
;;;309    snmp_numofdt=NUMDT;
;;;310    snmp_numofsk=NUMSK;
;;;311    snmp_numofevents=lc640_read_int(CNT_EVENT_LOG);
;;;312    
;;;313    snmp_energy_vvod_phase_a=Uvv_eb2[0];
;;;314    snmp_energy_vvod_phase_b=Uvv_eb2[1];
;;;315    snmp_energy_vvod_phase_c=Uvv_eb2[2];
;;;316    snmp_energy_pes_phase_a=Upes_eb2[0];
;;;317    snmp_energy_pes_phase_b=Upes_eb2[1];
;;;318    snmp_energy_pes_phase_c=Upes_eb2[2];
;;;319    
;;;320    #ifdef UKU_KONTUR
;;;321    snmp_energy_vvod_phase_a=Uvv0;
;;;322    snmp_energy_pes_phase_a=Uvv[1];
;;;323    #endif
;;;324    
;;;325    snmp_energy_total_energy=power_summary;
;;;326    snmp_energy_current_energy=power_current;
;;;327    snmp_energy_input_voltage=net_U;
;;;328    
;;;329    snmp_bat_number[0]=1;
;;;330    snmp_bat_voltage[0]=bat[0]._Ub;
;;;331    snmp_bat_part_voltage[0]=bat[0]._Ubm;
;;;332    snmp_bat_current[0]=bat[0]._Ib;
;;;333    
;;;334    #ifdef UKU_220_IPS_TERMOKOMPENSAT
;;;335    if(((AUSW_MAIN==22063)||(AUSW_MAIN==22023))&&(bps[8]._device==dIBAT_METR))
;;;336    	{
;;;337    	snmp_bat_current[0]=Ib_ips_termokompensat;
;;;338    	}
;;;339    #endif
;;;340    
;;;341    snmp_bat_temperature[0]=bat[0]._Tb;
;;;342    if(BAT_C_REAL[0]==0x5555)snmp_bat_capacity[0]=BAT_C_NOM[0];
;;;343    else snmp_bat_capacity[0]=BAT_C_REAL[0];
;;;344    snmp_bat_charge[0]=bat[0]._zar;
;;;345    snmp_bat_status[0]=bat[0]._av;
;;;346    if(BAT_IS_ON[0]!=bisON)snmp_bat_status[0]=0xff;
;;;347    
;;;348    snmp_bat_number[1]=2;
;;;349    snmp_bat_voltage[1]=bat[1]._Ub;
;;;350    snmp_bat_part_voltage[1]=bat[1]._Ubm;
;;;351    snmp_bat_current[1]=bat[1]._Ib;
;;;352    snmp_bat_temperature[1]=bat[1]._Tb;
;;;353    if(BAT_C_REAL[1]==0x5555)snmp_bat_capacity[1]=BAT_C_NOM[1];
;;;354    else snmp_bat_capacity[1]=BAT_C_REAL[1];
;;;355    snmp_bat_charge[1]=bat[1]._zar;
;;;356    snmp_bat_status[1]=bat[1]._av;
;;;357    if(BAT_IS_ON[1]!=bisON)snmp_bat_status[1]=0xff;
;;;358    
;;;359    
;;;360    
;;;361    snmp_bps_number[0]=1;
;;;362    snmp_bps_voltage[0]=bps[0]._Uii;
;;;363    snmp_bps_current[0]=bps[0]._Ii;
;;;364    snmp_bps_temperature[0]=bps[0]._Ti;
;;;365    snmp_bps_stat[0]=bps[0]._av;
;;;366    if(!(NUMIST>0))snmp_bps_stat[0]=0xff;												//Байт состояния БПСа.
;;;367    
;;;368    /*if(St_[0]&(1<<2))snmp_bps_stat[0]=(1<<3); 							//авария по Umin
;;;369    else if(St_[0]&(1<<3))snmp_bps_stat[0]=(1<<2); 						//авария по Umax
;;;370    else if(bps[0]._av&(1<<0))snmp_bps_stat[0]=(1<<1); 						//авария по Tmax
;;;371    else if(St_[0]&(1<<5))snmp_bps_stat[0]=(1<<5); 						//заблокирован
;;;372    else if((!(St_[0]&0x3c))&&(!St&0x01)&&(!OFFBP1))snmp_bps_stat[0]=1; 		//Работает
;;;373    */
;;;374    
;;;375    snmp_bps_number[1]=2;
;;;376    snmp_bps_voltage[1]=bps[1]._Uii;
;;;377    snmp_bps_current[1]=bps[1]._Ii;
;;;378    snmp_bps_temperature[1]=bps[1]._Ti;
;;;379    snmp_bps_stat[1]=bps[1]._av;
;;;380    if(!(NUMIST>1))snmp_bps_stat[1]=0xff;												//Байт состояния БПСа.
;;;381    /*if(St_[1]&(1<<2))snmp_bps_stat[1]=(1<<3); 							//авария по Umin
;;;382    else if(St_[1]&(1<<3))snmp_bps_stat[1]=(1<<2); 						//авария по Umax
;;;383    else if(St_[1]&(1<<4))snmp_bps_stat[1]=(1<<1); 						//авария по Tmax
;;;384    else if(St_[1]&(1<<5))snmp_bps_stat[1]=(1<<5); 						//заблокирован
;;;385    else if((!(St_[1]&0x3c))&&(!St&0x01)&&(!OFFBP2))snmp_bps_stat[1]=1; 		//Работает
;;;386    */
;;;387    
;;;388    snmp_bps_number[2]=3;
;;;389    snmp_bps_voltage[2]=bps[2]._Uii;
;;;390    snmp_bps_current[2]=bps[2]._Ii;
;;;391    snmp_bps_temperature[2]=bps[2]._Ti;
;;;392    snmp_bps_stat[2]=bps[2]._av;
;;;393    if(!(NUMIST>2))snmp_bps_stat[2]=0xff;
;;;394    
;;;395    snmp_bps_number[3]=4;
;;;396    snmp_bps_voltage[3]=bps[3]._Uii;
;;;397    snmp_bps_current[3]=bps[3]._Ii;
;;;398    snmp_bps_temperature[3]=bps[3]._Ti;
;;;399    snmp_bps_stat[3]=bps[3]._av;
;;;400    if(!(NUMIST>3))snmp_bps_stat[3]=0xff;
;;;401    
;;;402    snmp_bps_number[4]=5;
;;;403    snmp_bps_voltage[4]=bps[4]._Uii;
;;;404    snmp_bps_current[4]=bps[4]._Ii;
;;;405    snmp_bps_temperature[4]=bps[4]._Ti;
;;;406    snmp_bps_stat[4]=bps[4]._av;
;;;407    if(!(NUMIST>4))snmp_bps_stat[4]=0xff;
;;;408    
;;;409    snmp_bps_number[5]=6;
;;;410    snmp_bps_voltage[5]=bps[5]._Uii;
;;;411    snmp_bps_current[5]=bps[5]._Ii;
;;;412    snmp_bps_temperature[5]=bps[5]._Ti;
;;;413    snmp_bps_stat[5]=bps[5]._av;
;;;414    if(!(NUMIST>5))snmp_bps_stat[5]=0xff;
;;;415    
;;;416    snmp_bps_number[6]=7;
;;;417    snmp_bps_voltage[6]=bps[6]._Uii;
;;;418    snmp_bps_current[6]=bps[6]._Ii;
;;;419    snmp_bps_temperature[6]=bps[6]._Ti;
;;;420    snmp_bps_stat[6]=bps[6]._av;
;;;421    if(!(NUMIST>6))snmp_bps_stat[6]=0xff;
;;;422    
;;;423    snmp_bps_number[7]=8;
;;;424    snmp_bps_voltage[7]=bps[7]._Uii;
;;;425    snmp_bps_current[7]=bps[7]._Ii;
;;;426    snmp_bps_temperature[7]=bps[7]._Ti;
;;;427    snmp_bps_stat[7]=bps[7]._av;
;;;428    if(!(NUMIST>7))snmp_bps_stat[7]=0xff;
;;;429    
;;;430    
;;;431    
;;;432    snmp_inv_number[0]=1;
;;;433    snmp_inv_voltage[0]=inv[0]._Uio;
;;;434    snmp_inv_current[0]=inv[0]._Ii;
;;;435    snmp_inv_temperature[0]=inv[0]._Ti;
;;;436    snmp_inv_stat[0]=inv[0]._flags_tm;
;;;437    
;;;438    snmp_inv_number[1]=2;
;;;439    snmp_inv_voltage[1]=inv[1]._Uio;
;;;440    snmp_inv_current[1]=inv[1]._Ii;
;;;441    snmp_inv_temperature[1]=inv[1]._Ti;
;;;442    snmp_inv_stat[1]=inv[1]._flags_tm;
;;;443    
;;;444    snmp_inv_number[2]=3;
;;;445    snmp_inv_voltage[2]=inv[2]._Uio;
;;;446    snmp_inv_current[2]=inv[2]._Ii;
;;;447    snmp_inv_temperature[2]=inv[2]._Ti;
;;;448    snmp_inv_stat[2]=inv[2]._flags_tm;
;;;449    
;;;450    
;;;451    
;;;452    
;;;453    					  
;;;454    snmp_sk_number[0]=1;
;;;455    memcpy(&snmp_sk_name[0][0],"Door",10);
;;;456    if(sk_stat[0]==ssON) snmp_sk_aktiv[0]=1;
;;;457    else snmp_sk_aktiv[0]=0;
;;;458    if(!SK_SIGN[0])snmp_sk_alarm_aktiv[0]=1;
;;;459    else snmp_sk_alarm_aktiv[0]=0;
;;;460    if(sk_av_stat[0]==sasON)	snmp_sk_alarm[0]=1;
;;;461    else                     snmp_sk_alarm[0]=0;
;;;462    
;;;463    
;;;464    snmp_sk_number[1]=2;
;;;465    memcpy(&snmp_sk_name[1][0],"Smoke",10);
;;;466    if(sk_stat[1]==ssON) snmp_sk_aktiv[1]=1;
;;;467    else snmp_sk_aktiv[1]=0;
;;;468    if(!SK_SIGN[1])snmp_sk_alarm_aktiv[1]=1;
;;;469    else snmp_sk_alarm_aktiv[1]=0;
;;;470    if(sk_av_stat[1]==sasON)	snmp_sk_alarm[1]=1;
;;;471    else                     snmp_sk_alarm[1]=0;
;;;472    
;;;473    snmp_sk_number[2]=3;
;;;474    memcpy(&snmp_sk_name[2][0],"Shock",10);
;;;475    if(sk_stat[2]==ssON) snmp_sk_aktiv[2]=1;
;;;476    else snmp_sk_aktiv[2]=0;
;;;477    if(!SK_SIGN[2])snmp_sk_alarm_aktiv[2]=1;
;;;478    else snmp_sk_alarm_aktiv[2]=0;
;;;479    if(sk_av_stat[2]==sasON)	snmp_sk_alarm[2]=1;
;;;480    else                     snmp_sk_alarm[2]=0;
;;;481    
;;;482    snmp_sk_number[3]=4;
;;;483    memcpy(&snmp_sk_name[3][0],"     ",10);
;;;484    if(sk_stat[3]==ssON) snmp_sk_aktiv[3]=1;
;;;485    else snmp_sk_aktiv[3]=0;
;;;486    if(!SK_SIGN[3])snmp_sk_alarm_aktiv[3]=1;
;;;487    else snmp_sk_alarm_aktiv[3]=0;
;;;488    if(sk_av_stat[3]==sasON)	snmp_sk_alarm[3]=1;
;;;489    else                     snmp_sk_alarm[3]=0;
;;;490    
;;;491    
;;;492    if(makb[0]._cnt>8) snmp_makb_connect_status[0]=1;
;;;493    else if(makb[0]._cnt<2) snmp_makb_connect_status[0]=0;
;;;494    if(makb[1]._cnt>8) snmp_makb_connect_status[1]=1;
;;;495    else if(makb[1]._cnt<2) snmp_makb_connect_status[1]=0;
;;;496    if(makb[2]._cnt>8) snmp_makb_connect_status[2]=1;
;;;497    else if(makb[2]._cnt<2) snmp_makb_connect_status[2]=0;
;;;498    if(makb[3]._cnt>8) snmp_makb_connect_status[3]=1;
;;;499    else if(makb[3]._cnt<2) snmp_makb_connect_status[3]=0;
;;;500    
;;;501    snmp_makb_voltage0[0]=makb[0]._Ub[0];
;;;502    snmp_makb_voltage1[0]=makb[0]._Ub[1];
;;;503    snmp_makb_voltage2[0]=makb[0]._Ub[2];
;;;504    snmp_makb_voltage3[0]=makb[0]._Ub[3];
;;;505    snmp_makb_voltage4[0]=makb[0]._Ub[4];
;;;506    snmp_makb_voltage0[1]=makb[1]._Ub[0];
;;;507    snmp_makb_voltage1[1]=makb[1]._Ub[1];
;;;508    snmp_makb_voltage2[1]=makb[1]._Ub[2];
;;;509    snmp_makb_voltage3[1]=makb[1]._Ub[3];
;;;510    snmp_makb_voltage4[1]=makb[1]._Ub[4];
;;;511    snmp_makb_voltage0[2]=makb[2]._Ub[0];
;;;512    snmp_makb_voltage1[2]=makb[2]._Ub[1];
;;;513    snmp_makb_voltage2[2]=makb[2]._Ub[2];
;;;514    snmp_makb_voltage3[2]=makb[2]._Ub[3];
;;;515    snmp_makb_voltage4[2]=makb[2]._Ub[4];
;;;516    snmp_makb_voltage0[3]=makb[3]._Ub[0];
;;;517    snmp_makb_voltage1[3]=makb[3]._Ub[1];
;;;518    snmp_makb_voltage2[3]=makb[3]._Ub[2];
;;;519    snmp_makb_voltage3[3]=makb[3]._Ub[3];
;;;520    snmp_makb_voltage4[3]=makb[3]._Ub[4];
;;;521    
;;;522    snmp_makb_temper0[0]=makb[0]._T[0];
;;;523    snmp_makb_temper1[0]=makb[0]._T[1];
;;;524    snmp_makb_temper2[0]=makb[0]._T[2];
;;;525    snmp_makb_temper3[0]=makb[0]._T[3];
;;;526    snmp_makb_temper4[0]=makb[0]._T[4];
;;;527    snmp_makb_temper0[1]=makb[1]._T[0];
;;;528    snmp_makb_temper1[1]=makb[1]._T[1];
;;;529    snmp_makb_temper2[1]=makb[1]._T[2];
;;;530    snmp_makb_temper3[1]=makb[1]._T[3];
;;;531    snmp_makb_temper4[1]=makb[1]._T[4];
;;;532    snmp_makb_temper0[2]=makb[2]._T[0];
;;;533    snmp_makb_temper1[2]=makb[2]._T[1];
;;;534    snmp_makb_temper2[2]=makb[2]._T[2];
;;;535    snmp_makb_temper3[2]=makb[2]._T[3];
;;;536    snmp_makb_temper4[2]=makb[2]._T[4];
;;;537    snmp_makb_temper0[3]=makb[3]._T[0];
;;;538    snmp_makb_temper1[3]=makb[3]._T[1];
;;;539    snmp_makb_temper2[3]=makb[3]._T[2];
;;;540    snmp_makb_temper3[3]=makb[3]._T[3];
;;;541    snmp_makb_temper4[3]=makb[3]._T[4];
;;;542    
;;;543    snmp_makb_temper0_stat[0]=makb[0]._T_nd[0];
;;;544    snmp_makb_temper1_stat[0]=makb[0]._T_nd[1];
;;;545    snmp_makb_temper2_stat[0]=makb[0]._T_nd[2];
;;;546    snmp_makb_temper3_stat[0]=makb[0]._T_nd[3];
;;;547    snmp_makb_temper4_stat[0]=makb[0]._T_nd[4];
;;;548    snmp_makb_temper0_stat[1]=makb[1]._T_nd[0];
;;;549    snmp_makb_temper1_stat[1]=makb[1]._T_nd[1];
;;;550    snmp_makb_temper2_stat[1]=makb[1]._T_nd[2];
;;;551    snmp_makb_temper3_stat[1]=makb[1]._T_nd[3];
;;;552    snmp_makb_temper4_stat[1]=makb[1]._T_nd[4];
;;;553    snmp_makb_temper0_stat[2]=makb[2]._T_nd[0];
;;;554    snmp_makb_temper1_stat[2]=makb[2]._T_nd[1];
;;;555    snmp_makb_temper2_stat[2]=makb[2]._T_nd[2];
;;;556    snmp_makb_temper3_stat[2]=makb[2]._T_nd[3];
;;;557    snmp_makb_temper4_stat[2]=makb[2]._T_nd[4];
;;;558    snmp_makb_temper0_stat[3]=makb[3]._T_nd[0];
;;;559    snmp_makb_temper1_stat[3]=makb[3]._T_nd[1];
;;;560    snmp_makb_temper2_stat[3]=makb[3]._T_nd[2];
;;;561    snmp_makb_temper3_stat[3]=makb[3]._T_nd[3];
;;;562    snmp_makb_temper4_stat[3]=makb[3]._T_nd[4];
;;;563    
;;;564    
;;;565    snmp_klimat_box_temper=t_box;
;;;566    snmp_klimat_settings_box_alarm=TBOXMAX;
;;;567    snmp_klimat_settings_vent_on=TBOXVENTON;
;;;568    snmp_klimat_settings_vent_off=TBOXVENTOFF;
;;;569    snmp_klimat_settings_warm_on=TBOXWARMON;
;;;570    snmp_klimat_settings_warm_off=TBOXWARMOFF;
;;;571    snmp_klimat_settings_load_on=TLOADENABLE;
;;;572    snmp_klimat_settings_load_off=TLOADDISABLE;
;;;573    snmp_klimat_settings_batt_on=TBATENABLE;
;;;574    snmp_klimat_settings_batt_off=TBATDISABLE;
;;;575    
;;;576    snmp_dt_ext=t_ext[0];
;;;577    snmp_dt_msan=t_ext[1];
;;;578    snmp_dt_epu=t_ext[2];
;;;579    
;;;580    /*
;;;581    snmp_bat_voltage=Ubat;
;;;582    snmp_bat_current=Ibat;
;;;583    snmp_bat_temperature=t_b;
;;;584    if(BAT_C_REAL==0x5555)
;;;585    	{
;;;586    	snmp_bat_capacity=BAT_C_NOM*10;												    11
;;;587    	}
;;;588    else
;;;589    	{
;;;590    	snmp_bat_capacity=BAT_C_REAL;
;;;591    	}
;;;592    snmp_bat_charge=zar_percent;
;;;593    snmp_bat_status=0;
;;;594    if(St&0x02)snmp_bat_status|=0x01;
;;;595    if(Ibat>0)snmp_bat_status|=0x02;
;;;596    
;;;597    
;;;598    if(spc_stat==spc_OFF) snmp_spc_stat=0;
;;;599    else if(spc_stat==spc_KE) snmp_spc_stat=1;
;;;600    else if(spc_stat==spc_VZ) snmp_spc_stat=10;
;;;601    
;;;602    
;;;603    snmp_main_bps=MAIN_IST+1;
;;;604    */
;;;605    snmp_zv_en=ZV_ON;
;;;606    snmp_alarm_auto_disable=AV_OFF_AVT;
;;;607    snmp_bat_test_time=TBAT;
;;;608    snmp_u_max=UMAX;
;;;609    //snmp_u_min=UB20-DU;
;;;610    //snmp_u_0_grad=UB0;
;;;611    //snmp_u_20_grad=UB20;
;;;612    snmp_u_sign=USIGN;
;;;613    snmp_u_min_power=UMN;
;;;614    snmp_u_withouth_bat=U0B;
;;;615    snmp_control_current=IKB;
;;;616    snmp_max_charge_current=IZMAX;
;;;617    snmp_max_current=IMAX;
;;;618    snmp_min_current=IMIN;
;;;619    //snmp_max_current_koef=KIMAX;
;;;620    //snmp_uvz=UVZ;
;;;621    snmp_powerup_psu_timeout=TZAS;
;;;622    snmp_max_temperature=TMAX;
;;;623    snmp_tsign_bat=TBATSIGN; 
;;;624    snmp_tmax_bat=TBATMAX;
;;;625    snmp_tsign_bps=TSIGN;
;;;626    snmp_tmax_bps=TMAX;
;;;627    snmp_bat_part_alarm=UBM_AV; 
;;;628    snmp_power_cnt_adress=POWER_CNT_ADRESS;
;;;629    
;;;630    for(i=0;i<12;i++)
;;;631    	{
;;;632    	snmp_avt_number[i]=i+1;
;;;633    	if(avt_stat[i]==avtOFF)snmp_avt_stat[i]=0;
;;;634    	else snmp_avt_stat[i]=1;
;;;635    	}
;;;636    
;;;637    snmp_dt_number[0]=1;
;;;638    snmp_dt_number[1]=2;
;;;639    snmp_dt_number[2]=3;
;;;640    //snmp_dt_number[3]=4;
;;;641    snmp_dt_temper[0]=t_ext[0];
;;;642    snmp_dt_temper[1]=t_ext[1];
;;;643    snmp_dt_temper[2]=t_ext[2];
;;;644    //snmp_dt_temper[3]=t_ext[3];
;;;645    snmp_dt_error[0]=ND_EXT[0];
;;;646    if(NUMDT<1)snmp_dt_error[0]=0xff;
;;;647    snmp_dt_error[1]=ND_EXT[1];
;;;648    if(NUMDT<2)snmp_dt_error[0]=0xff;
;;;649    snmp_dt_error[2]=ND_EXT[2];
;;;650    if(NUMDT<3)snmp_dt_error[0]=0xff;
;;;651    //snmp_dt_error[3]=ND_EXT[3];
;;;652    if(NUMDT<4)snmp_dt_error[0]=0xff;
;;;653    
;;;654    /*
;;;655    //Литиевые батареи
;;;656    snmp_lakb_number[0]=1;								//Номер ЛАКБ
;;;657    snmp_lakb_number[1]=2;								//Номер ЛАКБ
;;;658    snmp_lakb_voltage[0]=lakb[0]._tot_bat_volt;				//Напряжение ЛАКБ
;;;659    snmp_lakb_voltage[1]=lakb[1]._tot_bat_volt;				//Напряжение ЛАКБ
;;;660    snmp_lakb_max_cell_voltage[0]=lakb[0]._max_cell_volt;		//Максимальное напряжение ячейки ЛАКБ
;;;661    snmp_lakb_max_cell_voltage[1]=lakb[1]._max_cell_volt;		//Максимальное напряжение ячейки ЛАКБ
;;;662    snmp_lakb_min_cell_voltage[0]=lakb[0]._min_cell_volt;		//Минимальное напряжение ячейки ЛАКБ
;;;663    snmp_lakb_min_cell_voltage[1]=lakb[1]._min_cell_volt;		//Минимальное напряжение ячейки ЛАКБ
;;;664    snmp_lakb_max_cell_temperature[0]=lakb[0]._max_cell_temp;	//Максимальная температура ячейки ЛАКБ
;;;665    snmp_lakb_max_cell_temperature[1]=lakb[1]._max_cell_temp;	//Максимальная температура ячейки ЛАКБ
;;;666    snmp_lakb_min_cell_temperature[0]=lakb[0]._min_cell_temp;	//Минимальная температура ячейки ЛАКБ
;;;667    snmp_lakb_min_cell_temperature[1]=lakb[1]._min_cell_temp;	//Минимальная температура ячейки ЛАКБ
;;;668    snmp_lakb_ch_curr[0]=lakb[0]._ch_curr;					//Ток заряда ЛАКБ
;;;669    snmp_lakb_ch_curr[1]=lakb[1]._ch_curr;					//Ток заряда ЛАКБ
;;;670    snmp_lakb_dsch_curr[0]=lakb[0]._dsch_curr;				//Ток разряда ЛАКБ
;;;671    snmp_lakb_dsch_curr[1]=lakb[1]._dsch_curr;				//Ток разряда ЛАКБ
;;;672    snmp_lakb_rat_cap[0]=lakb[0]._rat_cap;					//Номинальная емкость ЛАКБ
;;;673    snmp_lakb_rat_cap[1]=lakb[1]._rat_cap;					//Номинальная емкость ЛАКБ
;;;674    snmp_lakb_soh[0]=lakb[0]._s_o_h;						//Остаточная емкость ЛАКБ
;;;675    snmp_lakb_soh[1]=lakb[1]._s_o_h;						//Остаточная емкость ЛАКБ
;;;676    snmp_lakb_soc[0]=lakb[0]._s_o_c;						//Заряд ЛАКБ
;;;677    snmp_lakb_soc[1]=lakb[1]._s_o_c;						//Заряд ЛАКБ
;;;678    snmp_lakb_cclv[0]=lakb[0]._c_c_l_v;  					//Максимальный ток заряда ЛАКБ
;;;679    snmp_lakb_cclv[1]=lakb[1]._c_c_l_v;  					//Максимальный ток заряда ЛАКБ
;;;680    snmp_lakb_rbt[0]=lakb[0]._r_b_t;						//Оцениваемое время работы ЛАКБ
;;;681    snmp_lakb_rbt[1]=lakb[1]._r_b_t;						//Оцениваемое время работы ЛАКБ
;;;682    snmp_lakb_flags1[0]=lakb[0]._flags1;					//Первый флаг состояния ЛАКБ
;;;683    snmp_lakb_flags1[1]=lakb[1]._flags1;					//Первый флаг состояния ЛАКБ
;;;684    snmp_lakb_flags2[0]=lakb[0]._flags2;					//Второй флаг состояния ЛАКБ
;;;685    snmp_lakb_flags2[1]=lakb[1]._flags2;					//Второй флаг состояния ЛАКБ */
;;;686    
;;;687    //Литиевые батареи
;;;688    snmp_lakb_number[0]=1;								//Номер ЛАКБ
;;;689    snmp_lakb_number[1]=2;								//Номер ЛАКБ
;;;690    snmp_lakb_number[2]=3;								//Номер ЛАКБ
;;;691    snmp_lakb_number[3]=4;								//Номер ЛАКБ
;;;692    snmp_lakb_number[4]=5;								//Номер ЛАКБ
;;;693    snmp_lakb_number[5]=6;								//Номер ЛАКБ
;;;694    snmp_lakb_number[6]=7;								//Номер ЛАКБ
;;;695    
;;;696    for (i=0;i<3;i++)
;;;697    	{
;;;698    	snmp_lakb_voltage[i]=lakb[i]._tot_bat_volt;				//Напряжение ЛАКБ
;;;699    	snmp_lakb_max_cell_voltage[i]=lakb[i]._max_cell_volt;		//Максимальное напряжение ячейки ЛАКБ
;;;700    	snmp_lakb_min_cell_voltage[i]=lakb[i]._min_cell_volt;		//Минимальное напряжение ячейки ЛАКБ
;;;701    	snmp_lakb_max_cell_temperature[i]=lakb[i]._max_cell_temp;	//Максимальная температура ячейки ЛАКБ
;;;702    	//snmp_lakb_max_cell_temperature[1]=lakb[1]._max_cell_temp;	//Максимальная температура ячейки ЛАКБ
;;;703    	snmp_lakb_min_cell_temperature[i]=lakb[i]._min_cell_temp;	//Минимальная температура ячейки ЛАКБ
;;;704    	//snmp_lakb_min_cell_temperature[1]=lakb[1]._min_cell_temp;	//Минимальная температура ячейки ЛАКБ
;;;705    	snmp_lakb_ch_curr[i]=lakb[i]._ch_curr;					//Ток заряда ЛАКБ
;;;706    	//snmp_lakb_ch_curr[1]=lakb[1]._ch_curr;					//Ток заряда ЛАКБ
;;;707    	snmp_lakb_dsch_curr[i]=lakb[i]._dsch_curr;				//Ток разряда ЛАКБ
;;;708    	//snmp_lakb_dsch_curr[1]=lakb[1]._dsch_curr;				//Ток разряда ЛАКБ
;;;709    	snmp_lakb_rat_cap[i]=lakb[i]._rat_cap;					//Номинальная емкость ЛАКБ
;;;710    	//snmp_lakb_rat_cap[1]=lakb[1]._rat_cap;					//Номинальная емкость ЛАКБ
;;;711    	snmp_lakb_soh[i]=lakb[i]._s_o_h;						//Остаточная емкость ЛАКБ
;;;712    	//snmp_lakb_soh[1]=lakb[1]._s_o_h;						//Остаточная емкость ЛАКБ
;;;713    	snmp_lakb_soc[i]=lakb[i]._s_o_c;						//Заряд ЛАКБ
;;;714    	//snmp_lakb_soc[1]=lakb[1]._s_o_c;						//Заряд ЛАКБ
;;;715    	snmp_lakb_cclv[i]=lakb[i]._c_c_l_v;  					//Максимальный ток заряда ЛАКБ
;;;716    	//snmp_lakb_cclv[1]=lakb[1]._c_c_l_v;  					//Максимальный ток заряда ЛАКБ
;;;717    	snmp_lakb_rbt[i]=lakb[i]._r_b_t;						//Оцениваемое время работы ЛАКБ
;;;718    	//snmp_lakb_rbt[1]=lakb[1]._r_b_t;						//Оцениваемое время работы ЛАКБ
;;;719    	snmp_lakb_flags1[i]=lakb[i]._flags1;					//Первый флаг состояния ЛАКБ
;;;720    	//snmp_lakb_flags1[1]=lakb[1]._flags1;					//Первый флаг состояния ЛАКБ
;;;721    	snmp_lakb_flags2[i]=lakb[i]._flags2;					//Второй флаг состояния ЛАКБ
;;;722    	//snmp_lakb_flags2[1]=lakb[1]._flags2;					//Второй флаг состояния ЛАКБ
;;;723    
;;;724    	snmp_lakb_cell_temperature_1[i]= lakb[i]._cell_temp_1;
;;;725    	snmp_lakb_cell_temperature_2[i]= lakb[i]._cell_temp_2;
;;;726    	snmp_lakb_cell_temperature_3[i]= lakb[i]._cell_temp_3;
;;;727    	snmp_lakb_cell_temperature_4[i]= lakb[i]._cell_temp_4;
;;;728    	snmp_lakb_cell_temperature_ambient[i]=lakb[i]._cell_temp_ambient;
;;;729    	snmp_lakb_cell_temperature_power[i]=lakb[i]._cell_temp_power;
;;;730    	}
;;;731    
;;;732    for (i=0;i<7;i++)
;;;733    {
;;;734    /*
;;;735    snmp_lakb_damp1[i][0]=ABCDEF[(lakb_damp[i][0])>>4];			//Дамп
;;;736    snmp_lakb_damp1[i][1]=ABCDEF[(lakb_damp[i][0])&0x0f];			//Дамп
;;;737    snmp_lakb_damp1[i][2]=' ';
;;;738    snmp_lakb_damp1[i][3]=ABCDEF[(lakb_damp[i][1])>>4];			//Дамп
;;;739    snmp_lakb_damp1[i][4]=ABCDEF[(lakb_damp[i][1])&0x0f];			//Дамп
;;;740    snmp_lakb_damp1[i][5]=' ';
;;;741    snmp_lakb_damp1[i][6]=ABCDEF[(lakb_damp[i][2])>>4];			//Дамп
;;;742    snmp_lakb_damp1[i][7]=ABCDEF[(lakb_damp[i][2])&0x0f];			//Дамп
;;;743    snmp_lakb_damp1[i][8]=' ';
;;;744    snmp_lakb_damp1[i][9]=ABCDEF[(lakb_damp[i][3])>>4];			//Дамп
;;;745    snmp_lakb_damp1[i][10]=ABCDEF[(lakb_damp[i][3])&0x0f];			//Дамп
;;;746    snmp_lakb_damp1[i][11]=' ';
;;;747    snmp_lakb_damp1[i][12]=ABCDEF[(lakb_damp[i][4])>>4];			//Дамп
;;;748    snmp_lakb_damp1[i][13]=ABCDEF[(lakb_damp[i][4])&0x0f];			//Дамп
;;;749    snmp_lakb_damp1[i][14]=' '; 
;;;750    snmp_lakb_damp1[i][15]=ABCDEF[(lakb_damp[i][5])>>4];			//Дамп
;;;751    snmp_lakb_damp1[i][16]=ABCDEF[(lakb_damp[i][5])&0x0f];			//Дамп
;;;752    snmp_lakb_damp1[i][17]=' ';
;;;753    snmp_lakb_damp1[i][18]=ABCDEF[(lakb_damp[i][6])>>4];			//Дамп
;;;754    snmp_lakb_damp1[i][19]=ABCDEF[(lakb_damp[i][6])&0x0f];			//Дамп
;;;755    snmp_lakb_damp1[i][20]=' ';
;;;756    snmp_lakb_damp1[i][21]=ABCDEF[(lakb_damp[i][7])>>4];			//Дамп
;;;757    snmp_lakb_damp1[i][22]=ABCDEF[(lakb_damp[i][7])&0x0f];			//Дамп
;;;758    snmp_lakb_damp1[i][23]=' ';
;;;759    snmp_lakb_damp1[i][24]=ABCDEF[(lakb_damp[i][8])>>4];			//Дамп
;;;760    snmp_lakb_damp1[i][25]=ABCDEF[(lakb_damp[i][8])&0x0f];			//Дамп
;;;761    snmp_lakb_damp1[i][26]=' ';
;;;762    snmp_lakb_damp1[i][27]=ABCDEF[(lakb_damp[i][9])>>4];			//Дамп
;;;763    snmp_lakb_damp1[i][28]=ABCDEF[(lakb_damp[i][9])&0x0f];			//Дамп
;;;764    snmp_lakb_damp1[i][29]=0; 
;;;765    
;;;766    snmp_lakb_damp1[i][30]=ABCDEF[(lakb_damp[i][10])>>4];			//Дамп
;;;767    snmp_lakb_damp1[i][31]=ABCDEF[(lakb_damp[i][10])&0x0f];			//Дамп
;;;768    snmp_lakb_damp1[i][32]=' ';
;;;769    snmp_lakb_damp1[i][33]=ABCDEF[(lakb_damp[i][11])>>4];			//Дамп
;;;770    snmp_lakb_damp1[i][34]=ABCDEF[(lakb_damp[i][11])&0x0f];			//Дамп
;;;771    snmp_lakb_damp1[i][35]=' ';
;;;772    snmp_lakb_damp1[i][36]=ABCDEF[(lakb_damp[i][12])>>4];			//Дамп
;;;773    snmp_lakb_damp1[i][37]=ABCDEF[(lakb_damp[i][12])&0x0f];			//Дамп
;;;774    snmp_lakb_damp1[i][38]=' ';
;;;775    snmp_lakb_damp1[i][39]=ABCDEF[(lakb_damp[i][13])>>4];			//Дамп
;;;776    snmp_lakb_damp1[i][40]=ABCDEF[(lakb_damp[i][13])&0x0f];			//Дамп
;;;777    snmp_lakb_damp1[i][41]=' ';
;;;778    snmp_lakb_damp1[i][42]=ABCDEF[(lakb_damp[i][14])>>4];			//Дамп
;;;779    snmp_lakb_damp1[i][43]=ABCDEF[(lakb_damp[i][14])&0x0f];			//Дамп
;;;780    snmp_lakb_damp1[i][44]=' '; 
;;;781    snmp_lakb_damp1[i][45]=ABCDEF[(lakb_damp[i][15])>>4];			//Дамп
;;;782    snmp_lakb_damp1[i][46]=ABCDEF[(lakb_damp[i][15])&0x0f];			//Дамп
;;;783    snmp_lakb_damp1[i][47]=' ';
;;;784    snmp_lakb_damp1[i][48]=ABCDEF[(lakb_damp[i][16])>>4];			//Дамп
;;;785    snmp_lakb_damp1[i][49]=ABCDEF[(lakb_damp[i][16])&0x0f];			//Дамп
;;;786    snmp_lakb_damp1[i][50]=' ';
;;;787    snmp_lakb_damp1[i][51]=ABCDEF[(lakb_damp[i][17])>>4];			//Дамп
;;;788    snmp_lakb_damp1[i][52]=ABCDEF[(lakb_damp[i][17])&0x0f];			//Дамп
;;;789    snmp_lakb_damp1[i][53]=' ';
;;;790    snmp_lakb_damp1[i][54]=ABCDEF[(lakb_damp[i][18])>>4];			//Дамп
;;;791    snmp_lakb_damp1[i][55]=ABCDEF[(lakb_damp[i][18])&0x0f];			//Дамп
;;;792    snmp_lakb_damp1[i][56]=' ';
;;;793    snmp_lakb_damp1[i][57]=ABCDEF[(lakb_damp[i][19])>>4];			//Дамп
;;;794    snmp_lakb_damp1[i][58]=ABCDEF[(lakb_damp[i][19])&0x0f];			//Дамп
;;;795    snmp_lakb_damp1[i][59]=0; 
;;;796    
;;;797    
;;;798    snmp_lakb_damp1[i][60]=ABCDEF[(lakb_damp[i][20])>>4];			//Дамп
;;;799    snmp_lakb_damp1[i][61]=ABCDEF[(lakb_damp[i][20])&0x0f];			//Дамп
;;;800    snmp_lakb_damp1[i][62]=' ';
;;;801    snmp_lakb_damp1[i][63]=ABCDEF[(lakb_damp[i][21])>>4];			//Дамп
;;;802    snmp_lakb_damp1[i][64]=ABCDEF[(lakb_damp[i][21])&0x0f];			//Дамп
;;;803    snmp_lakb_damp1[i][65]=' ';
;;;804    snmp_lakb_damp1[i][66]=ABCDEF[(lakb_damp[i][22])>>4];			//Дамп
;;;805    snmp_lakb_damp1[i][67]=ABCDEF[(lakb_damp[i][22])&0x0f];			//Дамп
;;;806    snmp_lakb_damp1[i][68]=' ';
;;;807    snmp_lakb_damp1[i][69]=ABCDEF[(lakb_damp[i][23])>>4];			//Дамп
;;;808    snmp_lakb_damp1[i][70]=ABCDEF[(lakb_damp[i][23])&0x0f];			//Дамп
;;;809    snmp_lakb_damp1[i][71]=' ';
;;;810    snmp_lakb_damp1[i][72]=ABCDEF[(lakb_damp[i][24])>>4];			//Дамп
;;;811    snmp_lakb_damp1[i][73]=ABCDEF[(lakb_damp[i][24])&0x0f];			//Дамп
;;;812    snmp_lakb_damp1[i][74]=' '; 
;;;813    snmp_lakb_damp1[i][75]=ABCDEF[(lakb_damp[i][25])>>4];			//Дамп
;;;814    snmp_lakb_damp1[i][76]=ABCDEF[(lakb_damp[i][25])&0x0f];			//Дамп
;;;815    snmp_lakb_damp1[i][77]=' ';
;;;816    snmp_lakb_damp1[i][78]=ABCDEF[(lakb_damp[i][26])>>4];			//Дамп
;;;817    snmp_lakb_damp1[i][79]=ABCDEF[(lakb_damp[i][26])&0x0f];			//Дамп
;;;818    snmp_lakb_damp1[i][80]=' ';
;;;819    snmp_lakb_damp1[i][81]=ABCDEF[(lakb_damp[i][27])>>4];			//Дамп
;;;820    snmp_lakb_damp1[i][82]=ABCDEF[(lakb_damp[i][27])&0x0f];			//Дамп
;;;821    snmp_lakb_damp1[i][83]=' ';
;;;822    snmp_lakb_damp1[i][84]=ABCDEF[(lakb_damp[i][28])>>4];			//Дамп
;;;823    snmp_lakb_damp1[i][85]=ABCDEF[(lakb_damp[i][28])&0x0f];			//Дамп
;;;824    snmp_lakb_damp1[i][86]=' ';
;;;825    snmp_lakb_damp1[i][87]=ABCDEF[(lakb_damp[i][29])>>4];			//Дамп
;;;826    snmp_lakb_damp1[i][88]=ABCDEF[(lakb_damp[i][29])&0x0f];			//Дамп
;;;827    snmp_lakb_damp1[i][89]=0;
;;;828    
;;;829    
;;;830    snmp_lakb_damp1[i][90]=ABCDEF[(lakb_damp[i][30])>>4];			//Дамп
;;;831    snmp_lakb_damp1[i][91]=ABCDEF[(lakb_damp[i][30])&0x0f];			//Дамп
;;;832    snmp_lakb_damp1[i][92]=' ';
;;;833    snmp_lakb_damp1[i][93]=ABCDEF[(lakb_damp[i][31])>>4];			//Дамп
;;;834    snmp_lakb_damp1[i][94]=ABCDEF[(lakb_damp[i][31])&0x0f];			//Дамп
;;;835    snmp_lakb_damp1[i][95]=' ';
;;;836    snmp_lakb_damp1[i][96]=ABCDEF[(lakb_damp[i][32])>>4];			//Дамп
;;;837    snmp_lakb_damp1[i][97]=ABCDEF[(lakb_damp[i][32])&0x0f];			//Дамп
;;;838    snmp_lakb_damp1[i][98]=' ';
;;;839    snmp_lakb_damp1[i][99]=ABCDEF[(lakb_damp[i][33])>>4];			//Дамп
;;;840    snmp_lakb_damp1[i][100]=ABCDEF[(lakb_damp[i][33])&0x0f];			//Дамп
;;;841    snmp_lakb_damp1[i][101]=' ';
;;;842    snmp_lakb_damp1[i][102]=ABCDEF[(lakb_damp[i][34])>>4];			//Дамп
;;;843    snmp_lakb_damp1[i][103]=ABCDEF[(lakb_damp[i][34])&0x0f];			//Дамп
;;;844    snmp_lakb_damp1[i][104]=' '; 
;;;845    snmp_lakb_damp1[i][105]=ABCDEF[(lakb_damp[i][35])>>4];			//Дамп
;;;846    snmp_lakb_damp1[i][106]=ABCDEF[(lakb_damp[i][35])&0x0f];			//Дамп
;;;847    snmp_lakb_damp1[i][107]=' ';
;;;848    snmp_lakb_damp1[i][108]=ABCDEF[(lakb_damp[i][36])>>4];			//Дамп
;;;849    snmp_lakb_damp1[i][109]=ABCDEF[(lakb_damp[i][36])&0x0f];			//Дамп
;;;850    snmp_lakb_damp1[i][110]=' ';
;;;851    snmp_lakb_damp1[i][111]=ABCDEF[(lakb_damp[i][37])>>4];			//Дамп
;;;852    snmp_lakb_damp1[i][112]=ABCDEF[(lakb_damp[i][37])&0x0f];			//Дамп
;;;853    snmp_lakb_damp1[i][113]=' ';
;;;854    snmp_lakb_damp1[i][114]=ABCDEF[(lakb_damp[i][38])>>4];			//Дамп
;;;855    snmp_lakb_damp1[i][115]=ABCDEF[(lakb_damp[i][38])&0x0f];			//Дамп
;;;856    snmp_lakb_damp1[i][116]=' ';
;;;857    snmp_lakb_damp1[i][117]=ABCDEF[(lakb_damp[i][39])>>4];			//Дамп
;;;858    snmp_lakb_damp1[i][118]=ABCDEF[(lakb_damp[i][39])&0x0f];			//Дамп
;;;859    snmp_lakb_damp1[i][119]=0; 
;;;860     
;;;861    
;;;862    snmp_lakb_damp1[i][120]=ABCDEF[(lakb_damp[i][40])>>4];			//Дамп
;;;863    snmp_lakb_damp1[i][121]=ABCDEF[(lakb_damp[i][40])&0x0f];			//Дамп
;;;864    snmp_lakb_damp1[i][122]=' ';
;;;865    snmp_lakb_damp1[i][123]=ABCDEF[(lakb_damp[i][41])>>4];			//Дамп
;;;866    snmp_lakb_damp1[i][124]=ABCDEF[(lakb_damp[i][41])&0x0f];			//Дамп
;;;867    snmp_lakb_damp1[i][125]=' ';
;;;868    snmp_lakb_damp1[i][126]=ABCDEF[(lakb_damp[i][42])>>4];			//Дамп
;;;869    snmp_lakb_damp1[i][127]=ABCDEF[(lakb_damp[i][42])&0x0f];			//Дамп
;;;870    snmp_lakb_damp1[i][128]=' ';
;;;871    snmp_lakb_damp1[i][129]=ABCDEF[(lakb_damp[i][43])>>4];			//Дамп
;;;872    snmp_lakb_damp1[i][130]=ABCDEF[(lakb_damp[i][43])&0x0f];			//Дамп
;;;873    snmp_lakb_damp1[i][131]=' ';
;;;874    snmp_lakb_damp1[i][132]=ABCDEF[(lakb_damp[i][44])>>4];			//Дамп
;;;875    snmp_lakb_damp1[i][133]=ABCDEF[(lakb_damp[i][44])&0x0f];			//Дамп
;;;876    snmp_lakb_damp1[i][134]=' '; 
;;;877    snmp_lakb_damp1[i][135]=ABCDEF[(lakb_damp[i][45])>>4];			//Дамп
;;;878    snmp_lakb_damp1[i][136]=ABCDEF[(lakb_damp[i][45])&0x0f];			//Дамп
;;;879    snmp_lakb_damp1[i][137]=' ';
;;;880    snmp_lakb_damp1[i][138]=ABCDEF[(lakb_damp[i][46])>>4];			//Дамп
;;;881    snmp_lakb_damp1[i][139]=ABCDEF[(lakb_damp[i][46])&0x0f];			//Дамп
;;;882    snmp_lakb_damp1[i][140]=' ';
;;;883    snmp_lakb_damp1[i][141]=ABCDEF[(lakb_damp[i][47])>>4];			//Дамп
;;;884    snmp_lakb_damp1[i][142]=ABCDEF[(lakb_damp[i][47])&0x0f];			//Дамп
;;;885    snmp_lakb_damp1[i][143]=' ';
;;;886    snmp_lakb_damp1[i][144]=ABCDEF[(lakb_damp[i][48])>>4];			//Дамп
;;;887    snmp_lakb_damp1[i][145]=ABCDEF[(lakb_damp[i][48])&0x0f];			//Дамп
;;;888    snmp_lakb_damp1[i][146]=' ';
;;;889    snmp_lakb_damp1[i][147]=ABCDEF[(lakb_damp[i][49])>>4];			//Дамп
;;;890    snmp_lakb_damp1[i][148]=ABCDEF[(lakb_damp[i][49])&0x0f];			//Дамп
;;;891    snmp_lakb_damp1[i][149]=0;  */
;;;892    }
;;;893    
;;;894    #ifdef UKU_TELECORE2017
;;;895    snmp_warm_sign=0;
;;;896    if(TELECORE2017_KLIMAT_WARM_SIGNAL==0) snmp_warm_sign=2;
;;;897    else if(TELECORE2017_KLIMAT_WARM_SIGNAL==1) snmp_warm_sign=1;
;;;898    snmp_cool_sign=0;
;;;899    if(TELECORE2017_KLIMAT_VENT_SIGNAL==0) snmp_cool_sign=2;
;;;900    else if(TELECORE2017_KLIMAT_VENT_SIGNAL==1) snmp_cool_sign=1;
;;;901    snmp_warm_on_temper=(signed char)TELECORE2017_KLIMAT_WARM_ON; 
;;;902    snmp_warm_off_temper=(signed char)TELECORE2017_KLIMAT_WARM_OFF;
;;;903    snmp_warm_q=(signed char)TELECORE2017_KLIMAT_CAP;	
;;;904    snmp_cool_20_temper=(signed char)TELECORE2017_KLIMAT_VENT_ON20;
;;;905    snmp_cool_40_temper=(signed char)TELECORE2017_KLIMAT_VENT_ON40;
;;;906    snmp_cool_60_temper=(signed char)TELECORE2017_KLIMAT_VENT_ON60;
;;;907    snmp_cool_80_temper=(signed char)TELECORE2017_KLIMAT_VENT_ON80;
;;;908    snmp_cool_100_temper=(signed char)TELECORE2017_KLIMAT_VENT_ON100;
;;;909    snmp_cool_20_dtemper=(signed char)TELECORE2017_KLIMAT_DVENT_ON20;
;;;910    snmp_cool_40_dtemper=(signed char)TELECORE2017_KLIMAT_DVENT_ON40;
;;;911    snmp_cool_60_dtemper=(signed char)TELECORE2017_KLIMAT_DVENT_ON60;
;;;912    snmp_cool_80_dtemper=(signed char)TELECORE2017_KLIMAT_DVENT_ON80;
;;;913    snmp_cool_100_dtemper=(signed char)TELECORE2017_KLIMAT_DVENT_ON100;
;;;914    snmp_warm_stat=0;
;;;915    if(warm_stat_k==wsON) snmp_warm_stat=1;
;;;916    #endif
;;;917    }
;;;918    //-----------------------------------------------
                          ENDP

000012  0000              DCW      0x0000
                  |L6.20|
                          DCD      ||.data||

                          AREA ||area_number.7||, CODE, READONLY, ALIGN=2

                          EXPORTAS ||area_number.7||, ||.text||
                  datatime2str PROC
;;;259    //-----------------------------------------------
;;;260    void snmp_data (void) 
000000  e92d5ff0          PUSH     {r4-r12,lr}
;;;261    {
;;;262    char i;
;;;263    
;;;264    snmp_mains_power_voltage=net_U;
000004  4683              MOV      r11,r0
000006  e9dd760a          LDRD     r7,r6,[sp,#0x28]
00000a  468a              MOV      r10,r1
;;;265    #ifdef UKU_220_IPS_TERMOKOMPENSAT
;;;266    snmp_mains_power_frequency=net_F3;
00000c  4691              MOV      r9,r2
00000e  4698              MOV      r8,r3
000010  f04f0214          MOV      r2,#0x14
;;;267    #else
;;;268    snmp_mains_power_frequency=net_F;
;;;269    #endif
;;;270    snmp_mains_power_voltage_phaseA=net_Ua;
000014  a121              ADR      r1,|L7.156|
000016  4828              LDR      r0,|L7.184|
;;;271    snmp_mains_power_voltage_phaseB=net_Ub;
000018  f7fffffe          BL       __aeabi_memcpy
00001c  f04f040a          MOV      r4,#0xa
;;;272    snmp_mains_power_voltage_phaseC=net_Uc;
000020  fbbbf5f4          UDIV     r5,r11,r4
;;;273    
;;;274    /*
;;;275    snmp_mains_power_status=0; 
;;;276    #if(UKU_VERSION==900)
;;;277    snmp_mains_power_status=2;
;;;278    #endif
;;;279    if(St&0x01)snmp_mains_power_status|=0x01;
;;;280    if(St&0x01)snmp_mains_power_alarm=1;
;;;281    
;;;282    
;;;283    
;;;284    
;;;285    
;;;286    
;;;287    for(i=0;i<snmp_numofevents;i++)event2snmp(i);
;;;288    //snmp_bpsnumber[0]=1;
;;;289    //snmp_bpsnumber[1]=2;
;;;290    
;;;291    snmp_sernum=AUSW_MAIN_NUMBER;
;;;292    snmp_sernum_lsb=0x1122;
;;;293    snmp_sernum_msb=0x3344;
;;;294    snmp_device_code=AUSW_MAIN;
;;;295    
;;;296    //memcpy(snmp_location,"lkhg;la",);
;;;297    
;;;298    
;;;299    snmp_numofbat=1;
;;;300    
;;;301    */
;;;302    
;;;303    snmp_load_voltage=load_U;
000024  fb04b115          MLS      r1,r4,r5,r11
000028  4823              LDR      r0,|L7.184|
;;;304    snmp_load_current=load_I;
00002a  f1010130          ADD      r1,r1,#0x30
00002e  7041              STRB     r1,[r0,#1]
;;;305    snmp_numofbat=NUMBAT;
000030  f1050530          ADD      r5,r5,#0x30
000034  7005              STRB     r5,[r0,#0]
;;;306    snmp_numofbps=NUMIST;
000036  4921              LDR      r1,|L7.188|
000038  eb01018a          ADD      r1,r1,r10,LSL #2
;;;307    snmp_numofinv=NUMINV;
00003c  880a              LDRH     r2,[r1,#0]
00003e  f8a02003          STRH     r2,[r0,#3]
;;;308    snmp_numofavt=NUMAVT;
000042  7889              LDRB     r1,[r1,#2]
000044  7141              STRB     r1,[r0,#5]
000046  fbb9f1f4          UDIV     r1,r9,r4
;;;309    snmp_numofdt=NUMDT;
00004a  fb049211          MLS      r2,r4,r1,r9
;;;310    snmp_numofsk=NUMSK;
00004e  f1020230          ADD      r2,r2,#0x30
000052  7202              STRB     r2,[r0,#8]
;;;311    snmp_numofevents=lc640_read_int(CNT_EVENT_LOG);
000054  f1010130          ADD      r1,r1,#0x30
000058  71c1              STRB     r1,[r0,#7]
00005a  fbb8f1f4          UDIV     r1,r8,r4
;;;312    
;;;313    snmp_energy_vvod_phase_a=Uvv_eb2[0];
00005e  fb048211          MLS      r2,r4,r1,r8
000062  f1020230          ADD      r2,r2,#0x30
;;;314    snmp_energy_vvod_phase_b=Uvv_eb2[1];
000066  7302              STRB     r2,[r0,#0xc]
000068  f1010130          ADD      r1,r1,#0x30
;;;315    snmp_energy_vvod_phase_c=Uvv_eb2[2];
00006c  72c1              STRB     r1,[r0,#0xb]
00006e  fbb7f1f4          UDIV     r1,r7,r4
;;;316    snmp_energy_pes_phase_a=Upes_eb2[0];
000072  fb047211          MLS      r2,r4,r1,r7
;;;317    snmp_energy_pes_phase_b=Upes_eb2[1];
000076  f1020230          ADD      r2,r2,#0x30
;;;318    snmp_energy_pes_phase_c=Upes_eb2[2];
00007a  73c2              STRB     r2,[r0,#0xf]
00007c  f1010130          ADD      r1,r1,#0x30
;;;319    
;;;320    #ifdef UKU_KONTUR
;;;321    snmp_energy_vvod_phase_a=Uvv0;
;;;322    snmp_energy_pes_phase_a=Uvv[1];
;;;323    #endif
;;;324    
;;;325    snmp_energy_total_energy=power_summary;
000080  7381              STRB     r1,[r0,#0xe]
000082  fbb6f1f4          UDIV     r1,r6,r4
000086  fb046211          MLS      r2,r4,r1,r6
;;;326    snmp_energy_current_energy=power_current;
00008a  f1020230          ADD      r2,r2,#0x30
;;;327    snmp_energy_input_voltage=net_U;
00008e  7482              STRB     r2,[r0,#0x12]
000090  f1010130          ADD      r1,r1,#0x30
;;;328    
;;;329    snmp_bat_number[0]=1;
000094  7441              STRB     r1,[r0,#0x11]
000096  e8bd9ff0          POP      {r4-r12,pc}
;;;330    snmp_bat_voltage[0]=bat[0]._Ub;
;;;331    snmp_bat_part_voltage[0]=bat[0]._Ubm;
;;;332    snmp_bat_current[0]=bat[0]._Ib;
;;;333    
;;;334    #ifdef UKU_220_IPS_TERMOKOMPENSAT
;;;335    if(((AUSW_MAIN==22063)||(AUSW_MAIN==22023))&&(bps[8]._device==dIBAT_METR))
;;;336    	{
;;;337    	snmp_bat_current[0]=Ib_ips_termokompensat;
;;;338    	}
;;;339    #endif
;;;340    
;;;341    snmp_bat_temperature[0]=bat[0]._Tb;
;;;342    if(BAT_C_REAL[0]==0x5555)snmp_bat_capacity[0]=BAT_C_NOM[0];
;;;343    else snmp_bat_capacity[0]=BAT_C_REAL[0];
;;;344    snmp_bat_charge[0]=bat[0]._zar;
;;;345    snmp_bat_status[0]=bat[0]._av;
;;;346    if(BAT_IS_ON[0]!=bisON)snmp_bat_status[0]=0xff;
;;;347    
;;;348    snmp_bat_number[1]=2;
;;;349    snmp_bat_voltage[1]=bat[1]._Ub;
;;;350    snmp_bat_part_voltage[1]=bat[1]._Ubm;
;;;351    snmp_bat_current[1]=bat[1]._Ib;
;;;352    snmp_bat_temperature[1]=bat[1]._Tb;
;;;353    if(BAT_C_REAL[1]==0x5555)snmp_bat_capacity[1]=BAT_C_NOM[1];
;;;354    else snmp_bat_capacity[1]=BAT_C_REAL[1];
;;;355    snmp_bat_charge[1]=bat[1]._zar;
;;;356    snmp_bat_status[1]=bat[1]._av;
;;;357    if(BAT_IS_ON[1]!=bisON)snmp_bat_status[1]=0xff;
;;;358    
;;;359    
;;;360    
;;;361    snmp_bps_number[0]=1;
;;;362    snmp_bps_voltage[0]=bps[0]._Uii;
;;;363    snmp_bps_current[0]=bps[0]._Ii;
;;;364    snmp_bps_temperature[0]=bps[0]._Ti;
;;;365    snmp_bps_stat[0]=bps[0]._av;
;;;366    if(!(NUMIST>0))snmp_bps_stat[0]=0xff;												//Байт состояния БПСа.
;;;367    
;;;368    /*if(St_[0]&(1<<2))snmp_bps_stat[0]=(1<<3); 							//авария по Umin
;;;369    else if(St_[0]&(1<<3))snmp_bps_stat[0]=(1<<2); 						//авария по Umax
;;;370    else if(bps[0]._av&(1<<0))snmp_bps_stat[0]=(1<<1); 						//авария по Tmax
;;;371    else if(St_[0]&(1<<5))snmp_bps_stat[0]=(1<<5); 						//заблокирован
;;;372    else if((!(St_[0]&0x3c))&&(!St&0x01)&&(!OFFBP1))snmp_bps_stat[0]=1; 		//Работает
;;;373    */
;;;374    
;;;375    snmp_bps_number[1]=2;
;;;376    snmp_bps_voltage[1]=bps[1]._Uii;
;;;377    snmp_bps_current[1]=bps[1]._Ii;
;;;378    snmp_bps_temperature[1]=bps[1]._Ti;
;;;379    snmp_bps_stat[1]=bps[1]._av;
;;;380    if(!(NUMIST>1))snmp_bps_stat[1]=0xff;												//Байт состояния БПСа.
;;;381    /*if(St_[1]&(1<<2))snmp_bps_stat[1]=(1<<3); 							//авария по Umin
;;;382    else if(St_[1]&(1<<3))snmp_bps_stat[1]=(1<<2); 						//авария по Umax
;;;383    else if(St_[1]&(1<<4))snmp_bps_stat[1]=(1<<1); 						//авария по Tmax
;;;384    else if(St_[1]&(1<<5))snmp_bps_stat[1]=(1<<5); 						//заблокирован
;;;385    else if((!(St_[1]&0x3c))&&(!St&0x01)&&(!OFFBP2))snmp_bps_stat[1]=1; 		//Работает
;;;386    */
;;;387    
;;;388    snmp_bps_number[2]=3;
;;;389    snmp_bps_voltage[2]=bps[2]._Uii;
;;;390    snmp_bps_current[2]=bps[2]._Ii;
;;;391    snmp_bps_temperature[2]=bps[2]._Ti;
;;;392    snmp_bps_stat[2]=bps[2]._av;
;;;393    if(!(NUMIST>2))snmp_bps_stat[2]=0xff;
;;;394    
;;;395    snmp_bps_number[3]=4;
;;;396    snmp_bps_voltage[3]=bps[3]._Uii;
;;;397    snmp_bps_current[3]=bps[3]._Ii;
;;;398    snmp_bps_temperature[3]=bps[3]._Ti;
;;;399    snmp_bps_stat[3]=bps[3]._av;
;;;400    if(!(NUMIST>3))snmp_bps_stat[3]=0xff;
;;;401    
;;;402    snmp_bps_number[4]=5;
;;;403    snmp_bps_voltage[4]=bps[4]._Uii;
;;;404    snmp_bps_current[4]=bps[4]._Ii;
;;;405    snmp_bps_temperature[4]=bps[4]._Ti;
;;;406    snmp_bps_stat[4]=bps[4]._av;
;;;407    if(!(NUMIST>4))snmp_bps_stat[4]=0xff;
;;;408    
;;;409    snmp_bps_number[5]=6;
;;;410    snmp_bps_voltage[5]=bps[5]._Uii;
;;;411    snmp_bps_current[5]=bps[5]._Ii;
;;;412    snmp_bps_temperature[5]=bps[5]._Ti;
;;;413    snmp_bps_stat[5]=bps[5]._av;
;;;414    if(!(NUMIST>5))snmp_bps_stat[5]=0xff;
;;;415    
;;;416    snmp_bps_number[6]=7;
;;;417    snmp_bps_voltage[6]=bps[6]._Uii;
;;;418    snmp_bps_current[6]=bps[6]._Ii;
;;;419    snmp_bps_temperature[6]=bps[6]._Ti;
;;;420    snmp_bps_stat[6]=bps[6]._av;
;;;421    if(!(NUMIST>6))snmp_bps_stat[6]=0xff;
;;;422    
;;;423    snmp_bps_number[7]=8;
;;;424    snmp_bps_voltage[7]=bps[7]._Uii;
;;;425    snmp_bps_current[7]=bps[7]._Ii;
;;;426    snmp_bps_temperature[7]=bps[7]._Ti;
;;;427    snmp_bps_stat[7]=bps[7]._av;
;;;428    if(!(NUMIST>7))snmp_bps_stat[7]=0xff;
;;;429    
;;;430    
;;;431    
;;;432    snmp_inv_number[0]=1;
;;;433    snmp_inv_voltage[0]=inv[0]._Uio;
;;;434    snmp_inv_current[0]=inv[0]._Ii;
;;;435    snmp_inv_temperature[0]=inv[0]._Ti;
;;;436    snmp_inv_stat[0]=inv[0]._flags_tm;
;;;437    
;;;438    snmp_inv_number[1]=2;
;;;439    snmp_inv_voltage[1]=inv[1]._Uio;
;;;440    snmp_inv_current[1]=inv[1]._Ii;
;;;441    snmp_inv_temperature[1]=inv[1]._Ti;
;;;442    snmp_inv_stat[1]=inv[1]._flags_tm;
;;;443    
;;;444    snmp_inv_number[2]=3;
;;;445    snmp_inv_voltage[2]=inv[2]._Uio;
;;;446    snmp_inv_current[2]=inv[2]._Ii;
;;;447    snmp_inv_temperature[2]=inv[2]._Ti;
;;;448    snmp_inv_stat[2]=inv[2]._flags_tm;
;;;449    
;;;450    
;;;451    
;;;452    
;;;453    					  
;;;454    snmp_sk_number[0]=1;
;;;455    memcpy(&snmp_sk_name[0][0],"Door",10);
;;;456    if(sk_stat[0]==ssON) snmp_sk_aktiv[0]=1;
;;;457    else snmp_sk_aktiv[0]=0;
;;;458    if(!SK_SIGN[0])snmp_sk_alarm_aktiv[0]=1;
;;;459    else snmp_sk_alarm_aktiv[0]=0;
;;;460    if(sk_av_stat[0]==sasON)	snmp_sk_alarm[0]=1;
;;;461    else                     snmp_sk_alarm[0]=0;
;;;462    
;;;463    
;;;464    snmp_sk_number[1]=2;
;;;465    memcpy(&snmp_sk_name[1][0],"Smoke",10);
;;;466    if(sk_stat[1]==ssON) snmp_sk_aktiv[1]=1;
;;;467    else snmp_sk_aktiv[1]=0;
;;;468    if(!SK_SIGN[1])snmp_sk_alarm_aktiv[1]=1;
;;;469    else snmp_sk_alarm_aktiv[1]=0;
;;;470    if(sk_av_stat[1]==sasON)	snmp_sk_alarm[1]=1;
;;;471    else                     snmp_sk_alarm[1]=0;
;;;472    
;;;473    snmp_sk_number[2]=3;
;;;474    memcpy(&snmp_sk_name[2][0],"Shock",10);
;;;475    if(sk_stat[2]==ssON) snmp_sk_aktiv[2]=1;
;;;476    else snmp_sk_aktiv[2]=0;
;;;477    if(!SK_SIGN[2])snmp_sk_alarm_aktiv[2]=1;
;;;478    else snmp_sk_alarm_aktiv[2]=0;
;;;479    if(sk_av_stat[2]==sasON)	snmp_sk_alarm[2]=1;
;;;480    else                     snmp_sk_alarm[2]=0;
;;;481    
;;;482    snmp_sk_number[3]=4;
;;;483    memcpy(&snmp_sk_name[3][0],"     ",10);
;;;484    if(sk_stat[3]==ssON) snmp_sk_aktiv[3]=1;
;;;485    else snmp_sk_aktiv[3]=0;
;;;486    if(!SK_SIGN[3])snmp_sk_alarm_aktiv[3]=1;
;;;487    else snmp_sk_alarm_aktiv[3]=0;
;;;488    if(sk_av_stat[3]==sasON)	snmp_sk_alarm[3]=1;
;;;489    else                     snmp_sk_alarm[3]=0;
;;;490    
;;;491    
;;;492    if(makb[0]._cnt>8) snmp_makb_connect_status[0]=1;
;;;493    else if(makb[0]._cnt<2) snmp_makb_connect_status[0]=0;
;;;494    if(makb[1]._cnt>8) snmp_makb_connect_status[1]=1;
;;;495    else if(makb[1]._cnt<2) snmp_makb_connect_status[1]=0;
;;;496    if(makb[2]._cnt>8) snmp_makb_connect_status[2]=1;
;;;497    else if(makb[2]._cnt<2) snmp_makb_connect_status[2]=0;
;;;498    if(makb[3]._cnt>8) snmp_makb_connect_status[3]=1;
;;;499    else if(makb[3]._cnt<2) snmp_makb_connect_status[3]=0;
;;;500    
;;;501    snmp_makb_voltage0[0]=makb[0]._Ub[0];
;;;502    snmp_makb_voltage1[0]=makb[0]._Ub[1];
;;;503    snmp_makb_voltage2[0]=makb[0]._Ub[2];
;;;504    snmp_makb_voltage3[0]=makb[0]._Ub[3];
;;;505    snmp_makb_voltage4[0]=makb[0]._Ub[4];
;;;506    snmp_makb_voltage0[1]=makb[1]._Ub[0];
;;;507    snmp_makb_voltage1[1]=makb[1]._Ub[1];
;;;508    snmp_makb_voltage2[1]=makb[1]._Ub[2];
;;;509    snmp_makb_voltage3[1]=makb[1]._Ub[3];
;;;510    snmp_makb_voltage4[1]=makb[1]._Ub[4];
;;;511    snmp_makb_voltage0[2]=makb[2]._Ub[0];
;;;512    snmp_makb_voltage1[2]=makb[2]._Ub[1];
;;;513    snmp_makb_voltage2[2]=makb[2]._Ub[2];
;;;514    snmp_makb_voltage3[2]=makb[2]._Ub[3];
;;;515    snmp_makb_voltage4[2]=makb[2]._Ub[4];
;;;516    snmp_makb_voltage0[3]=makb[3]._Ub[0];
;;;517    snmp_makb_voltage1[3]=makb[3]._Ub[1];
;;;518    snmp_makb_voltage2[3]=makb[3]._Ub[2];
;;;519    snmp_makb_voltage3[3]=makb[3]._Ub[3];
;;;520    snmp_makb_voltage4[3]=makb[3]._Ub[4];
;;;521    
;;;522    snmp_makb_temper0[0]=makb[0]._T[0];
;;;523    snmp_makb_temper1[0]=makb[0]._T[1];
;;;524    snmp_makb_temper2[0]=makb[0]._T[2];
;;;525    snmp_makb_temper3[0]=makb[0]._T[3];
;;;526    snmp_makb_temper4[0]=makb[0]._T[4];
;;;527    snmp_makb_temper0[1]=makb[1]._T[0];
;;;528    snmp_makb_temper1[1]=makb[1]._T[1];
;;;529    snmp_makb_temper2[1]=makb[1]._T[2];
;;;530    snmp_makb_temper3[1]=makb[1]._T[3];
;;;531    snmp_makb_temper4[1]=makb[1]._T[4];
;;;532    snmp_makb_temper0[2]=makb[2]._T[0];
;;;533    snmp_makb_temper1[2]=makb[2]._T[1];
;;;534    snmp_makb_temper2[2]=makb[2]._T[2];
;;;535    snmp_makb_temper3[2]=makb[2]._T[3];
;;;536    snmp_makb_temper4[2]=makb[2]._T[4];
;;;537    snmp_makb_temper0[3]=makb[3]._T[0];
;;;538    snmp_makb_temper1[3]=makb[3]._T[1];
;;;539    snmp_makb_temper2[3]=makb[3]._T[2];
;;;540    snmp_makb_temper3[3]=makb[3]._T[3];
;;;541    snmp_makb_temper4[3]=makb[3]._T[4];
;;;542    
;;;543    snmp_makb_temper0_stat[0]=makb[0]._T_nd[0];
;;;544    snmp_makb_temper1_stat[0]=makb[0]._T_nd[1];
;;;545    snmp_makb_temper2_stat[0]=makb[0]._T_nd[2];
;;;546    snmp_makb_temper3_stat[0]=makb[0]._T_nd[3];
;;;547    snmp_makb_temper4_stat[0]=makb[0]._T_nd[4];
;;;548    snmp_makb_temper0_stat[1]=makb[1]._T_nd[0];
;;;549    snmp_makb_temper1_stat[1]=makb[1]._T_nd[1];
;;;550    snmp_makb_temper2_stat[1]=makb[1]._T_nd[2];
;;;551    snmp_makb_temper3_stat[1]=makb[1]._T_nd[3];
;;;552    snmp_makb_temper4_stat[1]=makb[1]._T_nd[4];
;;;553    snmp_makb_temper0_stat[2]=makb[2]._T_nd[0];
;;;554    snmp_makb_temper1_stat[2]=makb[2]._T_nd[1];
;;;555    snmp_makb_temper2_stat[2]=makb[2]._T_nd[2];
;;;556    snmp_makb_temper3_stat[2]=makb[2]._T_nd[3];
;;;557    snmp_makb_temper4_stat[2]=makb[2]._T_nd[4];
;;;558    snmp_makb_temper0_stat[3]=makb[3]._T_nd[0];
;;;559    snmp_makb_temper1_stat[3]=makb[3]._T_nd[1];
;;;560    snmp_makb_temper2_stat[3]=makb[3]._T_nd[2];
;;;561    snmp_makb_temper3_stat[3]=makb[3]._T_nd[3];
;;;562    snmp_makb_temper4_stat[3]=makb[3]._T_nd[4];
;;;563    
;;;564    
;;;565    snmp_klimat_box_temper=t_box;
;;;566    snmp_klimat_settings_box_alarm=TBOXMAX;
;;;567    snmp_klimat_settings_vent_on=TBOXVENTON;
;;;568    snmp_klimat_settings_vent_off=TBOXVENTOFF;
;;;569    snmp_klimat_settings_warm_on=TBOXWARMON;
;;;570    snmp_klimat_settings_warm_off=TBOXWARMOFF;
;;;571    snmp_klimat_settings_load_on=TLOADENABLE;
;;;572    snmp_klimat_settings_load_off=TLOADDISABLE;
;;;573    snmp_klimat_settings_batt_on=TBATENABLE;
;;;574    snmp_klimat_settings_batt_off=TBATDISABLE;
;;;575    
;;;576    snmp_dt_ext=t_ext[0];
;;;577    snmp_dt_msan=t_ext[1];
;;;578    snmp_dt_epu=t_ext[2];
;;;579    
;;;580    /*
;;;581    snmp_bat_voltage=Ubat;
;;;582    snmp_bat_current=Ibat;
;;;583    snmp_bat_temperature=t_b;
;;;584    if(BAT_C_REAL==0x5555)
;;;585    	{
;;;586    	snmp_bat_capacity=BAT_C_NOM*10;												    11
;;;587    	}
;;;588    else
;;;589    	{
;;;590    	snmp_bat_capacity=BAT_C_REAL;
;;;591    	}
;;;592    snmp_bat_charge=zar_percent;
;;;593    snmp_bat_status=0;
;;;594    if(St&0x02)snmp_bat_status|=0x01;
;;;595    if(Ibat>0)snmp_bat_status|=0x02;
;;;596    
;;;597    
;;;598    if(spc_stat==spc_OFF) snmp_spc_stat=0;
;;;599    else if(spc_stat==spc_KE) snmp_spc_stat=1;
;;;600    else if(spc_stat==spc_VZ) snmp_spc_stat=10;
;;;601    
;;;602    
;;;603    snmp_main_bps=MAIN_IST+1;
;;;604    */
;;;605    snmp_zv_en=ZV_ON;
;;;606    snmp_alarm_auto_disable=AV_OFF_AVT;
;;;607    snmp_bat_test_time=TBAT;
;;;608    snmp_u_max=UMAX;
;;;609    //snmp_u_min=UB20-DU;
;;;610    //snmp_u_0_grad=UB0;
;;;611    //snmp_u_20_grad=UB20;
;;;612    snmp_u_sign=USIGN;
;;;613    snmp_u_min_power=UMN;
;;;614    snmp_u_withouth_bat=U0B;
;;;615    snmp_control_current=IKB;
;;;616    snmp_max_charge_current=IZMAX;
;;;617    snmp_max_current=IMAX;
;;;618    snmp_min_current=IMIN;
;;;619    //snmp_max_current_koef=KIMAX;
;;;620    //snmp_uvz=UVZ;
;;;621    snmp_powerup_psu_timeout=TZAS;
;;;622    snmp_max_temperature=TMAX;
;;;623    snmp_tsign_bat=TBATSIGN; 
;;;624    snmp_tmax_bat=TBATMAX;
;;;625    snmp_tsign_bps=TSIGN;
;;;626    snmp_tmax_bps=TMAX;
;;;627    snmp_bat_part_alarm=UBM_AV; 
;;;628    snmp_power_cnt_adress=POWER_CNT_ADRESS;
;;;629    
;;;630    for(i=0;i<12;i++)
;;;631    	{
;;;632    	snmp_avt_number[i]=i+1;
;;;633    	if(avt_stat[i]==avtOFF)snmp_avt_stat[i]=0;
;;;634    	else snmp_avt_stat[i]=1;
;;;635    	}
;;;636    
;;;637    snmp_dt_number[0]=1;
;;;638    snmp_dt_number[1]=2;
;;;639    snmp_dt_number[2]=3;
;;;640    //snmp_dt_number[3]=4;
;;;641    snmp_dt_temper[0]=t_ext[0];
;;;642    snmp_dt_temper[1]=t_ext[1];
;;;643    snmp_dt_temper[2]=t_ext[2];
;;;644    //snmp_dt_temper[3]=t_ext[3];
;;;645    snmp_dt_error[0]=ND_EXT[0];
;;;646    if(NUMDT<1)snmp_dt_error[0]=0xff;
;;;647    snmp_dt_error[1]=ND_EXT[1];
;;;648    if(NUMDT<2)snmp_dt_error[0]=0xff;
;;;649    snmp_dt_error[2]=ND_EXT[2];
;;;650    if(NUMDT<3)snmp_dt_error[0]=0xff;
;;;651    //snmp_dt_error[3]=ND_EXT[3];
;;;652    if(NUMDT<4)snmp_dt_error[0]=0xff;
;;;653    
;;;654    /*
;;;655    //Литиевые батареи
;;;656    snmp_lakb_number[0]=1;								//Номер ЛАКБ
;;;657    snmp_lakb_number[1]=2;								//Номер ЛАКБ
;;;658    snmp_lakb_voltage[0]=lakb[0]._tot_bat_volt;				//Напряжение ЛАКБ
;;;659    snmp_lakb_voltage[1]=lakb[1]._tot_bat_volt;				//Напряжение ЛАКБ
;;;660    snmp_lakb_max_cell_voltage[0]=lakb[0]._max_cell_volt;		//Максимальное напряжение ячейки ЛАКБ
;;;661    snmp_lakb_max_cell_voltage[1]=lakb[1]._max_cell_volt;		//Максимальное напряжение ячейки ЛАКБ
;;;662    snmp_lakb_min_cell_voltage[0]=lakb[0]._min_cell_volt;		//Минимальное напряжение ячейки ЛАКБ
;;;663    snmp_lakb_min_cell_voltage[1]=lakb[1]._min_cell_volt;		//Минимальное напряжение ячейки ЛАКБ
;;;664    snmp_lakb_max_cell_temperature[0]=lakb[0]._max_cell_temp;	//Максимальная температура ячейки ЛАКБ
;;;665    snmp_lakb_max_cell_temperature[1]=lakb[1]._max_cell_temp;	//Максимальная температура ячейки ЛАКБ
;;;666    snmp_lakb_min_cell_temperature[0]=lakb[0]._min_cell_temp;	//Минимальная температура ячейки ЛАКБ
;;;667    snmp_lakb_min_cell_temperature[1]=lakb[1]._min_cell_temp;	//Минимальная температура ячейки ЛАКБ
;;;668    snmp_lakb_ch_curr[0]=lakb[0]._ch_curr;					//Ток заряда ЛАКБ
;;;669    snmp_lakb_ch_curr[1]=lakb[1]._ch_curr;					//Ток заряда ЛАКБ
;;;670    snmp_lakb_dsch_curr[0]=lakb[0]._dsch_curr;				//Ток разряда ЛАКБ
;;;671    snmp_lakb_dsch_curr[1]=lakb[1]._dsch_curr;				//Ток разряда ЛАКБ
;;;672    snmp_lakb_rat_cap[0]=lakb[0]._rat_cap;					//Номинальная емкость ЛАКБ
;;;673    snmp_lakb_rat_cap[1]=lakb[1]._rat_cap;					//Номинальная емкость ЛАКБ
;;;674    snmp_lakb_soh[0]=lakb[0]._s_o_h;						//Остаточная емкость ЛАКБ
;;;675    snmp_lakb_soh[1]=lakb[1]._s_o_h;						//Остаточная емкость ЛАКБ
;;;676    snmp_lakb_soc[0]=lakb[0]._s_o_c;						//Заряд ЛАКБ
;;;677    snmp_lakb_soc[1]=lakb[1]._s_o_c;						//Заряд ЛАКБ
;;;678    snmp_lakb_cclv[0]=lakb[0]._c_c_l_v;  					//Максимальный ток заряда ЛАКБ
;;;679    snmp_lakb_cclv[1]=lakb[1]._c_c_l_v;  					//Максимальный ток заряда ЛАКБ
;;;680    snmp_lakb_rbt[0]=lakb[0]._r_b_t;						//Оцениваемое время работы ЛАКБ
;;;681    snmp_lakb_rbt[1]=lakb[1]._r_b_t;						//Оцениваемое время работы ЛАКБ
;;;682    snmp_lakb_flags1[0]=lakb[0]._flags1;					//Первый флаг состояния ЛАКБ
;;;683    snmp_lakb_flags1[1]=lakb[1]._flags1;					//Первый флаг состояния ЛАКБ
;;;684    snmp_lakb_flags2[0]=lakb[0]._flags2;					//Второй флаг состояния ЛАКБ
;;;685    snmp_lakb_flags2[1]=lakb[1]._flags2;					//Второй флаг состояния ЛАКБ */
;;;686    
;;;687    //Литиевые батареи
;;;688    snmp_lakb_number[0]=1;								//Номер ЛАКБ
;;;689    snmp_lakb_number[1]=2;								//Номер ЛАКБ
;;;690    snmp_lakb_number[2]=3;								//Номер ЛАКБ
;;;691    snmp_lakb_number[3]=4;								//Номер ЛАКБ
;;;692    snmp_lakb_number[4]=5;								//Номер ЛАКБ
;;;693    snmp_lakb_number[5]=6;								//Номер ЛАКБ
;;;694    snmp_lakb_number[6]=7;								//Номер ЛАКБ
;;;695    
;;;696    for (i=0;i<3;i++)
;;;697    	{
;;;698    	snmp_lakb_voltage[i]=lakb[i]._tot_bat_volt;				//Напряжение ЛАКБ
;;;699    	snmp_lakb_max_cell_voltage[i]=lakb[i]._max_cell_volt;		//Максимальное напряжение ячейки ЛАКБ
;;;700    	snmp_lakb_min_cell_voltage[i]=lakb[i]._min_cell_volt;		//Минимальное напряжение ячейки ЛАКБ
;;;701    	snmp_lakb_max_cell_temperature[i]=lakb[i]._max_cell_temp;	//Максимальная температура ячейки ЛАКБ
;;;702    	//snmp_lakb_max_cell_temperature[1]=lakb[1]._max_cell_temp;	//Максимальная температура ячейки ЛАКБ
;;;703    	snmp_lakb_min_cell_temperature[i]=lakb[i]._min_cell_temp;	//Минимальная температура ячейки ЛАКБ
;;;704    	//snmp_lakb_min_cell_temperature[1]=lakb[1]._min_cell_temp;	//Минимальная температура ячейки ЛАКБ
;;;705    	snmp_lakb_ch_curr[i]=lakb[i]._ch_curr;					//Ток заряда ЛАКБ
;;;706    	//snmp_lakb_ch_curr[1]=lakb[1]._ch_curr;					//Ток заряда ЛАКБ
;;;707    	snmp_lakb_dsch_curr[i]=lakb[i]._dsch_curr;				//Ток разряда ЛАКБ
;;;708    	//snmp_lakb_dsch_curr[1]=lakb[1]._dsch_curr;				//Ток разряда ЛАКБ
;;;709    	snmp_lakb_rat_cap[i]=lakb[i]._rat_cap;					//Номинальная емкость ЛАКБ
;;;710    	//snmp_lakb_rat_cap[1]=lakb[1]._rat_cap;					//Номинальная емкость ЛАКБ
;;;711    	snmp_lakb_soh[i]=lakb[i]._s_o_h;						//Остаточная емкость ЛАКБ
;;;712    	//snmp_lakb_soh[1]=lakb[1]._s_o_h;						//Остаточная емкость ЛАКБ
;;;713    	snmp_lakb_soc[i]=lakb[i]._s_o_c;						//Заряд ЛАКБ
;;;714    	//snmp_lakb_soc[1]=lakb[1]._s_o_c;						//Заряд ЛАКБ
;;;715    	snmp_lakb_cclv[i]=lakb[i]._c_c_l_v;  					//Максимальный ток заряда ЛАКБ
;;;716    	//snmp_lakb_cclv[1]=lakb[1]._c_c_l_v;  					//Максимальный ток заряда ЛАКБ
;;;717    	snmp_lakb_rbt[i]=lakb[i]._r_b_t;						//Оцениваемое время работы ЛАКБ
;;;718    	//snmp_lakb_rbt[1]=lakb[1]._r_b_t;						//Оцениваемое время работы ЛАКБ
;;;719    	snmp_lakb_flags1[i]=lakb[i]._flags1;					//Первый флаг состояния ЛАКБ
;;;720    	//snmp_lakb_flags1[1]=lakb[1]._flags1;					//Первый флаг состояния ЛАКБ
;;;721    	snmp_lakb_flags2[i]=lakb[i]._flags2;					//Второй флаг состояния ЛАКБ
;;;722    	//snmp_lakb_flags2[1]=lakb[1]._flags2;					//Второй флаг состояния ЛАКБ
;;;723    
;;;724    	snmp_lakb_cell_temperature_1[i]= lakb[i]._cell_temp_1;
;;;725    	snmp_lakb_cell_temperature_2[i]= lakb[i]._cell_temp_2;
;;;726    	snmp_lakb_cell_temperature_3[i]= lakb[i]._cell_temp_3;
;;;727    	snmp_lakb_cell_temperature_4[i]= lakb[i]._cell_temp_4;
;;;728    	snmp_lakb_cell_temperature_ambient[i]=lakb[i]._cell_temp_ambient;
;;;729    	snmp_lakb_cell_temperature_power[i]=lakb[i]._cell_temp_power;
;;;730    	}
;;;731    
;;;732    for (i=0;i<7;i++)
;;;733    {
;;;734    /*
;;;735    snmp_lakb_damp1[i][0]=ABCDEF[(lakb_damp[i][0])>>4];			//Дамп
;;;736    snmp_lakb_damp1[i][1]=ABCDEF[(lakb_damp[i][0])&0x0f];			//Дамп
;;;737    snmp_lakb_damp1[i][2]=' ';
;;;738    snmp_lakb_damp1[i][3]=ABCDEF[(lakb_damp[i][1])>>4];			//Дамп
;;;739    snmp_lakb_damp1[i][4]=ABCDEF[(lakb_damp[i][1])&0x0f];			//Дамп
;;;740    snmp_lakb_damp1[i][5]=' ';
;;;741    snmp_lakb_damp1[i][6]=ABCDEF[(lakb_damp[i][2])>>4];			//Дамп
;;;742    snmp_lakb_damp1[i][7]=ABCDEF[(lakb_damp[i][2])&0x0f];			//Дамп
;;;743    snmp_lakb_damp1[i][8]=' ';
;;;744    snmp_lakb_damp1[i][9]=ABCDEF[(lakb_damp[i][3])>>4];			//Дамп
;;;745    snmp_lakb_damp1[i][10]=ABCDEF[(lakb_damp[i][3])&0x0f];			//Дамп
;;;746    snmp_lakb_damp1[i][11]=' ';
;;;747    snmp_lakb_damp1[i][12]=ABCDEF[(lakb_damp[i][4])>>4];			//Дамп
;;;748    snmp_lakb_damp1[i][13]=ABCDEF[(lakb_damp[i][4])&0x0f];			//Дамп
;;;749    snmp_lakb_damp1[i][14]=' '; 
;;;750    snmp_lakb_damp1[i][15]=ABCDEF[(lakb_damp[i][5])>>4];			//Дамп
;;;751    snmp_lakb_damp1[i][16]=ABCDEF[(lakb_damp[i][5])&0x0f];			//Дамп
;;;752    snmp_lakb_damp1[i][17]=' ';
;;;753    snmp_lakb_damp1[i][18]=ABCDEF[(lakb_damp[i][6])>>4];			//Дамп
;;;754    snmp_lakb_damp1[i][19]=ABCDEF[(lakb_damp[i][6])&0x0f];			//Дамп
;;;755    snmp_lakb_damp1[i][20]=' ';
;;;756    snmp_lakb_damp1[i][21]=ABCDEF[(lakb_damp[i][7])>>4];			//Дамп
;;;757    snmp_lakb_damp1[i][22]=ABCDEF[(lakb_damp[i][7])&0x0f];			//Дамп
;;;758    snmp_lakb_damp1[i][23]=' ';
;;;759    snmp_lakb_damp1[i][24]=ABCDEF[(lakb_damp[i][8])>>4];			//Дамп
;;;760    snmp_lakb_damp1[i][25]=ABCDEF[(lakb_damp[i][8])&0x0f];			//Дамп
;;;761    snmp_lakb_damp1[i][26]=' ';
;;;762    snmp_lakb_damp1[i][27]=ABCDEF[(lakb_damp[i][9])>>4];			//Дамп
;;;763    snmp_lakb_damp1[i][28]=ABCDEF[(lakb_damp[i][9])&0x0f];			//Дамп
;;;764    snmp_lakb_damp1[i][29]=0; 
;;;765    
;;;766    snmp_lakb_damp1[i][30]=ABCDEF[(lakb_damp[i][10])>>4];			//Дамп
;;;767    snmp_lakb_damp1[i][31]=ABCDEF[(lakb_damp[i][10])&0x0f];			//Дамп
;;;768    snmp_lakb_damp1[i][32]=' ';
;;;769    snmp_lakb_damp1[i][33]=ABCDEF[(lakb_damp[i][11])>>4];			//Дамп
;;;770    snmp_lakb_damp1[i][34]=ABCDEF[(lakb_damp[i][11])&0x0f];			//Дамп
;;;771    snmp_lakb_damp1[i][35]=' ';
;;;772    snmp_lakb_damp1[i][36]=ABCDEF[(lakb_damp[i][12])>>4];			//Дамп
;;;773    snmp_lakb_damp1[i][37]=ABCDEF[(lakb_damp[i][12])&0x0f];			//Дамп
;;;774    snmp_lakb_damp1[i][38]=' ';
;;;775    snmp_lakb_damp1[i][39]=ABCDEF[(lakb_damp[i][13])>>4];			//Дамп
;;;776    snmp_lakb_damp1[i][40]=ABCDEF[(lakb_damp[i][13])&0x0f];			//Дамп
;;;777    snmp_lakb_damp1[i][41]=' ';
;;;778    snmp_lakb_damp1[i][42]=ABCDEF[(lakb_damp[i][14])>>4];			//Дамп
;;;779    snmp_lakb_damp1[i][43]=ABCDEF[(lakb_damp[i][14])&0x0f];			//Дамп
;;;780    snmp_lakb_damp1[i][44]=' '; 
;;;781    snmp_lakb_damp1[i][45]=ABCDEF[(lakb_damp[i][15])>>4];			//Дамп
;;;782    snmp_lakb_damp1[i][46]=ABCDEF[(lakb_damp[i][15])&0x0f];			//Дамп
;;;783    snmp_lakb_damp1[i][47]=' ';
;;;784    snmp_lakb_damp1[i][48]=ABCDEF[(lakb_damp[i][16])>>4];			//Дамп
;;;785    snmp_lakb_damp1[i][49]=ABCDEF[(lakb_damp[i][16])&0x0f];			//Дамп
;;;786    snmp_lakb_damp1[i][50]=' ';
;;;787    snmp_lakb_damp1[i][51]=ABCDEF[(lakb_damp[i][17])>>4];			//Дамп
;;;788    snmp_lakb_damp1[i][52]=ABCDEF[(lakb_damp[i][17])&0x0f];			//Дамп
;;;789    snmp_lakb_damp1[i][53]=' ';
;;;790    snmp_lakb_damp1[i][54]=ABCDEF[(lakb_damp[i][18])>>4];			//Дамп
;;;791    snmp_lakb_damp1[i][55]=ABCDEF[(lakb_damp[i][18])&0x0f];			//Дамп
;;;792    snmp_lakb_damp1[i][56]=' ';
;;;793    snmp_lakb_damp1[i][57]=ABCDEF[(lakb_damp[i][19])>>4];			//Дамп
;;;794    snmp_lakb_damp1[i][58]=ABCDEF[(lakb_damp[i][19])&0x0f];			//Дамп
;;;795    snmp_lakb_damp1[i][59]=0; 
;;;796    
;;;797    
;;;798    snmp_lakb_damp1[i][60]=ABCDEF[(lakb_damp[i][20])>>4];			//Дамп
;;;799    snmp_lakb_damp1[i][61]=ABCDEF[(lakb_damp[i][20])&0x0f];			//Дамп
;;;800    snmp_lakb_damp1[i][62]=' ';
;;;801    snmp_lakb_damp1[i][63]=ABCDEF[(lakb_damp[i][21])>>4];			//Дамп
;;;802    snmp_lakb_damp1[i][64]=ABCDEF[(lakb_damp[i][21])&0x0f];			//Дамп
;;;803    snmp_lakb_damp1[i][65]=' ';
;;;804    snmp_lakb_damp1[i][66]=ABCDEF[(lakb_damp[i][22])>>4];			//Дамп
;;;805    snmp_lakb_damp1[i][67]=ABCDEF[(lakb_damp[i][22])&0x0f];			//Дамп
;;;806    snmp_lakb_damp1[i][68]=' ';
;;;807    snmp_lakb_damp1[i][69]=ABCDEF[(lakb_damp[i][23])>>4];			//Дамп
;;;808    snmp_lakb_damp1[i][70]=ABCDEF[(lakb_damp[i][23])&0x0f];			//Дамп
;;;809    snmp_lakb_damp1[i][71]=' ';
;;;810    snmp_lakb_damp1[i][72]=ABCDEF[(lakb_damp[i][24])>>4];			//Дамп
;;;811    snmp_lakb_damp1[i][73]=ABCDEF[(lakb_damp[i][24])&0x0f];			//Дамп
;;;812    snmp_lakb_damp1[i][74]=' '; 
;;;813    snmp_lakb_damp1[i][75]=ABCDEF[(lakb_damp[i][25])>>4];			//Дамп
;;;814    snmp_lakb_damp1[i][76]=ABCDEF[(lakb_damp[i][25])&0x0f];			//Дамп
;;;815    snmp_lakb_damp1[i][77]=' ';
;;;816    snmp_lakb_damp1[i][78]=ABCDEF[(lakb_damp[i][26])>>4];			//Дамп
;;;817    snmp_lakb_damp1[i][79]=ABCDEF[(lakb_damp[i][26])&0x0f];			//Дамп
;;;818    snmp_lakb_damp1[i][80]=' ';
;;;819    snmp_lakb_damp1[i][81]=ABCDEF[(lakb_damp[i][27])>>4];			//Дамп
;;;820    snmp_lakb_damp1[i][82]=ABCDEF[(lakb_damp[i][27])&0x0f];			//Дамп
;;;821    snmp_lakb_damp1[i][83]=' ';
;;;822    snmp_lakb_damp1[i][84]=ABCDEF[(lakb_damp[i][28])>>4];			//Дамп
;;;823    snmp_lakb_damp1[i][85]=ABCDEF[(lakb_damp[i][28])&0x0f];			//Дамп
;;;824    snmp_lakb_damp1[i][86]=' ';
;;;825    snmp_lakb_damp1[i][87]=ABCDEF[(lakb_damp[i][29])>>4];			//Дамп
;;;826    snmp_lakb_damp1[i][88]=ABCDEF[(lakb_damp[i][29])&0x0f];			//Дамп
;;;827    snmp_lakb_damp1[i][89]=0;
;;;828    
;;;829    
;;;830    snmp_lakb_damp1[i][90]=ABCDEF[(lakb_damp[i][30])>>4];			//Дамп
;;;831    snmp_lakb_damp1[i][91]=ABCDEF[(lakb_damp[i][30])&0x0f];			//Дамп
;;;832    snmp_lakb_damp1[i][92]=' ';
;;;833    snmp_lakb_damp1[i][93]=ABCDEF[(lakb_damp[i][31])>>4];			//Дамп
;;;834    snmp_lakb_damp1[i][94]=ABCDEF[(lakb_damp[i][31])&0x0f];			//Дамп
;;;835    snmp_lakb_damp1[i][95]=' ';
;;;836    snmp_lakb_damp1[i][96]=ABCDEF[(lakb_damp[i][32])>>4];			//Дамп
;;;837    snmp_lakb_damp1[i][97]=ABCDEF[(lakb_damp[i][32])&0x0f];			//Дамп
;;;838    snmp_lakb_damp1[i][98]=' ';
;;;839    snmp_lakb_damp1[i][99]=ABCDEF[(lakb_damp[i][33])>>4];			//Дамп
;;;840    snmp_lakb_damp1[i][100]=ABCDEF[(lakb_damp[i][33])&0x0f];			//Дамп
;;;841    snmp_lakb_damp1[i][101]=' ';
;;;842    snmp_lakb_damp1[i][102]=ABCDEF[(lakb_damp[i][34])>>4];			//Дамп
;;;843    snmp_lakb_damp1[i][103]=ABCDEF[(lakb_damp[i][34])&0x0f];			//Дамп
;;;844    snmp_lakb_damp1[i][104]=' '; 
;;;845    snmp_lakb_damp1[i][105]=ABCDEF[(lakb_damp[i][35])>>4];			//Дамп
;;;846    snmp_lakb_damp1[i][106]=ABCDEF[(lakb_damp[i][35])&0x0f];			//Дамп
;;;847    snmp_lakb_damp1[i][107]=' ';
;;;848    snmp_lakb_damp1[i][108]=ABCDEF[(lakb_damp[i][36])>>4];			//Дамп
;;;849    snmp_lakb_damp1[i][109]=ABCDEF[(lakb_damp[i][36])&0x0f];			//Дамп
;;;850    snmp_lakb_damp1[i][110]=' ';
;;;851    snmp_lakb_damp1[i][111]=ABCDEF[(lakb_damp[i][37])>>4];			//Дамп
;;;852    snmp_lakb_damp1[i][112]=ABCDEF[(lakb_damp[i][37])&0x0f];			//Дамп
;;;853    snmp_lakb_damp1[i][113]=' ';
;;;854    snmp_lakb_damp1[i][114]=ABCDEF[(lakb_damp[i][38])>>4];			//Дамп
;;;855    snmp_lakb_damp1[i][115]=ABCDEF[(lakb_damp[i][38])&0x0f];			//Дамп
;;;856    snmp_lakb_damp1[i][116]=' ';
;;;857    snmp_lakb_damp1[i][117]=ABCDEF[(lakb_damp[i][39])>>4];			//Дамп
;;;858    snmp_lakb_damp1[i][118]=ABCDEF[(lakb_damp[i][39])&0x0f];			//Дамп
;;;859    snmp_lakb_damp1[i][119]=0; 
;;;860     
;;;861    
;;;862    snmp_lakb_damp1[i][120]=ABCDEF[(lakb_damp[i][40])>>4];			//Дамп
;;;863    snmp_lakb_damp1[i][121]=ABCDEF[(lakb_damp[i][40])&0x0f];			//Дамп
;;;864    snmp_lakb_damp1[i][122]=' ';
;;;865    snmp_lakb_damp1[i][123]=ABCDEF[(lakb_damp[i][41])>>4];			//Дамп
;;;866    snmp_lakb_damp1[i][124]=ABCDEF[(lakb_damp[i][41])&0x0f];			//Дамп
;;;867    snmp_lakb_damp1[i][125]=' ';
;;;868    snmp_lakb_damp1[i][126]=ABCDEF[(lakb_damp[i][42])>>4];			//Дамп
;;;869    snmp_lakb_damp1[i][127]=ABCDEF[(lakb_damp[i][42])&0x0f];			//Дамп
;;;870    snmp_lakb_damp1[i][128]=' ';
;;;871    snmp_lakb_damp1[i][129]=ABCDEF[(lakb_damp[i][43])>>4];			//Дамп
;;;872    snmp_lakb_damp1[i][130]=ABCDEF[(lakb_damp[i][43])&0x0f];			//Дамп
;;;873    snmp_lakb_damp1[i][131]=' ';
;;;874    snmp_lakb_damp1[i][132]=ABCDEF[(lakb_damp[i][44])>>4];			//Дамп
;;;875    snmp_lakb_damp1[i][133]=ABCDEF[(lakb_damp[i][44])&0x0f];			//Дамп
;;;876    snmp_lakb_damp1[i][134]=' '; 
;;;877    snmp_lakb_damp1[i][135]=ABCDEF[(lakb_damp[i][45])>>4];			//Дамп
;;;878    snmp_lakb_damp1[i][136]=ABCDEF[(lakb_damp[i][45])&0x0f];			//Дамп
;;;879    snmp_lakb_damp1[i][137]=' ';
;;;880    snmp_lakb_damp1[i][138]=ABCDEF[(lakb_damp[i][46])>>4];			//Дамп
;;;881    snmp_lakb_damp1[i][139]=ABCDEF[(lakb_damp[i][46])&0x0f];			//Дамп
;;;882    snmp_lakb_damp1[i][140]=' ';
;;;883    snmp_lakb_damp1[i][141]=ABCDEF[(lakb_damp[i][47])>>4];			//Дамп
;;;884    snmp_lakb_damp1[i][142]=ABCDEF[(lakb_damp[i][47])&0x0f];			//Дамп
;;;885    snmp_lakb_damp1[i][143]=' ';
;;;886    snmp_lakb_damp1[i][144]=ABCDEF[(lakb_damp[i][48])>>4];			//Дамп
;;;887    snmp_lakb_damp1[i][145]=ABCDEF[(lakb_damp[i][48])&0x0f];			//Дамп
;;;888    snmp_lakb_damp1[i][146]=' ';
;;;889    snmp_lakb_damp1[i][147]=ABCDEF[(lakb_damp[i][49])>>4];			//Дамп
;;;890    snmp_lakb_damp1[i][148]=ABCDEF[(lakb_damp[i][49])&0x0f];			//Дамп
;;;891    snmp_lakb_damp1[i][149]=0;  */
;;;892    }
;;;893    
;;;894    #ifdef UKU_TELECORE2017
;;;895    snmp_warm_sign=0;
;;;896    if(TELECORE2017_KLIMAT_WARM_SIGNAL==0) snmp_warm_sign=2;
;;;897    else if(TELECORE2017_KLIMAT_WARM_SIGNAL==1) snmp_warm_sign=1;
;;;898    snmp_cool_sign=0;
;;;899    if(TELECORE2017_KLIMAT_VENT_SIGNAL==0) snmp_cool_sign=2;
;;;900    else if(TELECORE2017_KLIMAT_VENT_SIGNAL==1) snmp_cool_sign=1;
;;;901    snmp_warm_on_temper=(signed char)TELECORE2017_KLIMAT_WARM_ON; 
;;;902    snmp_warm_off_temper=(signed char)TELECORE2017_KLIMAT_WARM_OFF;
;;;903    snmp_warm_q=(signed char)TELECORE2017_KLIMAT_CAP;	
;;;904    snmp_cool_20_temper=(signed char)TELECORE2017_KLIMAT_VENT_ON20;
;;;905    snmp_cool_40_temper=(signed char)TELECORE2017_KLIMAT_VENT_ON40;
;;;906    snmp_cool_60_temper=(signed char)TELECORE2017_KLIMAT_VENT_ON60;
;;;907    snmp_cool_80_temper=(signed char)TELECORE2017_KLIMAT_VENT_ON80;
;;;908    snmp_cool_100_temper=(signed char)TELECORE2017_KLIMAT_VENT_ON100;
;;;909    snmp_cool_20_dtemper=(signed char)TELECORE2017_KLIMAT_DVENT_ON20;
;;;910    snmp_cool_40_dtemper=(signed char)TELECORE2017_KLIMAT_DVENT_ON40;
;;;911    snmp_cool_60_dtemper=(signed char)TELECORE2017_KLIMAT_DVENT_ON60;
;;;912    snmp_cool_80_dtemper=(signed char)TELECORE2017_KLIMAT_DVENT_ON80;
;;;913    snmp_cool_100_dtemper=(signed char)TELECORE2017_KLIMAT_DVENT_ON100;
;;;914    snmp_warm_stat=0;
;;;915    if(warm_stat_k==wsON) snmp_warm_stat=1;
;;;916    #endif
;;;917    }
;;;918    //-----------------------------------------------
                          ENDP

00009a  0000              DCW      0x0000
                  |L7.156|
00009c  30302fff          DCB      "00/",255,237,226,"/00  00:00:00       ",0
0000a0  ede22f30
0000a4  30202030
0000a8  303a3030
0000ac  3a303020
0000b0  20202020
0000b4  202000  
0000b7  00                DCB      0
                  |L7.184|
                          DCD      ||.bss||
                  |L7.188|
                          DCD      sm_mont

                          AREA ||area_number.8||, CODE, READONLY, ALIGN=2

                          EXPORTAS ||area_number.8||, ||.text||
                  event2snmp PROC
;;;259    //-----------------------------------------------
;;;260    void snmp_data (void) 
000000  e92d47f0          PUSH     {r4-r10,lr}
;;;261    {
;;;262    char i;
;;;263    
;;;264    snmp_mains_power_voltage=net_U;
000004  b088              SUB      sp,sp,#0x20
000006  4606              MOV      r6,r0
000008  48ff              LDR      r0,|L8.1032|
00000a  f04f024e          MOV      r2,#0x4e
;;;265    #ifdef UKU_220_IPS_TERMOKOMPENSAT
;;;266    snmp_mains_power_frequency=net_F3;
00000e  eb0014c6          ADD      r4,r0,r6,LSL #7
;;;267    #else
;;;268    snmp_mains_power_frequency=net_F;
;;;269    #endif
;;;270    snmp_mains_power_voltage_phaseA=net_Ua;
000012  49fe              LDR      r1,|L8.1036|
000014  4620              MOV      r0,r4
000016  f7fffffe          BL       __aeabi_memcpy
;;;271    snmp_mains_power_voltage_phaseB=net_Ub;
00001a  f44f6060          MOV      r0,#0xe00
;;;272    snmp_mains_power_voltage_phaseC=net_Uc;
00001e  f7fffffe          BL       lc640_read_int
000022  4272              RSBS     r2,r6,#0
;;;273    
;;;274    /*
;;;275    snmp_mains_power_status=0; 
;;;276    #if(UKU_VERSION==900)
;;;277    snmp_mains_power_status=2;
;;;278    #endif
;;;279    if(St&0x01)snmp_mains_power_status|=0x01;
;;;280    if(St&0x01)snmp_mains_power_alarm=1;
;;;281    
;;;282    
;;;283    
;;;284    
;;;285    
;;;286    
;;;287    for(i=0;i<snmp_numofevents;i++)event2snmp(i);
;;;288    //snmp_bpsnumber[0]=1;
;;;289    //snmp_bpsnumber[1]=2;
;;;290    
;;;291    snmp_sernum=AUSW_MAIN_NUMBER;
;;;292    snmp_sernum_lsb=0x1122;
;;;293    snmp_sernum_msb=0x3344;
;;;294    snmp_device_code=AUSW_MAIN;
;;;295    
;;;296    //memcpy(snmp_location,"lkhg;la",);
;;;297    
;;;298    
;;;299    snmp_numofbat=1;
;;;300    
;;;301    */
;;;302    
;;;303    snmp_load_voltage=load_U;
000024  2140              MOVS     r1,#0x40
000026  f7fffffe          BL       ptr_carry
;;;304    snmp_load_current=load_I;
00002a  ea4f1040          LSL      r0,r0,#5
00002e  f5006080          ADD      r0,r0,#0x400
;;;305    snmp_numofbat=NUMBAT;
000032  4605              MOV      r5,r0
000034  a907              ADD      r1,sp,#0x1c
;;;306    snmp_numofbps=NUMIST;
000036  4628              MOV      r0,r5
000038  f7fffffe          BL       lc640_read_long_ptr
;;;307    snmp_numofinv=NUMINV;
00003c  a902              ADD      r1,sp,#8
00003e  1d28              ADDS     r0,r5,#4
000040  f7fffffe          BL       lc640_read_long_ptr
;;;308    snmp_numofavt=NUMAVT;
000044  a906              ADD      r1,sp,#0x18
000046  f1050008          ADD      r0,r5,#8
;;;309    snmp_numofdt=NUMDT;
00004a  f7fffffe          BL       lc640_read_long_ptr
;;;310    snmp_numofsk=NUMSK;
00004e  a905              ADD      r1,sp,#0x14
000050  f105000c          ADD      r0,r5,#0xc
;;;311    snmp_numofevents=lc640_read_int(CNT_EVENT_LOG);
000054  f7fffffe          BL       lc640_read_long_ptr
000058  a904              ADD      r1,sp,#0x10
00005a  f1050010          ADD      r0,r5,#0x10
;;;312    
;;;313    snmp_energy_vvod_phase_a=Uvv_eb2[0];
00005e  f7fffffe          BL       lc640_read_long_ptr
000062  a903              ADD      r1,sp,#0xc
;;;314    snmp_energy_vvod_phase_b=Uvv_eb2[1];
000064  f1050014          ADD      r0,r5,#0x14
000068  f7fffffe          BL       lc640_read_long_ptr
;;;315    snmp_energy_vvod_phase_c=Uvv_eb2[2];
00006c  f89d001c          LDRB     r0,[sp,#0x1c]
;;;316    snmp_energy_pes_phase_a=Upes_eb2[0];
000070  f1040528          ADD      r5,r4,#0x28
000074  2855              CMP      r0,#0x55
;;;317    snmp_energy_pes_phase_b=Upes_eb2[1];
000076  d052              BEQ      |L8.286|
000078  2720              MOVS     r7,#0x20
;;;318    snmp_energy_pes_phase_c=Upes_eb2[2];
00007a  f04f0840          MOV      r8,#0x40
;;;319    
;;;320    #ifdef UKU_KONTUR
;;;321    snmp_energy_vvod_phase_a=Uvv0;
;;;322    snmp_energy_pes_phase_a=Uvv[1];
;;;323    #endif
;;;324    
;;;325    snmp_energy_total_energy=power_summary;
00007e  2850              CMP      r0,#0x50
000080  d076              BEQ      |L8.368|
000082  49e1              LDR      r1,|L8.1032|
000084  2842              CMP      r0,#0x42
000086  eb0119c6          ADD      r9,r1,r6,LSL #7
;;;326    snmp_energy_current_energy=power_current;
00008a  46ca              MOV      r10,r9
00008c  f1090929          ADD      r9,r9,#0x29
;;;327    snmp_energy_input_voltage=net_U;
000090  f10a0a15          ADD      r10,r10,#0x15
;;;328    
;;;329    snmp_bat_number[0]=1;
000094  d06b              BEQ      |L8.366|
000096  2853              CMP      r0,#0x53
000098  d165              BNE      |L8.358|
00009a  a0dd              ADR      r0,|L8.1040|
00009c  6801              LDR      r1,[r0,#0]
;;;330    snmp_bat_voltage[0]=bat[0]._Ub;
00009e  6021              STR      r1,[r4,#0]
0000a0  8880              LDRH     r0,[r0,#4]
0000a2  80a0              STRH     r0,[r4,#4]
0000a4  f89d001d          LDRB     r0,[sp,#0x1d]
0000a8  f1000031          ADD      r0,r0,#0x31
;;;331    snmp_bat_part_voltage[0]=bat[0]._Ubm;
0000ac  7160              STRB     r0,[r4,#5]
0000ae  f1040007          ADD      r0,r4,#7
0000b2  f04f020e          MOV      r2,#0xe
;;;332    snmp_bat_current[0]=bat[0]._Ib;
0000b6  a1d9              ADR      r1,|L8.1052|
0000b8  f7fffffe          BL       __aeabi_memcpy
;;;333    
;;;334    #ifdef UKU_220_IPS_TERMOKOMPENSAT
;;;335    if(((AUSW_MAIN==22063)||(AUSW_MAIN==22023))&&(bps[8]._device==dIBAT_METR))
0000bc  f89d0016          LDRB     r0,[sp,#0x16]
0000c0  f89d1015          LDRB     r1,[sp,#0x15]
0000c4  e9cd1000          STRD     r1,r0,[sp,#0]
0000c8  f89d3014          LDRB     r3,[sp,#0x14]
0000cc  f89d2018          LDRB     r2,[sp,#0x18]
0000d0  f89d1019          LDRB     r1,[sp,#0x19]
0000d4  f89d001a          LDRB     r0,[sp,#0x1a]
;;;336    	{
;;;337    	snmp_bat_current[0]=Ib_ips_termokompensat;
0000d8  f7fffffe          BL       datatime2str
;;;338    	}
;;;339    #endif
;;;340    
;;;341    snmp_bat_temperature[0]=bat[0]._Tb;
0000dc  4601              MOV      r1,r0
0000de  2213              MOVS     r2,#0x13
0000e0  4650              MOV      r0,r10
0000e2  f7fffffe          BL       __aeabi_memcpy
0000e6  f89d001e          LDRB     r0,[sp,#0x1e]
;;;342    if(BAT_C_REAL[0]==0x5555)snmp_bat_capacity[0]=BAT_C_NOM[0];
0000ea  284c              CMP      r0,#0x4c
0000ec  d07e              BEQ      |L8.492|
0000ee  2854              CMP      r0,#0x54
0000f0  d07d              BEQ      |L8.494|
0000f2  2855              CMP      r0,#0x55
0000f4  d07c              BEQ      |L8.496|
0000f6  2875              CMP      r0,#0x75
0000f8  d07b              BEQ      |L8.498|
0000fa  a0cc              ADR      r0,|L8.1068|
0000fc  6801              LDR      r1,[r0,#0]
0000fe  f8c41029          STR      r1,[r4,#0x29]
000102  8880              LDRH     r0,[r0,#4]
000104  f8a4002d          STRH     r0,[r4,#0x2d]
;;;343    else snmp_bat_capacity[0]=BAT_C_REAL[0];
;;;344    snmp_bat_charge[0]=bat[0]._zar;
000108  f04f00ff          MOV      r0,#0xff
00010c  f884002f          STRB     r0,[r4,#0x2f]
;;;345    snmp_bat_status[0]=bat[0]._av;
000110  f04f0530          MOV      r5,#0x30
                  |L8.276|
000114  f89d0010          LDRB     r0,[sp,#0x10]
000118  2841              CMP      r0,#0x41
;;;346    if(BAT_IS_ON[0]!=bisON)snmp_bat_status[0]=0xff;
00011a  d06b              BEQ      |L8.500|
00011c  e2d2              B        |L8.1732|
                  |L8.286|
00011e  f89d001e          LDRB     r0,[sp,#0x1e]
000122  2852              CMP      r0,#0x52
000124  d11f              BNE      |L8.358|
000126  2232              MOVS     r2,#0x32
000128  a1c3              ADR      r1,|L8.1080|
;;;347    
;;;348    snmp_bat_number[1]=2;
00012a  4620              MOV      r0,r4
00012c  f7fffffe          BL       __aeabi_memcpy
000130  f89d0016          LDRB     r0,[sp,#0x16]
;;;349    snmp_bat_voltage[1]=bat[1]._Ub;
000134  f89d1015          LDRB     r1,[sp,#0x15]
000138  e9cd1000          STRD     r1,r0,[sp,#0]
;;;350    snmp_bat_part_voltage[1]=bat[1]._Ubm;
00013c  f89d3014          LDRB     r3,[sp,#0x14]
000140  f89d2018          LDRB     r2,[sp,#0x18]
;;;351    snmp_bat_current[1]=bat[1]._Ib;
000144  f89d1019          LDRB     r1,[sp,#0x19]
000148  f89d001a          LDRB     r0,[sp,#0x1a]
;;;352    snmp_bat_temperature[1]=bat[1]._Tb;
00014c  f7fffffe          BL       datatime2str
000150  4601              MOV      r1,r0
;;;353    if(BAT_C_REAL[1]==0x5555)snmp_bat_capacity[1]=BAT_C_NOM[1];
000152  f1040011          ADD      r0,r4,#0x11
000156  2214              MOVS     r2,#0x14
000158  f7fffffe          BL       __aeabi_memcpy
00015c  2214              MOVS     r2,#0x14
00015e  a1c4              ADR      r1,|L8.1136|
000160  4628              MOV      r0,r5
000162  f7fffffe          BL       __aeabi_memcpy
                  |L8.358|
000166  b008              ADD      sp,sp,#0x20
;;;354    else snmp_bat_capacity[1]=BAT_C_REAL[1];
000168  e8bd87f0          POP      {r4-r10,pc}
;;;355    snmp_bat_charge[1]=bat[1]._zar;
00016c  e000              B        |L8.368|
                  |L8.366|
00016e  e054              B        |L8.538|
                  |L8.368|
000170  2217              MOVS     r2,#0x17
000172  a1c5              ADR      r1,|L8.1160|
;;;356    snmp_bat_status[1]=bat[1]._av;
000174  4620              MOV      r0,r4
000176  f7fffffe          BL       __aeabi_memcpy
;;;357    if(BAT_IS_ON[1]!=bisON)snmp_bat_status[1]=0xff;
00017a  f89d0016          LDRB     r0,[sp,#0x16]
00017e  f89d1015          LDRB     r1,[sp,#0x15]
000182  e9cd1000          STRD     r1,r0,[sp,#0]
;;;358    
;;;359    
;;;360    
;;;361    snmp_bps_number[0]=1;
000186  f89d3014          LDRB     r3,[sp,#0x14]
;;;362    snmp_bps_voltage[0]=bps[0]._Uii;
00018a  f89d2018          LDRB     r2,[sp,#0x18]
00018e  f89d1019          LDRB     r1,[sp,#0x19]
000192  f89d001a          LDRB     r0,[sp,#0x1a]
;;;363    snmp_bps_current[0]=bps[0]._Ii;
000196  f7fffffe          BL       datatime2str
00019a  4601              MOV      r1,r0
00019c  f1040017          ADD      r0,r4,#0x17
;;;364    snmp_bps_temperature[0]=bps[0]._Ti;
0001a0  2213              MOVS     r2,#0x13
0001a2  f7fffffe          BL       __aeabi_memcpy
0001a6  f884802a          STRB     r8,[r4,#0x2a]
;;;365    snmp_bps_stat[0]=bps[0]._av;
0001aa  4897              LDR      r0,|L8.1032|
0001ac  f89d2010          LDRB     r2,[sp,#0x10]
;;;366    if(!(NUMIST>0))snmp_bps_stat[0]=0xff;												//Байт состояния БПСа.
0001b0  eb0010c6          ADD      r0,r0,r6,LSL #7
0001b4  302b              ADDS     r0,r0,#0x2b
0001b6  2a41              CMP      r2,#0x41
0001b8  d103              BNE      |L8.450|
;;;367    
;;;368    /*if(St_[0]&(1<<2))snmp_bps_stat[0]=(1<<3); 							//авария по Umin
;;;369    else if(St_[0]&(1<<3))snmp_bps_stat[0]=(1<<2); 						//авария по Umax
;;;370    else if(bps[0]._av&(1<<0))snmp_bps_stat[0]=(1<<1); 						//авария по Tmax
;;;371    else if(St_[0]&(1<<5))snmp_bps_stat[0]=(1<<5); 						//заблокирован
;;;372    else if((!(St_[0]&0x3c))&&(!St&0x01)&&(!OFFBP1))snmp_bps_stat[0]=1; 		//Работает
;;;373    */
;;;374    
;;;375    snmp_bps_number[1]=2;
0001ba  f89d1011          LDRB     r1,[sp,#0x11]
;;;376    snmp_bps_voltage[1]=bps[1]._Uii;
0001be  2941              CMP      r1,#0x41
0001c0  d026              BEQ      |L8.528|
                  |L8.450|
0001c2  a0b8              ADR      r0,|L8.1188|
0001c4  6801              LDR      r1,[r0,#0]
0001c6  f8c4102b          STR      r1,[r4,#0x2b]
;;;377    snmp_bps_current[1]=bps[1]._Ii;
0001ca  6841              LDR      r1,[r0,#4]
0001cc  f8c4102f          STR      r1,[r4,#0x2f]
;;;378    snmp_bps_temperature[1]=bps[1]._Ti;
0001d0  8900              LDRH     r0,[r0,#8]
0001d2  f8a40033          STRH     r0,[r4,#0x33]
;;;379    snmp_bps_stat[1]=bps[1]._av;
0001d6  f8847035          STRB     r7,[r4,#0x35]
0001da  f89d000e          LDRB     r0,[sp,#0xe]
;;;380    if(!(NUMIST>1))snmp_bps_stat[1]=0xff;												//Байт состояния БПСа.
0001de  f89d100d          LDRB     r1,[sp,#0xd]
;;;381    /*if(St_[1]&(1<<2))snmp_bps_stat[1]=(1<<3); 							//авария по Umin
;;;382    else if(St_[1]&(1<<3))snmp_bps_stat[1]=(1<<2); 						//авария по Umax
;;;383    else if(St_[1]&(1<<4))snmp_bps_stat[1]=(1<<1); 						//авария по Tmax
;;;384    else if(St_[1]&(1<<5))snmp_bps_stat[1]=(1<<5); 						//заблокирован
;;;385    else if((!(St_[1]&0x3c))&&(!St&0x01)&&(!OFFBP2))snmp_bps_stat[1]=1; 		//Работает
;;;386    */
;;;387    
;;;388    snmp_bps_number[2]=3;
0001e2  e9cd1000          STRD     r1,r0,[sp,#0]
0001e6  f89d300c          LDRB     r3,[sp,#0xc]
;;;389    snmp_bps_voltage[2]=bps[2]._Uii;
0001ea  e004              B        |L8.502|
                  |L8.492|
0001ec  e241              B        |L8.1650|
                  |L8.494|
0001ee  e248              B        |L8.1666|
                  |L8.496|
0001f0  e254              B        |L8.1692|
                  |L8.498|
0001f2  e25b              B        |L8.1708|
                  |L8.500|
;;;390    snmp_bps_current[2]=bps[2]._Ii;
0001f4  e262              B        |L8.1724|
                  |L8.502|
0001f6  f89d1011          LDRB     r1,[sp,#0x11]
;;;391    snmp_bps_temperature[2]=bps[2]._Ti;
0001fa  f89d0012          LDRB     r0,[sp,#0x12]
0001fe  f7fffffe          BL       datatime2str
;;;392    snmp_bps_stat[2]=bps[2]._av;
000202  4601              MOV      r1,r0
000204  f1040036          ADD      r0,r4,#0x36
;;;393    if(!(NUMIST>2))snmp_bps_stat[2]=0xff;
000208  2213              MOVS     r2,#0x13
00020a  f7fffffe          BL       __aeabi_memcpy
                  |L8.526|
;;;394    
;;;395    snmp_bps_number[3]=4;
00020e  e7aa              B        |L8.358|
                  |L8.528|
000210  220d              MOVS     r2,#0xd
000212  a1a8              ADR      r1,|L8.1204|
;;;396    snmp_bps_voltage[3]=bps[3]._Uii;
000214  f7fffffe          BL       __aeabi_memcpy
000218  e7a5              B        |L8.358|
                  |L8.538|
00021a  f04f0500          MOV      r5,#0
;;;397    snmp_bps_current[3]=bps[3]._Ii;
00021e  f89d001e          LDRB     r0,[sp,#0x1e]
000222  2843              CMP      r0,#0x43
;;;398    snmp_bps_temperature[3]=bps[3]._Ti;
000224  d14e              BNE      |L8.708|
000226  2215              MOVS     r2,#0x15
000228  a1a6              ADR      r1,|L8.1220|
00022a  4620              MOV      r0,r4
;;;399    snmp_bps_stat[3]=bps[3]._av;
00022c  f7fffffe          BL       __aeabi_memcpy
000230  f89d0016          LDRB     r0,[sp,#0x16]
;;;400    if(!(NUMIST>3))snmp_bps_stat[3]=0xff;
000234  f89d1015          LDRB     r1,[sp,#0x15]
;;;401    
;;;402    snmp_bps_number[4]=5;
000238  e9cd1000          STRD     r1,r0,[sp,#0]
00023c  f89d3014          LDRB     r3,[sp,#0x14]
;;;403    snmp_bps_voltage[4]=bps[4]._Uii;
000240  f89d2018          LDRB     r2,[sp,#0x18]
000244  f89d1019          LDRB     r1,[sp,#0x19]
;;;404    snmp_bps_current[4]=bps[4]._Ii;
000248  f89d001a          LDRB     r0,[sp,#0x1a]
00024c  f7fffffe          BL       datatime2str
;;;405    snmp_bps_temperature[4]=bps[4]._Ti;
000250  4601              MOV      r1,r0
000252  2213              MOVS     r2,#0x13
000254  4650              MOV      r0,r10
;;;406    snmp_bps_stat[4]=bps[4]._av;
000256  f7fffffe          BL       __aeabi_memcpy
00025a  f8848028          STRB     r8,[r4,#0x28]
;;;407    if(!(NUMIST>4))snmp_bps_stat[4]=0xff;
00025e  2216              MOVS     r2,#0x16
000260  a19e              ADR      r1,|L8.1244|
;;;408    
;;;409    snmp_bps_number[5]=6;
000262  4648              MOV      r0,r9
000264  f7fffffe          BL       __aeabi_memcpy
;;;410    snmp_bps_voltage[5]=bps[5]._Uii;
000268  4867              LDR      r0,|L8.1032|
00026a  f89d2010          LDRB     r2,[sp,#0x10]
00026e  eb0010c6          ADD      r0,r0,r6,LSL #7
;;;411    snmp_bps_current[5]=bps[5]._Ii;
000272  303f              ADDS     r0,r0,#0x3f
000274  2a41              CMP      r2,#0x41
000276  d103              BNE      |L8.640|
;;;412    snmp_bps_temperature[5]=bps[5]._Ti;
000278  f89d1011          LDRB     r1,[sp,#0x11]
00027c  2941              CMP      r1,#0x41
00027e  d026              BEQ      |L8.718|
                  |L8.640|
;;;413    snmp_bps_stat[5]=bps[5]._av;
000280  a088              ADR      r0,|L8.1188|
000282  6801              LDR      r1,[r0,#0]
000284  f8c4103f          STR      r1,[r4,#0x3f]
;;;414    if(!(NUMIST>5))snmp_bps_stat[5]=0xff;
000288  6841              LDR      r1,[r0,#4]
00028a  f8c41043          STR      r1,[r4,#0x43]
;;;415    
;;;416    snmp_bps_number[6]=7;
00028e  8900              LDRH     r0,[r0,#8]
000290  f8a40047          STRH     r0,[r4,#0x47]
;;;417    snmp_bps_voltage[6]=bps[6]._Uii;
000294  f8847049          STRB     r7,[r4,#0x49]
000298  f04f054a          MOV      r5,#0x4a
;;;418    snmp_bps_current[6]=bps[6]._Ii;
00029c  f89d000e          LDRB     r0,[sp,#0xe]
0002a0  f89d100d          LDRB     r1,[sp,#0xd]
;;;419    snmp_bps_temperature[6]=bps[6]._Ti;
0002a4  e9cd1000          STRD     r1,r0,[sp,#0]
0002a8  f89d300c          LDRB     r3,[sp,#0xc]
;;;420    snmp_bps_stat[6]=bps[6]._av;
0002ac  f89d1011          LDRB     r1,[sp,#0x11]
;;;421    if(!(NUMIST>6))snmp_bps_stat[6]=0xff;
0002b0  f89d0012          LDRB     r0,[sp,#0x12]
0002b4  f7fffffe          BL       datatime2str
;;;422    
;;;423    snmp_bps_number[7]=8;
0002b8  4601              MOV      r1,r0
0002ba  f104004a          ADD      r0,r4,#0x4a
;;;424    snmp_bps_voltage[7]=bps[7]._Uii;
0002be  2213              MOVS     r2,#0x13
0002c0  f7fffffe          BL       __aeabi_memcpy
                  |L8.708|
0002c4  f89d001e          LDRB     r0,[sp,#0x1e]
;;;425    snmp_bps_current[7]=bps[7]._Ii;
0002c8  285a              CMP      r0,#0x5a
0002ca  d007              BEQ      |L8.732|
;;;426    snmp_bps_temperature[7]=bps[7]._Ti;
0002cc  e053              B        |L8.886|
                  |L8.718|
0002ce  220d              MOVS     r2,#0xd
0002d0  a178              ADR      r1,|L8.1204|
;;;427    snmp_bps_stat[7]=bps[7]._av;
0002d2  f7fffffe          BL       __aeabi_memcpy
;;;428    if(!(NUMIST>7))snmp_bps_stat[7]=0xff;
0002d6  f04f054c          MOV      r5,#0x4c
0002da  e7f3              B        |L8.708|
                  |L8.732|
;;;429    
;;;430    
;;;431    
;;;432    snmp_inv_number[0]=1;
0002dc  1960              ADDS     r0,r4,r5
0002de  2220              MOVS     r2,#0x20
0002e0  a184              ADR      r1,|L8.1268|
;;;433    snmp_inv_voltage[0]=inv[0]._Uio;
0002e2  f7fffffe          BL       __aeabi_memcpy
0002e6  f1050520          ADD      r5,r5,#0x20
;;;434    snmp_inv_current[0]=inv[0]._Ii;
0002ea  b2ed              UXTB     r5,r5
0002ec  f89d0016          LDRB     r0,[sp,#0x16]
;;;435    snmp_inv_temperature[0]=inv[0]._Ti;
0002f0  f89d1015          LDRB     r1,[sp,#0x15]
0002f4  e9cd1000          STRD     r1,r0,[sp,#0]
;;;436    snmp_inv_stat[0]=inv[0]._flags_tm;
0002f8  f89d3014          LDRB     r3,[sp,#0x14]
0002fc  f89d2018          LDRB     r2,[sp,#0x18]
;;;437    
;;;438    snmp_inv_number[1]=2;
000300  f89d1019          LDRB     r1,[sp,#0x19]
;;;439    snmp_inv_voltage[1]=inv[1]._Uio;
000304  f89d001a          LDRB     r0,[sp,#0x1a]
000308  f7fffffe          BL       datatime2str
;;;440    snmp_inv_current[1]=inv[1]._Ii;
00030c  4601              MOV      r1,r0
00030e  1960              ADDS     r0,r4,r5
000310  2213              MOVS     r2,#0x13
000312  f7fffffe          BL       __aeabi_memcpy
;;;441    snmp_inv_temperature[1]=inv[1]._Ti;
000316  f1050513          ADD      r5,r5,#0x13
00031a  b2e8              UXTB     r0,r5
;;;442    snmp_inv_stat[1]=inv[1]._flags_tm;
00031c  f8048000          STRB     r8,[r4,r0]
000320  f1000001          ADD      r0,r0,#1
;;;443    
;;;444    snmp_inv_number[2]=3;
000324  b2c5              UXTB     r5,r0
000326  f89d2010          LDRB     r2,[sp,#0x10]
;;;445    snmp_inv_voltage[2]=inv[2]._Uio;
00032a  2a41              CMP      r2,#0x41
00032c  d103              BNE      |L8.822|
00032e  f89d0011          LDRB     r0,[sp,#0x11]
;;;446    snmp_inv_current[2]=inv[2]._Ii;
000332  2841              CMP      r0,#0x41
000334  d04e              BEQ      |L8.980|
                  |L8.822|
;;;447    snmp_inv_temperature[2]=inv[2]._Ti;
000336  a178              ADR      r1,|L8.1304|
000338  eb040005          ADD      r0,r4,r5
;;;448    snmp_inv_stat[2]=inv[2]._flags_tm;
00033c  680b              LDR      r3,[r1,#0]
00033e  6003              STR      r3,[r0,#0]
000340  684b              LDR      r3,[r1,#4]
;;;449    
;;;450    
;;;451    
;;;452    
;;;453    					  
;;;454    snmp_sk_number[0]=1;
000342  6043              STR      r3,[r0,#4]
000344  8909              LDRH     r1,[r1,#8]
000346  8101              STRH     r1,[r0,#8]
000348  7287              STRB     r7,[r0,#0xa]
;;;455    memcpy(&snmp_sk_name[0][0],"Door",10);
00034a  f105050b          ADD      r5,r5,#0xb
00034e  b2ed              UXTB     r5,r5
000350  f89d000e          LDRB     r0,[sp,#0xe]
000354  f89d100d          LDRB     r1,[sp,#0xd]
000358  e9cd1000          STRD     r1,r0,[sp,#0]
00035c  f89d300c          LDRB     r3,[sp,#0xc]
;;;456    if(sk_stat[0]==ssON) snmp_sk_aktiv[0]=1;
000360  f89d1011          LDRB     r1,[sp,#0x11]
000364  f89d0012          LDRB     r0,[sp,#0x12]
;;;457    else snmp_sk_aktiv[0]=0;
000368  f7fffffe          BL       datatime2str
00036c  4601              MOV      r1,r0                 ;456
00036e  1960              ADDS     r0,r4,r5              ;456
000370  2213              MOVS     r2,#0x13              ;456
000372  f7fffffe          BL       __aeabi_memcpy
                  |L8.886|
;;;458    if(!SK_SIGN[0])snmp_sk_alarm_aktiv[0]=1;
000376  f89d001e          LDRB     r0,[sp,#0x1e]
00037a  284b              CMP      r0,#0x4b
00037c  f47faf47          BNE      |L8.526|
000380  1960              ADDS     r0,r4,r5
;;;459    else snmp_sk_alarm_aktiv[0]=0;
000382  221d              MOVS     r2,#0x1d
;;;460    if(sk_av_stat[0]==sasON)	snmp_sk_alarm[0]=1;
000384  a168              ADR      r1,|L8.1320|
000386  f7fffffe          BL       __aeabi_memcpy
00038a  f105051d          ADD      r5,r5,#0x1d
00038e  b2ed              UXTB     r5,r5
000390  f89d0016          LDRB     r0,[sp,#0x16]
;;;461    else                     snmp_sk_alarm[0]=0;
000394  f89d1015          LDRB     r1,[sp,#0x15]
;;;462    
;;;463    
;;;464    snmp_sk_number[1]=2;
000398  e9cd1000          STRD     r1,r0,[sp,#0]
;;;465    memcpy(&snmp_sk_name[1][0],"Smoke",10);
00039c  f89d3014          LDRB     r3,[sp,#0x14]
0003a0  f89d2018          LDRB     r2,[sp,#0x18]
0003a4  f89d1019          LDRB     r1,[sp,#0x19]
0003a8  f89d001a          LDRB     r0,[sp,#0x1a]
0003ac  f7fffffe          BL       datatime2str
0003b0  4601              MOV      r1,r0
;;;466    if(sk_stat[1]==ssON) snmp_sk_aktiv[1]=1;
0003b2  1960              ADDS     r0,r4,r5
0003b4  2213              MOVS     r2,#0x13
0003b6  f7fffffe          BL       __aeabi_memcpy
;;;467    else snmp_sk_aktiv[1]=0;
0003ba  f1050513          ADD      r5,r5,#0x13
;;;468    if(!SK_SIGN[1])snmp_sk_alarm_aktiv[1]=1;
0003be  b2e8              UXTB     r0,r5
0003c0  f8048000          STRB     r8,[r4,r0]
0003c4  f1000001          ADD      r0,r0,#1
;;;469    else snmp_sk_alarm_aktiv[1]=0;
0003c8  b2c1              UXTB     r1,r0
;;;470    if(sk_av_stat[1]==sasON)	snmp_sk_alarm[1]=1;
0003ca  f89d2010          LDRB     r2,[sp,#0x10]
0003ce  2a41              CMP      r2,#0x41
0003d0  d009              BEQ      |L8.998|
0003d2  e00c              B        |L8.1006|
                  |L8.980|
;;;471    else                     snmp_sk_alarm[1]=0;
0003d4  1960              ADDS     r0,r4,r5
;;;472    
;;;473    snmp_sk_number[2]=3;
0003d6  220d              MOVS     r2,#0xd
0003d8  a15b              ADR      r1,|L8.1352|
0003da  f7fffffe          BL       __aeabi_memcpy
0003de  f105050d          ADD      r5,r5,#0xd
;;;474    memcpy(&snmp_sk_name[2][0],"Shock",10);
0003e2  b2ed              UXTB     r5,r5
0003e4  e7c7              B        |L8.886|
                  |L8.998|
0003e6  f89d0011          LDRB     r0,[sp,#0x11]
0003ea  2841              CMP      r0,#0x41
0003ec  d00a              BEQ      |L8.1028|
                  |L8.1006|
0003ee  a34a              ADR      r3,|L8.1304|
0003f0  eb040001          ADD      r0,r4,r1
0003f4  681d              LDR      r5,[r3,#0]
0003f6  6005              STR      r5,[r0,#0]
0003f8  685d              LDR      r5,[r3,#4]
0003fa  6045              STR      r5,[r0,#4]
0003fc  891b              LDRH     r3,[r3,#8]
0003fe  8103              STRH     r3,[r0,#8]
000400  7287              STRB     r7,[r0,#0xa]
000402  e0a9              B        |L8.1368|
                  |L8.1028|
000404  e0e6              B        |L8.1492|
000406  0000              DCW      0x0000
                  |L8.1032|
                          DCD      ||.data||+0x17c
                  |L8.1036|
                          DCD      ||.constdata||
                  |L8.1040|
000410  c1cfd120          DCB      193,207,209," ",185,"      ",0
000414  b9202020
000418  20202000
                  |L8.1052|
00041c  202020c0          DCB      "   ",192,226,224,240,232,255,"!!!@  ",0
000420  e2e0f0e8
000424  ff212121
000428  40202000
                  |L8.1068|
00042c  4020f4e8          DCB      "@ ",244,232,227,237,255,"  ",0
000430  e3edff20
000434  2000    
000436  00                DCB      0
000437  00                DCB      0
                  |L8.1080|
000438  c2eaebfe          DCB      194,234,235,254,247,229,237,232,229," ",200,193,221,207,224
00043c  f7e5ede8
000440  e520c8c1
000444  ddcfe0  
000447  40202020          DCB      "@                                      ",0
00044b  20202020
00044f  20202020
000453  20202020
000457  20202020
00045b  20202020
00045f  20202020
000463  20202020
000467  20202020
00046b  20202000
00046f  00                DCB      0
                  |L8.1136|
000470  40202020          DCB      "@                   ",0
000474  20202020
000478  20202020
00047c  20202020
000480  20202020
000484  00      
000485  00                DCB      0
000486  00                DCB      0
000487  00                DCB      0
                  |L8.1160|
000488  c0e2e0f0          DCB      192,226,224,240,232,255," ",239,232,242,224,254,249,229,233
00048c  e8ff20ef
000490  e8f2e0fe
000494  f9e5e9  
000497  20f1e5f2          DCB      " ",241,229,242,232," @  ",0
00049b  e8204020
00049f  2000    
0004a1  00                DCB      0
0004a2  00                DCB      0
0004a3  00                DCB      0
                  |L8.1188|
0004a4  20f3f1f2          DCB      " ",243,241,242,240,224,237,229,237,224,"   ",0
0004a8  f0e0ede5
0004ac  ede02020
0004b0  2000    
0004b2  00                DCB      0
0004b3  00                DCB      0
                  |L8.1204|
0004b4  20ede520          DCB      " ",237,229," ",243,241,242,240,224,237,229,237,224,"  ",0
0004b8  f3f1f2f0
0004bc  e0ede5ed
0004c0  e0202000
                  |L8.1220|
0004c4  c1e0f2e0          DCB      193,224,242,224,240,229,255,".  ",192,226,224,240,232,255
0004c8  f0e5ff2e
0004cc  2020c0e2
0004d0  e0f0e8ff
0004d4  21212120          DCB      "!!! @  ",0
0004d8  40202000
                  |L8.1244|
0004dc  c1e0f2e0          DCB      193,224,242,224,240,229,255," ",237,229," ",238,225,237,224
0004e0  f0e5ff20
0004e4  ede520ee
0004e8  e1ede0  
0004eb  f0f3e6e5          DCB      240,243,230,229,237,224,", ",0
0004ef  ede02c20
0004f3  00      
                  |L8.1268|
0004f4  c1e0f2e0          DCB      193,224,242,224,240,229,255,".  ",194,251,240,224,226,237
0004f8  f0e5ff2e
0004fc  2020c2fb
000500  f0e0e2ed
000504  e8e2e0fe          DCB      232,226,224,254,249,232,233," ",231,224,240,255,228," @ "
000508  f9e8e920
00050c  e7e0f0ff
000510  e4204020
000514  2000              DCB      " ",0
000516  00                DCB      0
000517  00                DCB      0
                  |L8.1304|
000518  20e7e0e2          DCB      " ",231,224,226,229,240,248,229,237,"   ",0
00051c  e5f0f8e5
000520  ed202020
000524  00      
000525  00                DCB      0
000526  00                DCB      0
000527  00                DCB      0
                  |L8.1320|
000528  c1e0f2e0          DCB      193,224,242,224,240,229,255,".  ",202,238,237,242,240,238
00052c  f0e5ff2e
000530  2020caee
000534  edf2f0ee
000538  ebfc20e5          DCB      235,252," ",229,236,234,238,241,242,232," @  ",0
00053c  eceaeef1
000540  f2e82040
000544  202000  
000547  00                DCB      0
                  |L8.1352|
000548  20ede520          DCB      " ",237,229," ",231,224,226,229,240,248,229,237,"  ",0
00054c  e7e0e2e5
000550  f0f8e5ed
000554  202000  
000557  00                DCB      0
                  |L8.1368|
;;;475    if(sk_stat[2]==ssON) snmp_sk_aktiv[2]=1;
;;;476    else snmp_sk_aktiv[2]=0;
;;;477    if(!SK_SIGN[2])snmp_sk_alarm_aktiv[2]=1;
;;;478    else snmp_sk_alarm_aktiv[2]=0;
;;;479    if(sk_av_stat[2]==sasON)	snmp_sk_alarm[2]=1;
;;;480    else                     snmp_sk_alarm[2]=0;
;;;481    
;;;482    snmp_sk_number[3]=4;
;;;483    memcpy(&snmp_sk_name[3][0],"     ",10);
;;;484    if(sk_stat[3]==ssON) snmp_sk_aktiv[3]=1;
;;;485    else snmp_sk_aktiv[3]=0;
;;;486    if(!SK_SIGN[3])snmp_sk_alarm_aktiv[3]=1;
;;;487    else snmp_sk_alarm_aktiv[3]=0;
;;;488    if(sk_av_stat[3]==sasON)	snmp_sk_alarm[3]=1;
;;;489    else                     snmp_sk_alarm[3]=0;
;;;490    
;;;491    
;;;492    if(makb[0]._cnt>8) snmp_makb_connect_status[0]=1;
;;;493    else if(makb[0]._cnt<2) snmp_makb_connect_status[0]=0;
;;;494    if(makb[1]._cnt>8) snmp_makb_connect_status[1]=1;
000558  f101010b          ADD      r1,r1,#0xb
;;;495    else if(makb[1]._cnt<2) snmp_makb_connect_status[1]=0;
00055c  b2cd              UXTB     r5,r1
00055e  f89d000e          LDRB     r0,[sp,#0xe]
;;;496    if(makb[2]._cnt>8) snmp_makb_connect_status[2]=1;
000562  f89d100d          LDRB     r1,[sp,#0xd]
000566  e9cd1000          STRD     r1,r0,[sp,#0]
00056a  f89d300c          LDRB     r3,[sp,#0xc]
;;;497    else if(makb[2]._cnt<2) snmp_makb_connect_status[2]=0;
00056e  f89d1011          LDRB     r1,[sp,#0x11]
;;;498    if(makb[3]._cnt>8) snmp_makb_connect_status[3]=1;
000572  f89d0012          LDRB     r0,[sp,#0x12]
000576  f7fffffe          BL       datatime2str
00057a  4601              MOV      r1,r0
00057c  442c              ADD      r4,r4,r5
;;;499    else if(makb[3]._cnt<2) snmp_makb_connect_status[3]=0;
00057e  2213              MOVS     r2,#0x13
000580  4620              MOV      r0,r4
000582  f7fffffe          BL       __aeabi_memcpy
;;;500    
;;;501    snmp_makb_voltage0[0]=makb[0]._Ub[0];
000586  2227              MOVS     r2,#0x27
000588  a160              ADR      r1,|L8.1804|
00058a  4620              MOV      r0,r4
;;;502    snmp_makb_voltage1[0]=makb[0]._Ub[1];
00058c  f7fffffe          BL       __aeabi_memcpy
000590  f89d001b          LDRB     r0,[sp,#0x1b]
;;;503    snmp_makb_voltage2[0]=makb[0]._Ub[2];
000594  f89d1017          LDRB     r1,[sp,#0x17]
;;;504    snmp_makb_voltage3[0]=makb[0]._Ub[3];
000598  eb002001          ADD      r0,r0,r1,LSL #8
00059c  b202              SXTH     r2,r0
;;;505    snmp_makb_voltage4[0]=makb[0]._Ub[4];
00059e  f04f010a          MOV      r1,#0xa
0005a2  fb92f0f1          SDIV     r0,r2,r1
;;;506    snmp_makb_voltage0[1]=makb[1]._Ub[0];
0005a6  fb012210          MLS      r2,r1,r0,r2
0005aa  f1020230          ADD      r2,r2,#0x30
;;;507    snmp_makb_voltage1[1]=makb[1]._Ub[1];
0005ae  72a2              STRB     r2,[r4,#0xa]
0005b0  b200              SXTH     r0,r0
0005b2  fb90f2f1          SDIV     r2,r0,r1
;;;508    snmp_makb_voltage2[1]=makb[1]._Ub[2];
0005b6  fb010012          MLS      r0,r1,r2,r0
;;;509    snmp_makb_voltage3[1]=makb[1]._Ub[3];
0005ba  f1000030          ADD      r0,r0,#0x30
0005be  7220              STRB     r0,[r4,#8]
;;;510    snmp_makb_voltage4[1]=makb[1]._Ub[4];
0005c0  b210              SXTH     r0,r2
0005c2  b170              CBZ      r0,|L8.1506|
;;;511    snmp_makb_voltage0[2]=makb[2]._Ub[0];
0005c4  fb90f2f1          SDIV     r2,r0,r1
0005c8  fb010012          MLS      r0,r1,r2,r0
;;;512    snmp_makb_voltage1[2]=makb[2]._Ub[1];
0005cc  f1000030          ADD      r0,r0,#0x30
0005d0  71e0              STRB     r0,[r4,#7]
0005d2  e007              B        |L8.1508|
                  |L8.1492|
;;;513    snmp_makb_voltage2[2]=makb[2]._Ub[2];
0005d4  1860              ADDS     r0,r4,r1
0005d6  220d              MOVS     r2,#0xd
0005d8  f2af0194          ADR      r1,|L8.1352|
;;;514    snmp_makb_voltage3[2]=makb[2]._Ub[3];
0005dc  f7fffffe          BL       __aeabi_memcpy
0005e0  e5c1              B        |L8.358|
                  |L8.1506|
0005e2  71e7              STRB     r7,[r4,#7]
                  |L8.1508|
;;;515    snmp_makb_voltage4[2]=makb[2]._Ub[4];
0005e4  f89d000a          LDRB     r0,[sp,#0xa]
0005e8  f89d200b          LDRB     r2,[sp,#0xb]
;;;516    snmp_makb_voltage0[3]=makb[3]._Ub[0];
0005ec  eb002002          ADD      r0,r0,r2,LSL #8
0005f0  b200              SXTH     r0,r0
;;;517    snmp_makb_voltage1[3]=makb[3]._Ub[1];
0005f2  fb90f2f1          SDIV     r2,r0,r1
0005f6  fb010012          MLS      r0,r1,r2,r0
;;;518    snmp_makb_voltage2[3]=makb[3]._Ub[2];
0005fa  f1000030          ADD      r0,r0,#0x30
0005fe  75a0              STRB     r0,[r4,#0x16]
000600  b210              SXTH     r0,r2
;;;519    snmp_makb_voltage3[3]=makb[3]._Ub[3];
000602  fb90f2f1          SDIV     r2,r0,r1
000606  fb010012          MLS      r0,r1,r2,r0
;;;520    snmp_makb_voltage4[3]=makb[3]._Ub[4];
00060a  f1000030          ADD      r0,r0,#0x30
00060e  7520              STRB     r0,[r4,#0x14]
;;;521    
;;;522    snmp_makb_temper0[0]=makb[0]._T[0];
000610  b210              SXTH     r0,r2
000612  b138              CBZ      r0,|L8.1572|
000614  fb90f2f1          SDIV     r2,r0,r1
;;;523    snmp_makb_temper1[0]=makb[0]._T[1];
000618  fb010012          MLS      r0,r1,r2,r0
00061c  f1000030          ADD      r0,r0,#0x30
;;;524    snmp_makb_temper2[0]=makb[0]._T[2];
000620  74e0              STRB     r0,[r4,#0x13]
000622  e000              B        |L8.1574|
                  |L8.1572|
000624  74e7              STRB     r7,[r4,#0x13]
                  |L8.1574|
000626  f89d0008          LDRB     r0,[sp,#8]
;;;525    snmp_makb_temper3[0]=makb[0]._T[3];
00062a  f89d2009          LDRB     r2,[sp,#9]
00062e  eb002002          ADD      r0,r0,r2,LSL #8
000632  b202              SXTH     r2,r0
000634  fb92f0f1          SDIV     r0,r2,r1
;;;526    snmp_makb_temper4[0]=makb[0]._T[4];
000638  fb012210          MLS      r2,r1,r0,r2
00063c  f1020230          ADD      r2,r2,#0x30
000640  f8842023          STRB     r2,[r4,#0x23]
;;;527    snmp_makb_temper0[1]=makb[1]._T[0];
000644  b200              SXTH     r0,r0
000646  fb90f2f1          SDIV     r2,r0,r1
;;;528    snmp_makb_temper1[1]=makb[1]._T[1];
00064a  fb010012          MLS      r0,r1,r2,r0
00064e  f1000030          ADD      r0,r0,#0x30
;;;529    snmp_makb_temper2[1]=makb[1]._T[2];
000652  f8840021          STRB     r0,[r4,#0x21]
000656  b210              SXTH     r0,r2
000658  b140              CBZ      r0,|L8.1644|
;;;530    snmp_makb_temper3[1]=makb[1]._T[3];
00065a  fb90f2f1          SDIV     r2,r0,r1
00065e  fb010012          MLS      r0,r1,r2,r0
;;;531    snmp_makb_temper4[1]=makb[1]._T[4];
000662  f1000030          ADD      r0,r0,#0x30
000666  f8840020          STRB     r0,[r4,#0x20]
;;;532    snmp_makb_temper0[2]=makb[2]._T[0];
00066a  e57c              B        |L8.358|
                  |L8.1644|
00066c  f8847020          STRB     r7,[r4,#0x20]
000670  e579              B        |L8.358|
                  |L8.1650|
;;;533    snmp_makb_temper1[2]=makb[2]._T[1];
000672  2214              MOVS     r2,#0x14
000674  a130              ADR      r1,|L8.1848|
000676  4628              MOV      r0,r5
000678  f7fffffe          BL       __aeabi_memcpy
;;;534    snmp_makb_temper2[2]=makb[2]._T[2];
00067c  f04f0541          MOV      r5,#0x41
000680  e548              B        |L8.276|
                  |L8.1666|
;;;535    snmp_makb_temper3[2]=makb[2]._T[3];
000682  a034              ADR      r0,|L8.1876|
000684  6801              LDR      r1,[r0,#0]
000686  f8c41029          STR      r1,[r4,#0x29]
;;;536    snmp_makb_temper4[2]=makb[2]._T[4];
00068a  6841              LDR      r1,[r0,#4]
00068c  f8c4102d          STR      r1,[r4,#0x2d]
000690  8900              LDRH     r0,[r0,#8]
;;;537    snmp_makb_temper0[3]=makb[3]._T[0];
000692  f8a40031          STRH     r0,[r4,#0x31]
000696  f04f0533          MOV      r5,#0x33
;;;538    snmp_makb_temper1[3]=makb[3]._T[1];
00069a  e53b              B        |L8.276|
                  |L8.1692|
00069c  2210              MOVS     r2,#0x10
00069e  a131              ADR      r1,|L8.1892|
;;;539    snmp_makb_temper2[3]=makb[3]._T[2];
0006a0  4648              MOV      r0,r9
0006a2  f7fffffe          BL       __aeabi_memcpy
;;;540    snmp_makb_temper3[3]=makb[3]._T[3];
0006a6  f04f0539          MOV      r5,#0x39
0006aa  e533              B        |L8.276|
                  |L8.1708|
0006ac  2210              MOVS     r2,#0x10
;;;541    snmp_makb_temper4[3]=makb[3]._T[4];
0006ae  a132              ADR      r1,|L8.1912|
0006b0  4648              MOV      r0,r9
0006b2  f7fffffe          BL       __aeabi_memcpy
;;;542    
;;;543    snmp_makb_temper0_stat[0]=makb[0]._T_nd[0];
0006b6  f04f0539          MOV      r5,#0x39
0006ba  e52b              B        |L8.276|
                  |L8.1724|
0006bc  f89d0011          LDRB     r0,[sp,#0x11]
;;;544    snmp_makb_temper1_stat[0]=makb[0]._T_nd[1];
0006c0  2841              CMP      r0,#0x41
0006c2  d01d              BEQ      |L8.1792|
                  |L8.1732|
0006c4  1960              ADDS     r0,r4,r5
;;;545    snmp_makb_temper2_stat[0]=makb[0]._T_nd[2];
0006c6  220d              MOVS     r2,#0xd
0006c8  a130              ADR      r1,|L8.1932|
0006ca  f7fffffe          BL       __aeabi_memcpy
0006ce  f105050d          ADD      r5,r5,#0xd
;;;546    snmp_makb_temper3_stat[0]=makb[0]._T_nd[3];
0006d2  b2ed              UXTB     r5,r5
0006d4  f89d000e          LDRB     r0,[sp,#0xe]
0006d8  f89d100d          LDRB     r1,[sp,#0xd]
0006dc  e9cd1000          STRD     r1,r0,[sp,#0]
;;;547    snmp_makb_temper4_stat[0]=makb[0]._T_nd[4];
0006e0  f89d300c          LDRB     r3,[sp,#0xc]
0006e4  f89d2010          LDRB     r2,[sp,#0x10]
0006e8  f89d1011          LDRB     r1,[sp,#0x11]
;;;548    snmp_makb_temper0_stat[1]=makb[1]._T_nd[0];
0006ec  f89d0012          LDRB     r0,[sp,#0x12]
0006f0  f7fffffe          BL       datatime2str
;;;549    snmp_makb_temper1_stat[1]=makb[1]._T_nd[1];
0006f4  4601              MOV      r1,r0
0006f6  1960              ADDS     r0,r4,r5
0006f8  2213              MOVS     r2,#0x13
;;;550    snmp_makb_temper2_stat[1]=makb[1]._T_nd[2];
0006fa  f7fffffe          BL       __aeabi_memcpy
0006fe  e532              B        |L8.358|
                  |L8.1792|
000700  1960              ADDS     r0,r4,r5
;;;551    snmp_makb_temper3_stat[1]=makb[1]._T_nd[3];
000702  220f              MOVS     r2,#0xf
000704  a125              ADR      r1,|L8.1948|
000706  f7fffffe          BL       __aeabi_memcpy
;;;552    snmp_makb_temper4_stat[1]=makb[1]._T_nd[4];
00070a  e52c              B        |L8.358|
;;;553    snmp_makb_temper0_stat[2]=makb[2]._T_nd[0];
;;;554    snmp_makb_temper1_stat[2]=makb[2]._T_nd[1];
;;;555    snmp_makb_temper2_stat[2]=makb[2]._T_nd[2];
;;;556    snmp_makb_temper3_stat[2]=makb[2]._T_nd[3];
;;;557    snmp_makb_temper4_stat[2]=makb[2]._T_nd[4];
;;;558    snmp_makb_temper0_stat[3]=makb[3]._T_nd[0];
;;;559    snmp_makb_temper1_stat[3]=makb[3]._T_nd[1];
;;;560    snmp_makb_temper2_stat[3]=makb[3]._T_nd[2];
;;;561    snmp_makb_temper3_stat[3]=makb[3]._T_nd[3];
;;;562    snmp_makb_temper4_stat[3]=makb[3]._T_nd[4];
;;;563    
;;;564    
;;;565    snmp_klimat_box_temper=t_box;
;;;566    snmp_klimat_settings_box_alarm=TBOXMAX;
;;;567    snmp_klimat_settings_vent_on=TBOXVENTON;
;;;568    snmp_klimat_settings_vent_off=TBOXVENTOFF;
;;;569    snmp_klimat_settings_warm_on=TBOXWARMON;
;;;570    snmp_klimat_settings_warm_off=TBOXWARMOFF;
;;;571    snmp_klimat_settings_load_on=TLOADENABLE;
;;;572    snmp_klimat_settings_load_off=TLOADDISABLE;
;;;573    snmp_klimat_settings_batt_on=TBATENABLE;
;;;574    snmp_klimat_settings_batt_off=TBATDISABLE;
;;;575    
;;;576    snmp_dt_ext=t_ext[0];
;;;577    snmp_dt_msan=t_ext[1];
;;;578    snmp_dt_epu=t_ext[2];
;;;579    
;;;580    /*
;;;581    snmp_bat_voltage=Ubat;
;;;582    snmp_bat_current=Ibat;
;;;583    snmp_bat_temperature=t_b;
;;;584    if(BAT_C_REAL==0x5555)
;;;585    	{
;;;586    	snmp_bat_capacity=BAT_C_NOM*10;												    11
;;;587    	}
;;;588    else
;;;589    	{
;;;590    	snmp_bat_capacity=BAT_C_REAL;
;;;591    	}
;;;592    snmp_bat_charge=zar_percent;
;;;593    snmp_bat_status=0;
;;;594    if(St&0x02)snmp_bat_status|=0x01;
;;;595    if(Ibat>0)snmp_bat_status|=0x02;
;;;596    
;;;597    
;;;598    if(spc_stat==spc_OFF) snmp_spc_stat=0;
;;;599    else if(spc_stat==spc_KE) snmp_spc_stat=1;
;;;600    else if(spc_stat==spc_VZ) snmp_spc_stat=10;
;;;601    
;;;602    
;;;603    snmp_main_bps=MAIN_IST+1;
;;;604    */
;;;605    snmp_zv_en=ZV_ON;
;;;606    snmp_alarm_auto_disable=AV_OFF_AVT;
;;;607    snmp_bat_test_time=TBAT;
;;;608    snmp_u_max=UMAX;
;;;609    //snmp_u_min=UB20-DU;
;;;610    //snmp_u_0_grad=UB0;
;;;611    //snmp_u_20_grad=UB20;
;;;612    snmp_u_sign=USIGN;
;;;613    snmp_u_min_power=UMN;
;;;614    snmp_u_withouth_bat=U0B;
;;;615    snmp_control_current=IKB;
;;;616    snmp_max_charge_current=IZMAX;
;;;617    snmp_max_current=IMAX;
;;;618    snmp_min_current=IMIN;
;;;619    //snmp_max_current_koef=KIMAX;
;;;620    //snmp_uvz=UVZ;
;;;621    snmp_powerup_psu_timeout=TZAS;
;;;622    snmp_max_temperature=TMAX;
;;;623    snmp_tsign_bat=TBATSIGN; 
;;;624    snmp_tmax_bat=TBATMAX;
;;;625    snmp_tsign_bps=TSIGN;
;;;626    snmp_tmax_bps=TMAX;
;;;627    snmp_bat_part_alarm=UBM_AV; 
;;;628    snmp_power_cnt_adress=POWER_CNT_ADRESS;
;;;629    
;;;630    for(i=0;i<12;i++)
;;;631    	{
;;;632    	snmp_avt_number[i]=i+1;
;;;633    	if(avt_stat[i]==avtOFF)snmp_avt_stat[i]=0;
;;;634    	else snmp_avt_stat[i]=1;
;;;635    	}
;;;636    
;;;637    snmp_dt_number[0]=1;
;;;638    snmp_dt_number[1]=2;
;;;639    snmp_dt_number[2]=3;
;;;640    //snmp_dt_number[3]=4;
;;;641    snmp_dt_temper[0]=t_ext[0];
;;;642    snmp_dt_temper[1]=t_ext[1];
;;;643    snmp_dt_temper[2]=t_ext[2];
;;;644    //snmp_dt_temper[3]=t_ext[3];
;;;645    snmp_dt_error[0]=ND_EXT[0];
;;;646    if(NUMDT<1)snmp_dt_error[0]=0xff;
;;;647    snmp_dt_error[1]=ND_EXT[1];
;;;648    if(NUMDT<2)snmp_dt_error[0]=0xff;
;;;649    snmp_dt_error[2]=ND_EXT[2];
;;;650    if(NUMDT<3)snmp_dt_error[0]=0xff;
;;;651    //snmp_dt_error[3]=ND_EXT[3];
;;;652    if(NUMDT<4)snmp_dt_error[0]=0xff;
;;;653    
;;;654    /*
;;;655    //Литиевые батареи
;;;656    snmp_lakb_number[0]=1;								//Номер ЛАКБ
;;;657    snmp_lakb_number[1]=2;								//Номер ЛАКБ
;;;658    snmp_lakb_voltage[0]=lakb[0]._tot_bat_volt;				//Напряжение ЛАКБ
;;;659    snmp_lakb_voltage[1]=lakb[1]._tot_bat_volt;				//Напряжение ЛАКБ
;;;660    snmp_lakb_max_cell_voltage[0]=lakb[0]._max_cell_volt;		//Максимальное напряжение ячейки ЛАКБ
;;;661    snmp_lakb_max_cell_voltage[1]=lakb[1]._max_cell_volt;		//Максимальное напряжение ячейки ЛАКБ
;;;662    snmp_lakb_min_cell_voltage[0]=lakb[0]._min_cell_volt;		//Минимальное напряжение ячейки ЛАКБ
;;;663    snmp_lakb_min_cell_voltage[1]=lakb[1]._min_cell_volt;		//Минимальное напряжение ячейки ЛАКБ
;;;664    snmp_lakb_max_cell_temperature[0]=lakb[0]._max_cell_temp;	//Максимальная температура ячейки ЛАКБ
;;;665    snmp_lakb_max_cell_temperature[1]=lakb[1]._max_cell_temp;	//Максимальная температура ячейки ЛАКБ
;;;666    snmp_lakb_min_cell_temperature[0]=lakb[0]._min_cell_temp;	//Минимальная температура ячейки ЛАКБ
;;;667    snmp_lakb_min_cell_temperature[1]=lakb[1]._min_cell_temp;	//Минимальная температура ячейки ЛАКБ
;;;668    snmp_lakb_ch_curr[0]=lakb[0]._ch_curr;					//Ток заряда ЛАКБ
;;;669    snmp_lakb_ch_curr[1]=lakb[1]._ch_curr;					//Ток заряда ЛАКБ
;;;670    snmp_lakb_dsch_curr[0]=lakb[0]._dsch_curr;				//Ток разряда ЛАКБ
;;;671    snmp_lakb_dsch_curr[1]=lakb[1]._dsch_curr;				//Ток разряда ЛАКБ
;;;672    snmp_lakb_rat_cap[0]=lakb[0]._rat_cap;					//Номинальная емкость ЛАКБ
;;;673    snmp_lakb_rat_cap[1]=lakb[1]._rat_cap;					//Номинальная емкость ЛАКБ
;;;674    snmp_lakb_soh[0]=lakb[0]._s_o_h;						//Остаточная емкость ЛАКБ
;;;675    snmp_lakb_soh[1]=lakb[1]._s_o_h;						//Остаточная емкость ЛАКБ
;;;676    snmp_lakb_soc[0]=lakb[0]._s_o_c;						//Заряд ЛАКБ
;;;677    snmp_lakb_soc[1]=lakb[1]._s_o_c;						//Заряд ЛАКБ
;;;678    snmp_lakb_cclv[0]=lakb[0]._c_c_l_v;  					//Максимальный ток заряда ЛАКБ
;;;679    snmp_lakb_cclv[1]=lakb[1]._c_c_l_v;  					//Максимальный ток заряда ЛАКБ
;;;680    snmp_lakb_rbt[0]=lakb[0]._r_b_t;						//Оцениваемое время работы ЛАКБ
;;;681    snmp_lakb_rbt[1]=lakb[1]._r_b_t;						//Оцениваемое время работы ЛАКБ
;;;682    snmp_lakb_flags1[0]=lakb[0]._flags1;					//Первый флаг состояния ЛАКБ
;;;683    snmp_lakb_flags1[1]=lakb[1]._flags1;					//Первый флаг состояния ЛАКБ
;;;684    snmp_lakb_flags2[0]=lakb[0]._flags2;					//Второй флаг состояния ЛАКБ
;;;685    snmp_lakb_flags2[1]=lakb[1]._flags2;					//Второй флаг состояния ЛАКБ */
;;;686    
;;;687    //Литиевые батареи
;;;688    snmp_lakb_number[0]=1;								//Номер ЛАКБ
;;;689    snmp_lakb_number[1]=2;								//Номер ЛАКБ
;;;690    snmp_lakb_number[2]=3;								//Номер ЛАКБ
;;;691    snmp_lakb_number[3]=4;								//Номер ЛАКБ
;;;692    snmp_lakb_number[4]=5;								//Номер ЛАКБ
;;;693    snmp_lakb_number[5]=6;								//Номер ЛАКБ
;;;694    snmp_lakb_number[6]=7;								//Номер ЛАКБ
;;;695    
;;;696    for (i=0;i<3;i++)
;;;697    	{
;;;698    	snmp_lakb_voltage[i]=lakb[i]._tot_bat_volt;				//Напряжение ЛАКБ
;;;699    	snmp_lakb_max_cell_voltage[i]=lakb[i]._max_cell_volt;		//Максимальное напряжение ячейки ЛАКБ
;;;700    	snmp_lakb_min_cell_voltage[i]=lakb[i]._min_cell_volt;		//Минимальное напряжение ячейки ЛАКБ
;;;701    	snmp_lakb_max_cell_temperature[i]=lakb[i]._max_cell_temp;	//Максимальная температура ячейки ЛАКБ
;;;702    	//snmp_lakb_max_cell_temperature[1]=lakb[1]._max_cell_temp;	//Максимальная температура ячейки ЛАКБ
;;;703    	snmp_lakb_min_cell_temperature[i]=lakb[i]._min_cell_temp;	//Минимальная температура ячейки ЛАКБ
;;;704    	//snmp_lakb_min_cell_temperature[1]=lakb[1]._min_cell_temp;	//Минимальная температура ячейки ЛАКБ
;;;705    	snmp_lakb_ch_curr[i]=lakb[i]._ch_curr;					//Ток заряда ЛАКБ
;;;706    	//snmp_lakb_ch_curr[1]=lakb[1]._ch_curr;					//Ток заряда ЛАКБ
;;;707    	snmp_lakb_dsch_curr[i]=lakb[i]._dsch_curr;				//Ток разряда ЛАКБ
;;;708    	//snmp_lakb_dsch_curr[1]=lakb[1]._dsch_curr;				//Ток разряда ЛАКБ
;;;709    	snmp_lakb_rat_cap[i]=lakb[i]._rat_cap;					//Номинальная емкость ЛАКБ
;;;710    	//snmp_lakb_rat_cap[1]=lakb[1]._rat_cap;					//Номинальная емкость ЛАКБ
;;;711    	snmp_lakb_soh[i]=lakb[i]._s_o_h;						//Остаточная емкость ЛАКБ
;;;712    	//snmp_lakb_soh[1]=lakb[1]._s_o_h;						//Остаточная емкость ЛАКБ
;;;713    	snmp_lakb_soc[i]=lakb[i]._s_o_c;						//Заряд ЛАКБ
;;;714    	//snmp_lakb_soc[1]=lakb[1]._s_o_c;						//Заряд ЛАКБ
;;;715    	snmp_lakb_cclv[i]=lakb[i]._c_c_l_v;  					//Максимальный ток заряда ЛАКБ
;;;716    	//snmp_lakb_cclv[1]=lakb[1]._c_c_l_v;  					//Максимальный ток заряда ЛАКБ
;;;717    	snmp_lakb_rbt[i]=lakb[i]._r_b_t;						//Оцениваемое время работы ЛАКБ
;;;718    	//snmp_lakb_rbt[1]=lakb[1]._r_b_t;						//Оцениваемое время работы ЛАКБ
;;;719    	snmp_lakb_flags1[i]=lakb[i]._flags1;					//Первый флаг состояния ЛАКБ
;;;720    	//snmp_lakb_flags1[1]=lakb[1]._flags1;					//Первый флаг состояния ЛАКБ
;;;721    	snmp_lakb_flags2[i]=lakb[i]._flags2;					//Второй флаг состояния ЛАКБ
;;;722    	//snmp_lakb_flags2[1]=lakb[1]._flags2;					//Второй флаг состояния ЛАКБ
;;;723    
;;;724    	snmp_lakb_cell_temperature_1[i]= lakb[i]._cell_temp_1;
;;;725    	snmp_lakb_cell_temperature_2[i]= lakb[i]._cell_temp_2;
;;;726    	snmp_lakb_cell_temperature_3[i]= lakb[i]._cell_temp_3;
;;;727    	snmp_lakb_cell_temperature_4[i]= lakb[i]._cell_temp_4;
;;;728    	snmp_lakb_cell_temperature_ambient[i]=lakb[i]._cell_temp_ambient;
;;;729    	snmp_lakb_cell_temperature_power[i]=lakb[i]._cell_temp_power;
;;;730    	}
;;;731    
;;;732    for (i=0;i<7;i++)
;;;733    {
;;;734    /*
;;;735    snmp_lakb_damp1[i][0]=ABCDEF[(lakb_damp[i][0])>>4];			//Дамп
;;;736    snmp_lakb_damp1[i][1]=ABCDEF[(lakb_damp[i][0])&0x0f];			//Дамп
;;;737    snmp_lakb_damp1[i][2]=' ';
;;;738    snmp_lakb_damp1[i][3]=ABCDEF[(lakb_damp[i][1])>>4];			//Дамп
;;;739    snmp_lakb_damp1[i][4]=ABCDEF[(lakb_damp[i][1])&0x0f];			//Дамп
;;;740    snmp_lakb_damp1[i][5]=' ';
;;;741    snmp_lakb_damp1[i][6]=ABCDEF[(lakb_damp[i][2])>>4];			//Дамп
;;;742    snmp_lakb_damp1[i][7]=ABCDEF[(lakb_damp[i][2])&0x0f];			//Дамп
;;;743    snmp_lakb_damp1[i][8]=' ';
;;;744    snmp_lakb_damp1[i][9]=ABCDEF[(lakb_damp[i][3])>>4];			//Дамп
;;;745    snmp_lakb_damp1[i][10]=ABCDEF[(lakb_damp[i][3])&0x0f];			//Дамп
;;;746    snmp_lakb_damp1[i][11]=' ';
;;;747    snmp_lakb_damp1[i][12]=ABCDEF[(lakb_damp[i][4])>>4];			//Дамп
;;;748    snmp_lakb_damp1[i][13]=ABCDEF[(lakb_damp[i][4])&0x0f];			//Дамп
;;;749    snmp_lakb_damp1[i][14]=' '; 
;;;750    snmp_lakb_damp1[i][15]=ABCDEF[(lakb_damp[i][5])>>4];			//Дамп
;;;751    snmp_lakb_damp1[i][16]=ABCDEF[(lakb_damp[i][5])&0x0f];			//Дамп
;;;752    snmp_lakb_damp1[i][17]=' ';
;;;753    snmp_lakb_damp1[i][18]=ABCDEF[(lakb_damp[i][6])>>4];			//Дамп
;;;754    snmp_lakb_damp1[i][19]=ABCDEF[(lakb_damp[i][6])&0x0f];			//Дамп
;;;755    snmp_lakb_damp1[i][20]=' ';
;;;756    snmp_lakb_damp1[i][21]=ABCDEF[(lakb_damp[i][7])>>4];			//Дамп
;;;757    snmp_lakb_damp1[i][22]=ABCDEF[(lakb_damp[i][7])&0x0f];			//Дамп
;;;758    snmp_lakb_damp1[i][23]=' ';
;;;759    snmp_lakb_damp1[i][24]=ABCDEF[(lakb_damp[i][8])>>4];			//Дамп
;;;760    snmp_lakb_damp1[i][25]=ABCDEF[(lakb_damp[i][8])&0x0f];			//Дамп
;;;761    snmp_lakb_damp1[i][26]=' ';
;;;762    snmp_lakb_damp1[i][27]=ABCDEF[(lakb_damp[i][9])>>4];			//Дамп
;;;763    snmp_lakb_damp1[i][28]=ABCDEF[(lakb_damp[i][9])&0x0f];			//Дамп
;;;764    snmp_lakb_damp1[i][29]=0; 
;;;765    
;;;766    snmp_lakb_damp1[i][30]=ABCDEF[(lakb_damp[i][10])>>4];			//Дамп
;;;767    snmp_lakb_damp1[i][31]=ABCDEF[(lakb_damp[i][10])&0x0f];			//Дамп
;;;768    snmp_lakb_damp1[i][32]=' ';
;;;769    snmp_lakb_damp1[i][33]=ABCDEF[(lakb_damp[i][11])>>4];			//Дамп
;;;770    snmp_lakb_damp1[i][34]=ABCDEF[(lakb_damp[i][11])&0x0f];			//Дамп
;;;771    snmp_lakb_damp1[i][35]=' ';
;;;772    snmp_lakb_damp1[i][36]=ABCDEF[(lakb_damp[i][12])>>4];			//Дамп
;;;773    snmp_lakb_damp1[i][37]=ABCDEF[(lakb_damp[i][12])&0x0f];			//Дамп
;;;774    snmp_lakb_damp1[i][38]=' ';
;;;775    snmp_lakb_damp1[i][39]=ABCDEF[(lakb_damp[i][13])>>4];			//Дамп
;;;776    snmp_lakb_damp1[i][40]=ABCDEF[(lakb_damp[i][13])&0x0f];			//Дамп
;;;777    snmp_lakb_damp1[i][41]=' ';
;;;778    snmp_lakb_damp1[i][42]=ABCDEF[(lakb_damp[i][14])>>4];			//Дамп
;;;779    snmp_lakb_damp1[i][43]=ABCDEF[(lakb_damp[i][14])&0x0f];			//Дамп
;;;780    snmp_lakb_damp1[i][44]=' '; 
;;;781    snmp_lakb_damp1[i][45]=ABCDEF[(lakb_damp[i][15])>>4];			//Дамп
;;;782    snmp_lakb_damp1[i][46]=ABCDEF[(lakb_damp[i][15])&0x0f];			//Дамп
;;;783    snmp_lakb_damp1[i][47]=' ';
;;;784    snmp_lakb_damp1[i][48]=ABCDEF[(lakb_damp[i][16])>>4];			//Дамп
;;;785    snmp_lakb_damp1[i][49]=ABCDEF[(lakb_damp[i][16])&0x0f];			//Дамп
;;;786    snmp_lakb_damp1[i][50]=' ';
;;;787    snmp_lakb_damp1[i][51]=ABCDEF[(lakb_damp[i][17])>>4];			//Дамп
;;;788    snmp_lakb_damp1[i][52]=ABCDEF[(lakb_damp[i][17])&0x0f];			//Дамп
;;;789    snmp_lakb_damp1[i][53]=' ';
;;;790    snmp_lakb_damp1[i][54]=ABCDEF[(lakb_damp[i][18])>>4];			//Дамп
;;;791    snmp_lakb_damp1[i][55]=ABCDEF[(lakb_damp[i][18])&0x0f];			//Дамп
;;;792    snmp_lakb_damp1[i][56]=' ';
;;;793    snmp_lakb_damp1[i][57]=ABCDEF[(lakb_damp[i][19])>>4];			//Дамп
;;;794    snmp_lakb_damp1[i][58]=ABCDEF[(lakb_damp[i][19])&0x0f];			//Дамп
;;;795    snmp_lakb_damp1[i][59]=0; 
;;;796    
;;;797    
;;;798    snmp_lakb_damp1[i][60]=ABCDEF[(lakb_damp[i][20])>>4];			//Дамп
;;;799    snmp_lakb_damp1[i][61]=ABCDEF[(lakb_damp[i][20])&0x0f];			//Дамп
;;;800    snmp_lakb_damp1[i][62]=' ';
;;;801    snmp_lakb_damp1[i][63]=ABCDEF[(lakb_damp[i][21])>>4];			//Дамп
;;;802    snmp_lakb_damp1[i][64]=ABCDEF[(lakb_damp[i][21])&0x0f];			//Дамп
;;;803    snmp_lakb_damp1[i][65]=' ';
;;;804    snmp_lakb_damp1[i][66]=ABCDEF[(lakb_damp[i][22])>>4];			//Дамп
;;;805    snmp_lakb_damp1[i][67]=ABCDEF[(lakb_damp[i][22])&0x0f];			//Дамп
;;;806    snmp_lakb_damp1[i][68]=' ';
;;;807    snmp_lakb_damp1[i][69]=ABCDEF[(lakb_damp[i][23])>>4];			//Дамп
;;;808    snmp_lakb_damp1[i][70]=ABCDEF[(lakb_damp[i][23])&0x0f];			//Дамп
;;;809    snmp_lakb_damp1[i][71]=' ';
;;;810    snmp_lakb_damp1[i][72]=ABCDEF[(lakb_damp[i][24])>>4];			//Дамп
;;;811    snmp_lakb_damp1[i][73]=ABCDEF[(lakb_damp[i][24])&0x0f];			//Дамп
;;;812    snmp_lakb_damp1[i][74]=' '; 
;;;813    snmp_lakb_damp1[i][75]=ABCDEF[(lakb_damp[i][25])>>4];			//Дамп
;;;814    snmp_lakb_damp1[i][76]=ABCDEF[(lakb_damp[i][25])&0x0f];			//Дамп
;;;815    snmp_lakb_damp1[i][77]=' ';
;;;816    snmp_lakb_damp1[i][78]=ABCDEF[(lakb_damp[i][26])>>4];			//Дамп
;;;817    snmp_lakb_damp1[i][79]=ABCDEF[(lakb_damp[i][26])&0x0f];			//Дамп
;;;818    snmp_lakb_damp1[i][80]=' ';
;;;819    snmp_lakb_damp1[i][81]=ABCDEF[(lakb_damp[i][27])>>4];			//Дамп
;;;820    snmp_lakb_damp1[i][82]=ABCDEF[(lakb_damp[i][27])&0x0f];			//Дамп
;;;821    snmp_lakb_damp1[i][83]=' ';
;;;822    snmp_lakb_damp1[i][84]=ABCDEF[(lakb_damp[i][28])>>4];			//Дамп
;;;823    snmp_lakb_damp1[i][85]=ABCDEF[(lakb_damp[i][28])&0x0f];			//Дамп
;;;824    snmp_lakb_damp1[i][86]=' ';
;;;825    snmp_lakb_damp1[i][87]=ABCDEF[(lakb_damp[i][29])>>4];			//Дамп
;;;826    snmp_lakb_damp1[i][88]=ABCDEF[(lakb_damp[i][29])&0x0f];			//Дамп
;;;827    snmp_lakb_damp1[i][89]=0;
;;;828    
;;;829    
;;;830    snmp_lakb_damp1[i][90]=ABCDEF[(lakb_damp[i][30])>>4];			//Дамп
;;;831    snmp_lakb_damp1[i][91]=ABCDEF[(lakb_damp[i][30])&0x0f];			//Дамп
;;;832    snmp_lakb_damp1[i][92]=' ';
;;;833    snmp_lakb_damp1[i][93]=ABCDEF[(lakb_damp[i][31])>>4];			//Дамп
;;;834    snmp_lakb_damp1[i][94]=ABCDEF[(lakb_damp[i][31])&0x0f];			//Дамп
;;;835    snmp_lakb_damp1[i][95]=' ';
;;;836    snmp_lakb_damp1[i][96]=ABCDEF[(lakb_damp[i][32])>>4];			//Дамп
;;;837    snmp_lakb_damp1[i][97]=ABCDEF[(lakb_damp[i][32])&0x0f];			//Дамп
;;;838    snmp_lakb_damp1[i][98]=' ';
;;;839    snmp_lakb_damp1[i][99]=ABCDEF[(lakb_damp[i][33])>>4];			//Дамп
;;;840    snmp_lakb_damp1[i][100]=ABCDEF[(lakb_damp[i][33])&0x0f];			//Дамп
;;;841    snmp_lakb_damp1[i][101]=' ';
;;;842    snmp_lakb_damp1[i][102]=ABCDEF[(lakb_damp[i][34])>>4];			//Дамп
;;;843    snmp_lakb_damp1[i][103]=ABCDEF[(lakb_damp[i][34])&0x0f];			//Дамп
;;;844    snmp_lakb_damp1[i][104]=' '; 
;;;845    snmp_lakb_damp1[i][105]=ABCDEF[(lakb_damp[i][35])>>4];			//Дамп
;;;846    snmp_lakb_damp1[i][106]=ABCDEF[(lakb_damp[i][35])&0x0f];			//Дамп
;;;847    snmp_lakb_damp1[i][107]=' ';
;;;848    snmp_lakb_damp1[i][108]=ABCDEF[(lakb_damp[i][36])>>4];			//Дамп
;;;849    snmp_lakb_damp1[i][109]=ABCDEF[(lakb_damp[i][36])&0x0f];			//Дамп
;;;850    snmp_lakb_damp1[i][110]=' ';
;;;851    snmp_lakb_damp1[i][111]=ABCDEF[(lakb_damp[i][37])>>4];			//Дамп
;;;852    snmp_lakb_damp1[i][112]=ABCDEF[(lakb_damp[i][37])&0x0f];			//Дамп
;;;853    snmp_lakb_damp1[i][113]=' ';
;;;854    snmp_lakb_damp1[i][114]=ABCDEF[(lakb_damp[i][38])>>4];			//Дамп
;;;855    snmp_lakb_damp1[i][115]=ABCDEF[(lakb_damp[i][38])&0x0f];			//Дамп
;;;856    snmp_lakb_damp1[i][116]=' ';
;;;857    snmp_lakb_damp1[i][117]=ABCDEF[(lakb_damp[i][39])>>4];			//Дамп
;;;858    snmp_lakb_damp1[i][118]=ABCDEF[(lakb_damp[i][39])&0x0f];			//Дамп
;;;859    snmp_lakb_damp1[i][119]=0; 
;;;860     
;;;861    
;;;862    snmp_lakb_damp1[i][120]=ABCDEF[(lakb_damp[i][40])>>4];			//Дамп
;;;863    snmp_lakb_damp1[i][121]=ABCDEF[(lakb_damp[i][40])&0x0f];			//Дамп
;;;864    snmp_lakb_damp1[i][122]=' ';
;;;865    snmp_lakb_damp1[i][123]=ABCDEF[(lakb_damp[i][41])>>4];			//Дамп
;;;866    snmp_lakb_damp1[i][124]=ABCDEF[(lakb_damp[i][41])&0x0f];			//Дамп
;;;867    snmp_lakb_damp1[i][125]=' ';
;;;868    snmp_lakb_damp1[i][126]=ABCDEF[(lakb_damp[i][42])>>4];			//Дамп
;;;869    snmp_lakb_damp1[i][127]=ABCDEF[(lakb_damp[i][42])&0x0f];			//Дамп
;;;870    snmp_lakb_damp1[i][128]=' ';
;;;871    snmp_lakb_damp1[i][129]=ABCDEF[(lakb_damp[i][43])>>4];			//Дамп
;;;872    snmp_lakb_damp1[i][130]=ABCDEF[(lakb_damp[i][43])&0x0f];			//Дамп
;;;873    snmp_lakb_damp1[i][131]=' ';
;;;874    snmp_lakb_damp1[i][132]=ABCDEF[(lakb_damp[i][44])>>4];			//Дамп
;;;875    snmp_lakb_damp1[i][133]=ABCDEF[(lakb_damp[i][44])&0x0f];			//Дамп
;;;876    snmp_lakb_damp1[i][134]=' '; 
;;;877    snmp_lakb_damp1[i][135]=ABCDEF[(lakb_damp[i][45])>>4];			//Дамп
;;;878    snmp_lakb_damp1[i][136]=ABCDEF[(lakb_damp[i][45])&0x0f];			//Дамп
;;;879    snmp_lakb_damp1[i][137]=' ';
;;;880    snmp_lakb_damp1[i][138]=ABCDEF[(lakb_damp[i][46])>>4];			//Дамп
;;;881    snmp_lakb_damp1[i][139]=ABCDEF[(lakb_damp[i][46])&0x0f];			//Дамп
;;;882    snmp_lakb_damp1[i][140]=' ';
;;;883    snmp_lakb_damp1[i][141]=ABCDEF[(lakb_damp[i][47])>>4];			//Дамп
;;;884    snmp_lakb_damp1[i][142]=ABCDEF[(lakb_damp[i][47])&0x0f];			//Дамп
;;;885    snmp_lakb_damp1[i][143]=' ';
;;;886    snmp_lakb_damp1[i][144]=ABCDEF[(lakb_damp[i][48])>>4];			//Дамп
;;;887    snmp_lakb_damp1[i][145]=ABCDEF[(lakb_damp[i][48])&0x0f];			//Дамп
;;;888    snmp_lakb_damp1[i][146]=' ';
;;;889    snmp_lakb_damp1[i][147]=ABCDEF[(lakb_damp[i][49])>>4];			//Дамп
;;;890    snmp_lakb_damp1[i][148]=ABCDEF[(lakb_damp[i][49])&0x0f];			//Дамп
;;;891    snmp_lakb_damp1[i][149]=0;  */
;;;892    }
;;;893    
;;;894    #ifdef UKU_TELECORE2017
;;;895    snmp_warm_sign=0;
;;;896    if(TELECORE2017_KLIMAT_WARM_SIGNAL==0) snmp_warm_sign=2;
;;;897    else if(TELECORE2017_KLIMAT_WARM_SIGNAL==1) snmp_warm_sign=1;
;;;898    snmp_cool_sign=0;
;;;899    if(TELECORE2017_KLIMAT_VENT_SIGNAL==0) snmp_cool_sign=2;
;;;900    else if(TELECORE2017_KLIMAT_VENT_SIGNAL==1) snmp_cool_sign=1;
;;;901    snmp_warm_on_temper=(signed char)TELECORE2017_KLIMAT_WARM_ON; 
;;;902    snmp_warm_off_temper=(signed char)TELECORE2017_KLIMAT_WARM_OFF;
;;;903    snmp_warm_q=(signed char)TELECORE2017_KLIMAT_CAP;	
;;;904    snmp_cool_20_temper=(signed char)TELECORE2017_KLIMAT_VENT_ON20;
;;;905    snmp_cool_40_temper=(signed char)TELECORE2017_KLIMAT_VENT_ON40;
;;;906    snmp_cool_60_temper=(signed char)TELECORE2017_KLIMAT_VENT_ON60;
;;;907    snmp_cool_80_temper=(signed char)TELECORE2017_KLIMAT_VENT_ON80;
;;;908    snmp_cool_100_temper=(signed char)TELECORE2017_KLIMAT_VENT_ON100;
;;;909    snmp_cool_20_dtemper=(signed char)TELECORE2017_KLIMAT_DVENT_ON20;
;;;910    snmp_cool_40_dtemper=(signed char)TELECORE2017_KLIMAT_DVENT_ON40;
;;;911    snmp_cool_60_dtemper=(signed char)TELECORE2017_KLIMAT_DVENT_ON60;
;;;912    snmp_cool_80_dtemper=(signed char)TELECORE2017_KLIMAT_DVENT_ON80;
;;;913    snmp_cool_100_dtemper=(signed char)TELECORE2017_KLIMAT_DVENT_ON100;
;;;914    snmp_warm_stat=0;
;;;915    if(warm_stat_k==wsON) snmp_warm_stat=1;
;;;916    #endif
;;;917    }
;;;918    //-----------------------------------------------
                          ENDP

                  |L8.1804|
00070c  2c2055ed          DCB      ", U",237,224,247,"   , ",194,", U",234,238,237,"   , ",194
000710  e0f72020
000714  202c20c2
000718  2c2055ea
00071c  eeed2020
000720  202c20c2
000724  2c2043e1          DCB      ", C",225,224,242,"    , ",192,"*",247," ",0
000728  e0f22020
00072c  20202c20
000730  c02af720
000734  00      
000735  00                DCB      0
000736  00                DCB      0
000737  00                DCB      0
                  |L8.1848|
000738  40eef2ea          DCB      "@",238,242,234,235,254,247,232,235,241,255,"           "
00073c  ebfef7e8
000740  ebf1ff20
000744  20202020
000748  20202020
00074c  2020    
00074e  202000            DCB      "  ",0
000751  00                DCB      0
000752  00                DCB      0
000753  00                DCB      0
                  |L8.1876|
000754  4020efe5          DCB      "@ ",239,229,240,229,227,240,229,226,"   ",0
000758  f0e5e3f0
00075c  e5e22020
000760  2000    
000762  00                DCB      0
000763  00                DCB      0
                  |L8.1892|
000764  4020e7e0          DCB      "@ ",231,224,226,251,248,229,237,238," U",226,251,245,"."
000768  e2fbf8e5
00076c  edee2055
000770  e2fbf52e
000774  202000            DCB      "  ",0
000777  00                DCB      0
                  |L8.1912|
000778  4020e7e0          DCB      "@ ",231,224,237,232,230,229,237,238," U",226,251,245,"."
00077c  ede8e6e5
000780  edee2055
000784  e2fbf52e
000788  202000            DCB      "  ",0
00078b  00                DCB      0
                  |L8.1932|
00078c  2c2020f3          DCB      ",  ",243,241,242,240,224,237,229,237,224,"   ",0
000790  f1f2f0e0
000794  ede5ede0
000798  20202000
                  |L8.1948|
00079c  2c20ede5          DCB      ", ",237,229," ",243,241,242,240,224,237,229,237,224,"  "
0007a0  20f3f1f2
0007a4  f0e0ede5
0007a8  ede02020
0007ac  00                DCB      0
0007ad  00                DCB      0
0007ae  00                DCB      0
0007af  00                DCB      0

                          AREA ||area_number.9||, CODE, READONLY, ALIGN=2

                          EXPORTAS ||area_number.9||, ||.text||
                  snmp_klimat_settings_box_alarm_write PROC
;;;259    //-----------------------------------------------
;;;260    void snmp_data (void) 
000000  2801              CMP      r0,#1
;;;261    {
000002  d105              BNE      |L9.16|
;;;262    char i;
;;;263    
;;;264    snmp_mains_power_voltage=net_U;
000004  4803              LDR      r0,|L9.20|
000006  f9b0106c          LDRSH    r1,[r0,#0x6c]  ; snmp_klimat_settings_box_alarm
00000a  20d0              MOVS     r0,#0xd0
;;;265    #ifdef UKU_220_IPS_TERMOKOMPENSAT
;;;266    snmp_mains_power_frequency=net_F3;
00000c  f7ffbffe          B.W      lc640_write_int
                  |L9.16|
000010  4770              BX       lr
;;;267    #else
;;;268    snmp_mains_power_frequency=net_F;
;;;269    #endif
;;;270    snmp_mains_power_voltage_phaseA=net_Ua;
;;;271    snmp_mains_power_voltage_phaseB=net_Ub;
;;;272    snmp_mains_power_voltage_phaseC=net_Uc;
;;;273    
;;;274    /*
;;;275    snmp_mains_power_status=0; 
;;;276    #if(UKU_VERSION==900)
;;;277    snmp_mains_power_status=2;
;;;278    #endif
;;;279    if(St&0x01)snmp_mains_power_status|=0x01;
;;;280    if(St&0x01)snmp_mains_power_alarm=1;
;;;281    
;;;282    
;;;283    
;;;284    
;;;285    
;;;286    
;;;287    for(i=0;i<snmp_numofevents;i++)event2snmp(i);
;;;288    //snmp_bpsnumber[0]=1;
;;;289    //snmp_bpsnumber[1]=2;
;;;290    
;;;291    snmp_sernum=AUSW_MAIN_NUMBER;
;;;292    snmp_sernum_lsb=0x1122;
;;;293    snmp_sernum_msb=0x3344;
;;;294    snmp_device_code=AUSW_MAIN;
;;;295    
;;;296    //memcpy(snmp_location,"lkhg;la",);
;;;297    
;;;298    
;;;299    snmp_numofbat=1;
;;;300    
;;;301    */
;;;302    
;;;303    snmp_load_voltage=load_U;
;;;304    snmp_load_current=load_I;
;;;305    snmp_numofbat=NUMBAT;
;;;306    snmp_numofbps=NUMIST;
;;;307    snmp_numofinv=NUMINV;
;;;308    snmp_numofavt=NUMAVT;
;;;309    snmp_numofdt=NUMDT;
;;;310    snmp_numofsk=NUMSK;
;;;311    snmp_numofevents=lc640_read_int(CNT_EVENT_LOG);
;;;312    
;;;313    snmp_energy_vvod_phase_a=Uvv_eb2[0];
;;;314    snmp_energy_vvod_phase_b=Uvv_eb2[1];
;;;315    snmp_energy_vvod_phase_c=Uvv_eb2[2];
;;;316    snmp_energy_pes_phase_a=Upes_eb2[0];
;;;317    snmp_energy_pes_phase_b=Upes_eb2[1];
;;;318    snmp_energy_pes_phase_c=Upes_eb2[2];
;;;319    
;;;320    #ifdef UKU_KONTUR
;;;321    snmp_energy_vvod_phase_a=Uvv0;
;;;322    snmp_energy_pes_phase_a=Uvv[1];
;;;323    #endif
;;;324    
;;;325    snmp_energy_total_energy=power_summary;
;;;326    snmp_energy_current_energy=power_current;
;;;327    snmp_energy_input_voltage=net_U;
;;;328    
;;;329    snmp_bat_number[0]=1;
;;;330    snmp_bat_voltage[0]=bat[0]._Ub;
;;;331    snmp_bat_part_voltage[0]=bat[0]._Ubm;
;;;332    snmp_bat_current[0]=bat[0]._Ib;
;;;333    
;;;334    #ifdef UKU_220_IPS_TERMOKOMPENSAT
;;;335    if(((AUSW_MAIN==22063)||(AUSW_MAIN==22023))&&(bps[8]._device==dIBAT_METR))
;;;336    	{
;;;337    	snmp_bat_current[0]=Ib_ips_termokompensat;
;;;338    	}
;;;339    #endif
;;;340    
;;;341    snmp_bat_temperature[0]=bat[0]._Tb;
;;;342    if(BAT_C_REAL[0]==0x5555)snmp_bat_capacity[0]=BAT_C_NOM[0];
;;;343    else snmp_bat_capacity[0]=BAT_C_REAL[0];
;;;344    snmp_bat_charge[0]=bat[0]._zar;
;;;345    snmp_bat_status[0]=bat[0]._av;
;;;346    if(BAT_IS_ON[0]!=bisON)snmp_bat_status[0]=0xff;
;;;347    
;;;348    snmp_bat_number[1]=2;
;;;349    snmp_bat_voltage[1]=bat[1]._Ub;
;;;350    snmp_bat_part_voltage[1]=bat[1]._Ubm;
;;;351    snmp_bat_current[1]=bat[1]._Ib;
;;;352    snmp_bat_temperature[1]=bat[1]._Tb;
;;;353    if(BAT_C_REAL[1]==0x5555)snmp_bat_capacity[1]=BAT_C_NOM[1];
;;;354    else snmp_bat_capacity[1]=BAT_C_REAL[1];
;;;355    snmp_bat_charge[1]=bat[1]._zar;
;;;356    snmp_bat_status[1]=bat[1]._av;
;;;357    if(BAT_IS_ON[1]!=bisON)snmp_bat_status[1]=0xff;
;;;358    
;;;359    
;;;360    
;;;361    snmp_bps_number[0]=1;
;;;362    snmp_bps_voltage[0]=bps[0]._Uii;
;;;363    snmp_bps_current[0]=bps[0]._Ii;
;;;364    snmp_bps_temperature[0]=bps[0]._Ti;
;;;365    snmp_bps_stat[0]=bps[0]._av;
;;;366    if(!(NUMIST>0))snmp_bps_stat[0]=0xff;												//Байт состояния БПСа.
;;;367    
;;;368    /*if(St_[0]&(1<<2))snmp_bps_stat[0]=(1<<3); 							//авария по Umin
;;;369    else if(St_[0]&(1<<3))snmp_bps_stat[0]=(1<<2); 						//авария по Umax
;;;370    else if(bps[0]._av&(1<<0))snmp_bps_stat[0]=(1<<1); 						//авария по Tmax
;;;371    else if(St_[0]&(1<<5))snmp_bps_stat[0]=(1<<5); 						//заблокирован
;;;372    else if((!(St_[0]&0x3c))&&(!St&0x01)&&(!OFFBP1))snmp_bps_stat[0]=1; 		//Работает
;;;373    */
;;;374    
;;;375    snmp_bps_number[1]=2;
;;;376    snmp_bps_voltage[1]=bps[1]._Uii;
;;;377    snmp_bps_current[1]=bps[1]._Ii;
;;;378    snmp_bps_temperature[1]=bps[1]._Ti;
;;;379    snmp_bps_stat[1]=bps[1]._av;
;;;380    if(!(NUMIST>1))snmp_bps_stat[1]=0xff;												//Байт состояния БПСа.
;;;381    /*if(St_[1]&(1<<2))snmp_bps_stat[1]=(1<<3); 							//авария по Umin
;;;382    else if(St_[1]&(1<<3))snmp_bps_stat[1]=(1<<2); 						//авария по Umax
;;;383    else if(St_[1]&(1<<4))snmp_bps_stat[1]=(1<<1); 						//авария по Tmax
;;;384    else if(St_[1]&(1<<5))snmp_bps_stat[1]=(1<<5); 						//заблокирован
;;;385    else if((!(St_[1]&0x3c))&&(!St&0x01)&&(!OFFBP2))snmp_bps_stat[1]=1; 		//Работает
;;;386    */
;;;387    
;;;388    snmp_bps_number[2]=3;
;;;389    snmp_bps_voltage[2]=bps[2]._Uii;
;;;390    snmp_bps_current[2]=bps[2]._Ii;
;;;391    snmp_bps_temperature[2]=bps[2]._Ti;
;;;392    snmp_bps_stat[2]=bps[2]._av;
;;;393    if(!(NUMIST>2))snmp_bps_stat[2]=0xff;
;;;394    
;;;395    snmp_bps_number[3]=4;
;;;396    snmp_bps_voltage[3]=bps[3]._Uii;
;;;397    snmp_bps_current[3]=bps[3]._Ii;
;;;398    snmp_bps_temperature[3]=bps[3]._Ti;
;;;399    snmp_bps_stat[3]=bps[3]._av;
;;;400    if(!(NUMIST>3))snmp_bps_stat[3]=0xff;
;;;401    
;;;402    snmp_bps_number[4]=5;
;;;403    snmp_bps_voltage[4]=bps[4]._Uii;
;;;404    snmp_bps_current[4]=bps[4]._Ii;
;;;405    snmp_bps_temperature[4]=bps[4]._Ti;
;;;406    snmp_bps_stat[4]=bps[4]._av;
;;;407    if(!(NUMIST>4))snmp_bps_stat[4]=0xff;
;;;408    
;;;409    snmp_bps_number[5]=6;
;;;410    snmp_bps_voltage[5]=bps[5]._Uii;
;;;411    snmp_bps_current[5]=bps[5]._Ii;
;;;412    snmp_bps_temperature[5]=bps[5]._Ti;
;;;413    snmp_bps_stat[5]=bps[5]._av;
;;;414    if(!(NUMIST>5))snmp_bps_stat[5]=0xff;
;;;415    
;;;416    snmp_bps_number[6]=7;
;;;417    snmp_bps_voltage[6]=bps[6]._Uii;
;;;418    snmp_bps_current[6]=bps[6]._Ii;
;;;419    snmp_bps_temperature[6]=bps[6]._Ti;
;;;420    snmp_bps_stat[6]=bps[6]._av;
;;;421    if(!(NUMIST>6))snmp_bps_stat[6]=0xff;
;;;422    
;;;423    snmp_bps_number[7]=8;
;;;424    snmp_bps_voltage[7]=bps[7]._Uii;
;;;425    snmp_bps_current[7]=bps[7]._Ii;
;;;426    snmp_bps_temperature[7]=bps[7]._Ti;
;;;427    snmp_bps_stat[7]=bps[7]._av;
;;;428    if(!(NUMIST>7))snmp_bps_stat[7]=0xff;
;;;429    
;;;430    
;;;431    
;;;432    snmp_inv_number[0]=1;
;;;433    snmp_inv_voltage[0]=inv[0]._Uio;
;;;434    snmp_inv_current[0]=inv[0]._Ii;
;;;435    snmp_inv_temperature[0]=inv[0]._Ti;
;;;436    snmp_inv_stat[0]=inv[0]._flags_tm;
;;;437    
;;;438    snmp_inv_number[1]=2;
;;;439    snmp_inv_voltage[1]=inv[1]._Uio;
;;;440    snmp_inv_current[1]=inv[1]._Ii;
;;;441    snmp_inv_temperature[1]=inv[1]._Ti;
;;;442    snmp_inv_stat[1]=inv[1]._flags_tm;
;;;443    
;;;444    snmp_inv_number[2]=3;
;;;445    snmp_inv_voltage[2]=inv[2]._Uio;
;;;446    snmp_inv_current[2]=inv[2]._Ii;
;;;447    snmp_inv_temperature[2]=inv[2]._Ti;
;;;448    snmp_inv_stat[2]=inv[2]._flags_tm;
;;;449    
;;;450    
;;;451    
;;;452    
;;;453    					  
;;;454    snmp_sk_number[0]=1;
;;;455    memcpy(&snmp_sk_name[0][0],"Door",10);
;;;456    if(sk_stat[0]==ssON) snmp_sk_aktiv[0]=1;
;;;457    else snmp_sk_aktiv[0]=0;
;;;458    if(!SK_SIGN[0])snmp_sk_alarm_aktiv[0]=1;
;;;459    else snmp_sk_alarm_aktiv[0]=0;
;;;460    if(sk_av_stat[0]==sasON)	snmp_sk_alarm[0]=1;
;;;461    else                     snmp_sk_alarm[0]=0;
;;;462    
;;;463    
;;;464    snmp_sk_number[1]=2;
;;;465    memcpy(&snmp_sk_name[1][0],"Smoke",10);
;;;466    if(sk_stat[1]==ssON) snmp_sk_aktiv[1]=1;
;;;467    else snmp_sk_aktiv[1]=0;
;;;468    if(!SK_SIGN[1])snmp_sk_alarm_aktiv[1]=1;
;;;469    else snmp_sk_alarm_aktiv[1]=0;
;;;470    if(sk_av_stat[1]==sasON)	snmp_sk_alarm[1]=1;
;;;471    else                     snmp_sk_alarm[1]=0;
;;;472    
;;;473    snmp_sk_number[2]=3;
;;;474    memcpy(&snmp_sk_name[2][0],"Shock",10);
;;;475    if(sk_stat[2]==ssON) snmp_sk_aktiv[2]=1;
;;;476    else snmp_sk_aktiv[2]=0;
;;;477    if(!SK_SIGN[2])snmp_sk_alarm_aktiv[2]=1;
;;;478    else snmp_sk_alarm_aktiv[2]=0;
;;;479    if(sk_av_stat[2]==sasON)	snmp_sk_alarm[2]=1;
;;;480    else                     snmp_sk_alarm[2]=0;
;;;481    
;;;482    snmp_sk_number[3]=4;
;;;483    memcpy(&snmp_sk_name[3][0],"     ",10);
;;;484    if(sk_stat[3]==ssON) snmp_sk_aktiv[3]=1;
;;;485    else snmp_sk_aktiv[3]=0;
;;;486    if(!SK_SIGN[3])snmp_sk_alarm_aktiv[3]=1;
;;;487    else snmp_sk_alarm_aktiv[3]=0;
;;;488    if(sk_av_stat[3]==sasON)	snmp_sk_alarm[3]=1;
;;;489    else                     snmp_sk_alarm[3]=0;
;;;490    
;;;491    
;;;492    if(makb[0]._cnt>8) snmp_makb_connect_status[0]=1;
;;;493    else if(makb[0]._cnt<2) snmp_makb_connect_status[0]=0;
;;;494    if(makb[1]._cnt>8) snmp_makb_connect_status[1]=1;
;;;495    else if(makb[1]._cnt<2) snmp_makb_connect_status[1]=0;
;;;496    if(makb[2]._cnt>8) snmp_makb_connect_status[2]=1;
;;;497    else if(makb[2]._cnt<2) snmp_makb_connect_status[2]=0;
;;;498    if(makb[3]._cnt>8) snmp_makb_connect_status[3]=1;
;;;499    else if(makb[3]._cnt<2) snmp_makb_connect_status[3]=0;
;;;500    
;;;501    snmp_makb_voltage0[0]=makb[0]._Ub[0];
;;;502    snmp_makb_voltage1[0]=makb[0]._Ub[1];
;;;503    snmp_makb_voltage2[0]=makb[0]._Ub[2];
;;;504    snmp_makb_voltage3[0]=makb[0]._Ub[3];
;;;505    snmp_makb_voltage4[0]=makb[0]._Ub[4];
;;;506    snmp_makb_voltage0[1]=makb[1]._Ub[0];
;;;507    snmp_makb_voltage1[1]=makb[1]._Ub[1];
;;;508    snmp_makb_voltage2[1]=makb[1]._Ub[2];
;;;509    snmp_makb_voltage3[1]=makb[1]._Ub[3];
;;;510    snmp_makb_voltage4[1]=makb[1]._Ub[4];
;;;511    snmp_makb_voltage0[2]=makb[2]._Ub[0];
;;;512    snmp_makb_voltage1[2]=makb[2]._Ub[1];
;;;513    snmp_makb_voltage2[2]=makb[2]._Ub[2];
;;;514    snmp_makb_voltage3[2]=makb[2]._Ub[3];
;;;515    snmp_makb_voltage4[2]=makb[2]._Ub[4];
;;;516    snmp_makb_voltage0[3]=makb[3]._Ub[0];
;;;517    snmp_makb_voltage1[3]=makb[3]._Ub[1];
;;;518    snmp_makb_voltage2[3]=makb[3]._Ub[2];
;;;519    snmp_makb_voltage3[3]=makb[3]._Ub[3];
;;;520    snmp_makb_voltage4[3]=makb[3]._Ub[4];
;;;521    
;;;522    snmp_makb_temper0[0]=makb[0]._T[0];
;;;523    snmp_makb_temper1[0]=makb[0]._T[1];
;;;524    snmp_makb_temper2[0]=makb[0]._T[2];
;;;525    snmp_makb_temper3[0]=makb[0]._T[3];
;;;526    snmp_makb_temper4[0]=makb[0]._T[4];
;;;527    snmp_makb_temper0[1]=makb[1]._T[0];
;;;528    snmp_makb_temper1[1]=makb[1]._T[1];
;;;529    snmp_makb_temper2[1]=makb[1]._T[2];
;;;530    snmp_makb_temper3[1]=makb[1]._T[3];
;;;531    snmp_makb_temper4[1]=makb[1]._T[4];
;;;532    snmp_makb_temper0[2]=makb[2]._T[0];
;;;533    snmp_makb_temper1[2]=makb[2]._T[1];
;;;534    snmp_makb_temper2[2]=makb[2]._T[2];
;;;535    snmp_makb_temper3[2]=makb[2]._T[3];
;;;536    snmp_makb_temper4[2]=makb[2]._T[4];
;;;537    snmp_makb_temper0[3]=makb[3]._T[0];
;;;538    snmp_makb_temper1[3]=makb[3]._T[1];
;;;539    snmp_makb_temper2[3]=makb[3]._T[2];
;;;540    snmp_makb_temper3[3]=makb[3]._T[3];
;;;541    snmp_makb_temper4[3]=makb[3]._T[4];
;;;542    
;;;543    snmp_makb_temper0_stat[0]=makb[0]._T_nd[0];
;;;544    snmp_makb_temper1_stat[0]=makb[0]._T_nd[1];
;;;545    snmp_makb_temper2_stat[0]=makb[0]._T_nd[2];
;;;546    snmp_makb_temper3_stat[0]=makb[0]._T_nd[3];
;;;547    snmp_makb_temper4_stat[0]=makb[0]._T_nd[4];
;;;548    snmp_makb_temper0_stat[1]=makb[1]._T_nd[0];
;;;549    snmp_makb_temper1_stat[1]=makb[1]._T_nd[1];
;;;550    snmp_makb_temper2_stat[1]=makb[1]._T_nd[2];
;;;551    snmp_makb_temper3_stat[1]=makb[1]._T_nd[3];
;;;552    snmp_makb_temper4_stat[1]=makb[1]._T_nd[4];
;;;553    snmp_makb_temper0_stat[2]=makb[2]._T_nd[0];
;;;554    snmp_makb_temper1_stat[2]=makb[2]._T_nd[1];
;;;555    snmp_makb_temper2_stat[2]=makb[2]._T_nd[2];
;;;556    snmp_makb_temper3_stat[2]=makb[2]._T_nd[3];
;;;557    snmp_makb_temper4_stat[2]=makb[2]._T_nd[4];
;;;558    snmp_makb_temper0_stat[3]=makb[3]._T_nd[0];
;;;559    snmp_makb_temper1_stat[3]=makb[3]._T_nd[1];
;;;560    snmp_makb_temper2_stat[3]=makb[3]._T_nd[2];
;;;561    snmp_makb_temper3_stat[3]=makb[3]._T_nd[3];
;;;562    snmp_makb_temper4_stat[3]=makb[3]._T_nd[4];
;;;563    
;;;564    
;;;565    snmp_klimat_box_temper=t_box;
;;;566    snmp_klimat_settings_box_alarm=TBOXMAX;
;;;567    snmp_klimat_settings_vent_on=TBOXVENTON;
;;;568    snmp_klimat_settings_vent_off=TBOXVENTOFF;
;;;569    snmp_klimat_settings_warm_on=TBOXWARMON;
;;;570    snmp_klimat_settings_warm_off=TBOXWARMOFF;
;;;571    snmp_klimat_settings_load_on=TLOADENABLE;
;;;572    snmp_klimat_settings_load_off=TLOADDISABLE;
;;;573    snmp_klimat_settings_batt_on=TBATENABLE;
;;;574    snmp_klimat_settings_batt_off=TBATDISABLE;
;;;575    
;;;576    snmp_dt_ext=t_ext[0];
;;;577    snmp_dt_msan=t_ext[1];
;;;578    snmp_dt_epu=t_ext[2];
;;;579    
;;;580    /*
;;;581    snmp_bat_voltage=Ubat;
;;;582    snmp_bat_current=Ibat;
;;;583    snmp_bat_temperature=t_b;
;;;584    if(BAT_C_REAL==0x5555)
;;;585    	{
;;;586    	snmp_bat_capacity=BAT_C_NOM*10;												    11
;;;587    	}
;;;588    else
;;;589    	{
;;;590    	snmp_bat_capacity=BAT_C_REAL;
;;;591    	}
;;;592    snmp_bat_charge=zar_percent;
;;;593    snmp_bat_status=0;
;;;594    if(St&0x02)snmp_bat_status|=0x01;
;;;595    if(Ibat>0)snmp_bat_status|=0x02;
;;;596    
;;;597    
;;;598    if(spc_stat==spc_OFF) snmp_spc_stat=0;
;;;599    else if(spc_stat==spc_KE) snmp_spc_stat=1;
;;;600    else if(spc_stat==spc_VZ) snmp_spc_stat=10;
;;;601    
;;;602    
;;;603    snmp_main_bps=MAIN_IST+1;
;;;604    */
;;;605    snmp_zv_en=ZV_ON;
;;;606    snmp_alarm_auto_disable=AV_OFF_AVT;
;;;607    snmp_bat_test_time=TBAT;
;;;608    snmp_u_max=UMAX;
;;;609    //snmp_u_min=UB20-DU;
;;;610    //snmp_u_0_grad=UB0;
;;;611    //snmp_u_20_grad=UB20;
;;;612    snmp_u_sign=USIGN;
;;;613    snmp_u_min_power=UMN;
;;;614    snmp_u_withouth_bat=U0B;
;;;615    snmp_control_current=IKB;
;;;616    snmp_max_charge_current=IZMAX;
;;;617    snmp_max_current=IMAX;
;;;618    snmp_min_current=IMIN;
;;;619    //snmp_max_current_koef=KIMAX;
;;;620    //snmp_uvz=UVZ;
;;;621    snmp_powerup_psu_timeout=TZAS;
;;;622    snmp_max_temperature=TMAX;
;;;623    snmp_tsign_bat=TBATSIGN; 
;;;624    snmp_tmax_bat=TBATMAX;
;;;625    snmp_tsign_bps=TSIGN;
;;;626    snmp_tmax_bps=TMAX;
;;;627    snmp_bat_part_alarm=UBM_AV; 
;;;628    snmp_power_cnt_adress=POWER_CNT_ADRESS;
;;;629    
;;;630    for(i=0;i<12;i++)
;;;631    	{
;;;632    	snmp_avt_number[i]=i+1;
;;;633    	if(avt_stat[i]==avtOFF)snmp_avt_stat[i]=0;
;;;634    	else snmp_avt_stat[i]=1;
;;;635    	}
;;;636    
;;;637    snmp_dt_number[0]=1;
;;;638    snmp_dt_number[1]=2;
;;;639    snmp_dt_number[2]=3;
;;;640    //snmp_dt_number[3]=4;
;;;641    snmp_dt_temper[0]=t_ext[0];
;;;642    snmp_dt_temper[1]=t_ext[1];
;;;643    snmp_dt_temper[2]=t_ext[2];
;;;644    //snmp_dt_temper[3]=t_ext[3];
;;;645    snmp_dt_error[0]=ND_EXT[0];
;;;646    if(NUMDT<1)snmp_dt_error[0]=0xff;
;;;647    snmp_dt_error[1]=ND_EXT[1];
;;;648    if(NUMDT<2)snmp_dt_error[0]=0xff;
;;;649    snmp_dt_error[2]=ND_EXT[2];
;;;650    if(NUMDT<3)snmp_dt_error[0]=0xff;
;;;651    //snmp_dt_error[3]=ND_EXT[3];
;;;652    if(NUMDT<4)snmp_dt_error[0]=0xff;
;;;653    
;;;654    /*
;;;655    //Литиевые батареи
;;;656    snmp_lakb_number[0]=1;								//Номер ЛАКБ
;;;657    snmp_lakb_number[1]=2;								//Номер ЛАКБ
;;;658    snmp_lakb_voltage[0]=lakb[0]._tot_bat_volt;				//Напряжение ЛАКБ
;;;659    snmp_lakb_voltage[1]=lakb[1]._tot_bat_volt;				//Напряжение ЛАКБ
;;;660    snmp_lakb_max_cell_voltage[0]=lakb[0]._max_cell_volt;		//Максимальное напряжение ячейки ЛАКБ
;;;661    snmp_lakb_max_cell_voltage[1]=lakb[1]._max_cell_volt;		//Максимальное напряжение ячейки ЛАКБ
;;;662    snmp_lakb_min_cell_voltage[0]=lakb[0]._min_cell_volt;		//Минимальное напряжение ячейки ЛАКБ
;;;663    snmp_lakb_min_cell_voltage[1]=lakb[1]._min_cell_volt;		//Минимальное напряжение ячейки ЛАКБ
;;;664    snmp_lakb_max_cell_temperature[0]=lakb[0]._max_cell_temp;	//Максимальная температура ячейки ЛАКБ
;;;665    snmp_lakb_max_cell_temperature[1]=lakb[1]._max_cell_temp;	//Максимальная температура ячейки ЛАКБ
;;;666    snmp_lakb_min_cell_temperature[0]=lakb[0]._min_cell_temp;	//Минимальная температура ячейки ЛАКБ
;;;667    snmp_lakb_min_cell_temperature[1]=lakb[1]._min_cell_temp;	//Минимальная температура ячейки ЛАКБ
;;;668    snmp_lakb_ch_curr[0]=lakb[0]._ch_curr;					//Ток заряда ЛАКБ
;;;669    snmp_lakb_ch_curr[1]=lakb[1]._ch_curr;					//Ток заряда ЛАКБ
;;;670    snmp_lakb_dsch_curr[0]=lakb[0]._dsch_curr;				//Ток разряда ЛАКБ
;;;671    snmp_lakb_dsch_curr[1]=lakb[1]._dsch_curr;				//Ток разряда ЛАКБ
;;;672    snmp_lakb_rat_cap[0]=lakb[0]._rat_cap;					//Номинальная емкость ЛАКБ
;;;673    snmp_lakb_rat_cap[1]=lakb[1]._rat_cap;					//Номинальная емкость ЛАКБ
;;;674    snmp_lakb_soh[0]=lakb[0]._s_o_h;						//Остаточная емкость ЛАКБ
;;;675    snmp_lakb_soh[1]=lakb[1]._s_o_h;						//Остаточная емкость ЛАКБ
;;;676    snmp_lakb_soc[0]=lakb[0]._s_o_c;						//Заряд ЛАКБ
;;;677    snmp_lakb_soc[1]=lakb[1]._s_o_c;						//Заряд ЛАКБ
;;;678    snmp_lakb_cclv[0]=lakb[0]._c_c_l_v;  					//Максимальный ток заряда ЛАКБ
;;;679    snmp_lakb_cclv[1]=lakb[1]._c_c_l_v;  					//Максимальный ток заряда ЛАКБ
;;;680    snmp_lakb_rbt[0]=lakb[0]._r_b_t;						//Оцениваемое время работы ЛАКБ
;;;681    snmp_lakb_rbt[1]=lakb[1]._r_b_t;						//Оцениваемое время работы ЛАКБ
;;;682    snmp_lakb_flags1[0]=lakb[0]._flags1;					//Первый флаг состояния ЛАКБ
;;;683    snmp_lakb_flags1[1]=lakb[1]._flags1;					//Первый флаг состояния ЛАКБ
;;;684    snmp_lakb_flags2[0]=lakb[0]._flags2;					//Второй флаг состояния ЛАКБ
;;;685    snmp_lakb_flags2[1]=lakb[1]._flags2;					//Второй флаг состояния ЛАКБ */
;;;686    
;;;687    //Литиевые батареи
;;;688    snmp_lakb_number[0]=1;								//Номер ЛАКБ
;;;689    snmp_lakb_number[1]=2;								//Номер ЛАКБ
;;;690    snmp_lakb_number[2]=3;								//Номер ЛАКБ
;;;691    snmp_lakb_number[3]=4;								//Номер ЛАКБ
;;;692    snmp_lakb_number[4]=5;								//Номер ЛАКБ
;;;693    snmp_lakb_number[5]=6;								//Номер ЛАКБ
;;;694    snmp_lakb_number[6]=7;								//Номер ЛАКБ
;;;695    
;;;696    for (i=0;i<3;i++)
;;;697    	{
;;;698    	snmp_lakb_voltage[i]=lakb[i]._tot_bat_volt;				//Напряжение ЛАКБ
;;;699    	snmp_lakb_max_cell_voltage[i]=lakb[i]._max_cell_volt;		//Максимальное напряжение ячейки ЛАКБ
;;;700    	snmp_lakb_min_cell_voltage[i]=lakb[i]._min_cell_volt;		//Минимальное напряжение ячейки ЛАКБ
;;;701    	snmp_lakb_max_cell_temperature[i]=lakb[i]._max_cell_temp;	//Максимальная температура ячейки ЛАКБ
;;;702    	//snmp_lakb_max_cell_temperature[1]=lakb[1]._max_cell_temp;	//Максимальная температура ячейки ЛАКБ
;;;703    	snmp_lakb_min_cell_temperature[i]=lakb[i]._min_cell_temp;	//Минимальная температура ячейки ЛАКБ
;;;704    	//snmp_lakb_min_cell_temperature[1]=lakb[1]._min_cell_temp;	//Минимальная температура ячейки ЛАКБ
;;;705    	snmp_lakb_ch_curr[i]=lakb[i]._ch_curr;					//Ток заряда ЛАКБ
;;;706    	//snmp_lakb_ch_curr[1]=lakb[1]._ch_curr;					//Ток заряда ЛАКБ
;;;707    	snmp_lakb_dsch_curr[i]=lakb[i]._dsch_curr;				//Ток разряда ЛАКБ
;;;708    	//snmp_lakb_dsch_curr[1]=lakb[1]._dsch_curr;				//Ток разряда ЛАКБ
;;;709    	snmp_lakb_rat_cap[i]=lakb[i]._rat_cap;					//Номинальная емкость ЛАКБ
;;;710    	//snmp_lakb_rat_cap[1]=lakb[1]._rat_cap;					//Номинальная емкость ЛАКБ
;;;711    	snmp_lakb_soh[i]=lakb[i]._s_o_h;						//Остаточная емкость ЛАКБ
;;;712    	//snmp_lakb_soh[1]=lakb[1]._s_o_h;						//Остаточная емкость ЛАКБ
;;;713    	snmp_lakb_soc[i]=lakb[i]._s_o_c;						//Заряд ЛАКБ
;;;714    	//snmp_lakb_soc[1]=lakb[1]._s_o_c;						//Заряд ЛАКБ
;;;715    	snmp_lakb_cclv[i]=lakb[i]._c_c_l_v;  					//Максимальный ток заряда ЛАКБ
;;;716    	//snmp_lakb_cclv[1]=lakb[1]._c_c_l_v;  					//Максимальный ток заряда ЛАКБ
;;;717    	snmp_lakb_rbt[i]=lakb[i]._r_b_t;						//Оцениваемое время работы ЛАКБ
;;;718    	//snmp_lakb_rbt[1]=lakb[1]._r_b_t;						//Оцениваемое время работы ЛАКБ
;;;719    	snmp_lakb_flags1[i]=lakb[i]._flags1;					//Первый флаг состояния ЛАКБ
;;;720    	//snmp_lakb_flags1[1]=lakb[1]._flags1;					//Первый флаг состояния ЛАКБ
;;;721    	snmp_lakb_flags2[i]=lakb[i]._flags2;					//Второй флаг состояния ЛАКБ
;;;722    	//snmp_lakb_flags2[1]=lakb[1]._flags2;					//Второй флаг состояния ЛАКБ
;;;723    
;;;724    	snmp_lakb_cell_temperature_1[i]= lakb[i]._cell_temp_1;
;;;725    	snmp_lakb_cell_temperature_2[i]= lakb[i]._cell_temp_2;
;;;726    	snmp_lakb_cell_temperature_3[i]= lakb[i]._cell_temp_3;
;;;727    	snmp_lakb_cell_temperature_4[i]= lakb[i]._cell_temp_4;
;;;728    	snmp_lakb_cell_temperature_ambient[i]=lakb[i]._cell_temp_ambient;
;;;729    	snmp_lakb_cell_temperature_power[i]=lakb[i]._cell_temp_power;
;;;730    	}
;;;731    
;;;732    for (i=0;i<7;i++)
;;;733    {
;;;734    /*
;;;735    snmp_lakb_damp1[i][0]=ABCDEF[(lakb_damp[i][0])>>4];			//Дамп
;;;736    snmp_lakb_damp1[i][1]=ABCDEF[(lakb_damp[i][0])&0x0f];			//Дамп
;;;737    snmp_lakb_damp1[i][2]=' ';
;;;738    snmp_lakb_damp1[i][3]=ABCDEF[(lakb_damp[i][1])>>4];			//Дамп
;;;739    snmp_lakb_damp1[i][4]=ABCDEF[(lakb_damp[i][1])&0x0f];			//Дамп
;;;740    snmp_lakb_damp1[i][5]=' ';
;;;741    snmp_lakb_damp1[i][6]=ABCDEF[(lakb_damp[i][2])>>4];			//Дамп
;;;742    snmp_lakb_damp1[i][7]=ABCDEF[(lakb_damp[i][2])&0x0f];			//Дамп
;;;743    snmp_lakb_damp1[i][8]=' ';
;;;744    snmp_lakb_damp1[i][9]=ABCDEF[(lakb_damp[i][3])>>4];			//Дамп
;;;745    snmp_lakb_damp1[i][10]=ABCDEF[(lakb_damp[i][3])&0x0f];			//Дамп
;;;746    snmp_lakb_damp1[i][11]=' ';
;;;747    snmp_lakb_damp1[i][12]=ABCDEF[(lakb_damp[i][4])>>4];			//Дамп
;;;748    snmp_lakb_damp1[i][13]=ABCDEF[(lakb_damp[i][4])&0x0f];			//Дамп
;;;749    snmp_lakb_damp1[i][14]=' '; 
;;;750    snmp_lakb_damp1[i][15]=ABCDEF[(lakb_damp[i][5])>>4];			//Дамп
;;;751    snmp_lakb_damp1[i][16]=ABCDEF[(lakb_damp[i][5])&0x0f];			//Дамп
;;;752    snmp_lakb_damp1[i][17]=' ';
;;;753    snmp_lakb_damp1[i][18]=ABCDEF[(lakb_damp[i][6])>>4];			//Дамп
;;;754    snmp_lakb_damp1[i][19]=ABCDEF[(lakb_damp[i][6])&0x0f];			//Дамп
;;;755    snmp_lakb_damp1[i][20]=' ';
;;;756    snmp_lakb_damp1[i][21]=ABCDEF[(lakb_damp[i][7])>>4];			//Дамп
;;;757    snmp_lakb_damp1[i][22]=ABCDEF[(lakb_damp[i][7])&0x0f];			//Дамп
;;;758    snmp_lakb_damp1[i][23]=' ';
;;;759    snmp_lakb_damp1[i][24]=ABCDEF[(lakb_damp[i][8])>>4];			//Дамп
;;;760    snmp_lakb_damp1[i][25]=ABCDEF[(lakb_damp[i][8])&0x0f];			//Дамп
;;;761    snmp_lakb_damp1[i][26]=' ';
;;;762    snmp_lakb_damp1[i][27]=ABCDEF[(lakb_damp[i][9])>>4];			//Дамп
;;;763    snmp_lakb_damp1[i][28]=ABCDEF[(lakb_damp[i][9])&0x0f];			//Дамп
;;;764    snmp_lakb_damp1[i][29]=0; 
;;;765    
;;;766    snmp_lakb_damp1[i][30]=ABCDEF[(lakb_damp[i][10])>>4];			//Дамп
;;;767    snmp_lakb_damp1[i][31]=ABCDEF[(lakb_damp[i][10])&0x0f];			//Дамп
;;;768    snmp_lakb_damp1[i][32]=' ';
;;;769    snmp_lakb_damp1[i][33]=ABCDEF[(lakb_damp[i][11])>>4];			//Дамп
;;;770    snmp_lakb_damp1[i][34]=ABCDEF[(lakb_damp[i][11])&0x0f];			//Дамп
;;;771    snmp_lakb_damp1[i][35]=' ';
;;;772    snmp_lakb_damp1[i][36]=ABCDEF[(lakb_damp[i][12])>>4];			//Дамп
;;;773    snmp_lakb_damp1[i][37]=ABCDEF[(lakb_damp[i][12])&0x0f];			//Дамп
;;;774    snmp_lakb_damp1[i][38]=' ';
;;;775    snmp_lakb_damp1[i][39]=ABCDEF[(lakb_damp[i][13])>>4];			//Дамп
;;;776    snmp_lakb_damp1[i][40]=ABCDEF[(lakb_damp[i][13])&0x0f];			//Дамп
;;;777    snmp_lakb_damp1[i][41]=' ';
;;;778    snmp_lakb_damp1[i][42]=ABCDEF[(lakb_damp[i][14])>>4];			//Дамп
;;;779    snmp_lakb_damp1[i][43]=ABCDEF[(lakb_damp[i][14])&0x0f];			//Дамп
;;;780    snmp_lakb_damp1[i][44]=' '; 
;;;781    snmp_lakb_damp1[i][45]=ABCDEF[(lakb_damp[i][15])>>4];			//Дамп
;;;782    snmp_lakb_damp1[i][46]=ABCDEF[(lakb_damp[i][15])&0x0f];			//Дамп
;;;783    snmp_lakb_damp1[i][47]=' ';
;;;784    snmp_lakb_damp1[i][48]=ABCDEF[(lakb_damp[i][16])>>4];			//Дамп
;;;785    snmp_lakb_damp1[i][49]=ABCDEF[(lakb_damp[i][16])&0x0f];			//Дамп
;;;786    snmp_lakb_damp1[i][50]=' ';
;;;787    snmp_lakb_damp1[i][51]=ABCDEF[(lakb_damp[i][17])>>4];			//Дамп
;;;788    snmp_lakb_damp1[i][52]=ABCDEF[(lakb_damp[i][17])&0x0f];			//Дамп
;;;789    snmp_lakb_damp1[i][53]=' ';
;;;790    snmp_lakb_damp1[i][54]=ABCDEF[(lakb_damp[i][18])>>4];			//Дамп
;;;791    snmp_lakb_damp1[i][55]=ABCDEF[(lakb_damp[i][18])&0x0f];			//Дамп
;;;792    snmp_lakb_damp1[i][56]=' ';
;;;793    snmp_lakb_damp1[i][57]=ABCDEF[(lakb_damp[i][19])>>4];			//Дамп
;;;794    snmp_lakb_damp1[i][58]=ABCDEF[(lakb_damp[i][19])&0x0f];			//Дамп
;;;795    snmp_lakb_damp1[i][59]=0; 
;;;796    
;;;797    
;;;798    snmp_lakb_damp1[i][60]=ABCDEF[(lakb_damp[i][20])>>4];			//Дамп
;;;799    snmp_lakb_damp1[i][61]=ABCDEF[(lakb_damp[i][20])&0x0f];			//Дамп
;;;800    snmp_lakb_damp1[i][62]=' ';
;;;801    snmp_lakb_damp1[i][63]=ABCDEF[(lakb_damp[i][21])>>4];			//Дамп
;;;802    snmp_lakb_damp1[i][64]=ABCDEF[(lakb_damp[i][21])&0x0f];			//Дамп
;;;803    snmp_lakb_damp1[i][65]=' ';
;;;804    snmp_lakb_damp1[i][66]=ABCDEF[(lakb_damp[i][22])>>4];			//Дамп
;;;805    snmp_lakb_damp1[i][67]=ABCDEF[(lakb_damp[i][22])&0x0f];			//Дамп
;;;806    snmp_lakb_damp1[i][68]=' ';
;;;807    snmp_lakb_damp1[i][69]=ABCDEF[(lakb_damp[i][23])>>4];			//Дамп
;;;808    snmp_lakb_damp1[i][70]=ABCDEF[(lakb_damp[i][23])&0x0f];			//Дамп
;;;809    snmp_lakb_damp1[i][71]=' ';
;;;810    snmp_lakb_damp1[i][72]=ABCDEF[(lakb_damp[i][24])>>4];			//Дамп
;;;811    snmp_lakb_damp1[i][73]=ABCDEF[(lakb_damp[i][24])&0x0f];			//Дамп
;;;812    snmp_lakb_damp1[i][74]=' '; 
;;;813    snmp_lakb_damp1[i][75]=ABCDEF[(lakb_damp[i][25])>>4];			//Дамп
;;;814    snmp_lakb_damp1[i][76]=ABCDEF[(lakb_damp[i][25])&0x0f];			//Дамп
;;;815    snmp_lakb_damp1[i][77]=' ';
;;;816    snmp_lakb_damp1[i][78]=ABCDEF[(lakb_damp[i][26])>>4];			//Дамп
;;;817    snmp_lakb_damp1[i][79]=ABCDEF[(lakb_damp[i][26])&0x0f];			//Дамп
;;;818    snmp_lakb_damp1[i][80]=' ';
;;;819    snmp_lakb_damp1[i][81]=ABCDEF[(lakb_damp[i][27])>>4];			//Дамп
;;;820    snmp_lakb_damp1[i][82]=ABCDEF[(lakb_damp[i][27])&0x0f];			//Дамп
;;;821    snmp_lakb_damp1[i][83]=' ';
;;;822    snmp_lakb_damp1[i][84]=ABCDEF[(lakb_damp[i][28])>>4];			//Дамп
;;;823    snmp_lakb_damp1[i][85]=ABCDEF[(lakb_damp[i][28])&0x0f];			//Дамп
;;;824    snmp_lakb_damp1[i][86]=' ';
;;;825    snmp_lakb_damp1[i][87]=ABCDEF[(lakb_damp[i][29])>>4];			//Дамп
;;;826    snmp_lakb_damp1[i][88]=ABCDEF[(lakb_damp[i][29])&0x0f];			//Дамп
;;;827    snmp_lakb_damp1[i][89]=0;
;;;828    
;;;829    
;;;830    snmp_lakb_damp1[i][90]=ABCDEF[(lakb_damp[i][30])>>4];			//Дамп
;;;831    snmp_lakb_damp1[i][91]=ABCDEF[(lakb_damp[i][30])&0x0f];			//Дамп
;;;832    snmp_lakb_damp1[i][92]=' ';
;;;833    snmp_lakb_damp1[i][93]=ABCDEF[(lakb_damp[i][31])>>4];			//Дамп
;;;834    snmp_lakb_damp1[i][94]=ABCDEF[(lakb_damp[i][31])&0x0f];			//Дамп
;;;835    snmp_lakb_damp1[i][95]=' ';
;;;836    snmp_lakb_damp1[i][96]=ABCDEF[(lakb_damp[i][32])>>4];			//Дамп
;;;837    snmp_lakb_damp1[i][97]=ABCDEF[(lakb_damp[i][32])&0x0f];			//Дамп
;;;838    snmp_lakb_damp1[i][98]=' ';
;;;839    snmp_lakb_damp1[i][99]=ABCDEF[(lakb_damp[i][33])>>4];			//Дамп
;;;840    snmp_lakb_damp1[i][100]=ABCDEF[(lakb_damp[i][33])&0x0f];			//Дамп
;;;841    snmp_lakb_damp1[i][101]=' ';
;;;842    snmp_lakb_damp1[i][102]=ABCDEF[(lakb_damp[i][34])>>4];			//Дамп
;;;843    snmp_lakb_damp1[i][103]=ABCDEF[(lakb_damp[i][34])&0x0f];			//Дамп
;;;844    snmp_lakb_damp1[i][104]=' '; 
;;;845    snmp_lakb_damp1[i][105]=ABCDEF[(lakb_damp[i][35])>>4];			//Дамп
;;;846    snmp_lakb_damp1[i][106]=ABCDEF[(lakb_damp[i][35])&0x0f];			//Дамп
;;;847    snmp_lakb_damp1[i][107]=' ';
;;;848    snmp_lakb_damp1[i][108]=ABCDEF[(lakb_damp[i][36])>>4];			//Дамп
;;;849    snmp_lakb_damp1[i][109]=ABCDEF[(lakb_damp[i][36])&0x0f];			//Дамп
;;;850    snmp_lakb_damp1[i][110]=' ';
;;;851    snmp_lakb_damp1[i][111]=ABCDEF[(lakb_damp[i][37])>>4];			//Дамп
;;;852    snmp_lakb_damp1[i][112]=ABCDEF[(lakb_damp[i][37])&0x0f];			//Дамп
;;;853    snmp_lakb_damp1[i][113]=' ';
;;;854    snmp_lakb_damp1[i][114]=ABCDEF[(lakb_damp[i][38])>>4];			//Дамп
;;;855    snmp_lakb_damp1[i][115]=ABCDEF[(lakb_damp[i][38])&0x0f];			//Дамп
;;;856    snmp_lakb_damp1[i][116]=' ';
;;;857    snmp_lakb_damp1[i][117]=ABCDEF[(lakb_damp[i][39])>>4];			//Дамп
;;;858    snmp_lakb_damp1[i][118]=ABCDEF[(lakb_damp[i][39])&0x0f];			//Дамп
;;;859    snmp_lakb_damp1[i][119]=0; 
;;;860     
;;;861    
;;;862    snmp_lakb_damp1[i][120]=ABCDEF[(lakb_damp[i][40])>>4];			//Дамп
;;;863    snmp_lakb_damp1[i][121]=ABCDEF[(lakb_damp[i][40])&0x0f];			//Дамп
;;;864    snmp_lakb_damp1[i][122]=' ';
;;;865    snmp_lakb_damp1[i][123]=ABCDEF[(lakb_damp[i][41])>>4];			//Дамп
;;;866    snmp_lakb_damp1[i][124]=ABCDEF[(lakb_damp[i][41])&0x0f];			//Дамп
;;;867    snmp_lakb_damp1[i][125]=' ';
;;;868    snmp_lakb_damp1[i][126]=ABCDEF[(lakb_damp[i][42])>>4];			//Дамп
;;;869    snmp_lakb_damp1[i][127]=ABCDEF[(lakb_damp[i][42])&0x0f];			//Дамп
;;;870    snmp_lakb_damp1[i][128]=' ';
;;;871    snmp_lakb_damp1[i][129]=ABCDEF[(lakb_damp[i][43])>>4];			//Дамп
;;;872    snmp_lakb_damp1[i][130]=ABCDEF[(lakb_damp[i][43])&0x0f];			//Дамп
;;;873    snmp_lakb_damp1[i][131]=' ';
;;;874    snmp_lakb_damp1[i][132]=ABCDEF[(lakb_damp[i][44])>>4];			//Дамп
;;;875    snmp_lakb_damp1[i][133]=ABCDEF[(lakb_damp[i][44])&0x0f];			//Дамп
;;;876    snmp_lakb_damp1[i][134]=' '; 
;;;877    snmp_lakb_damp1[i][135]=ABCDEF[(lakb_damp[i][45])>>4];			//Дамп
;;;878    snmp_lakb_damp1[i][136]=ABCDEF[(lakb_damp[i][45])&0x0f];			//Дамп
;;;879    snmp_lakb_damp1[i][137]=' ';
;;;880    snmp_lakb_damp1[i][138]=ABCDEF[(lakb_damp[i][46])>>4];			//Дамп
;;;881    snmp_lakb_damp1[i][139]=ABCDEF[(lakb_damp[i][46])&0x0f];			//Дамп
;;;882    snmp_lakb_damp1[i][140]=' ';
;;;883    snmp_lakb_damp1[i][141]=ABCDEF[(lakb_damp[i][47])>>4];			//Дамп
;;;884    snmp_lakb_damp1[i][142]=ABCDEF[(lakb_damp[i][47])&0x0f];			//Дамп
;;;885    snmp_lakb_damp1[i][143]=' ';
;;;886    snmp_lakb_damp1[i][144]=ABCDEF[(lakb_damp[i][48])>>4];			//Дамп
;;;887    snmp_lakb_damp1[i][145]=ABCDEF[(lakb_damp[i][48])&0x0f];			//Дамп
;;;888    snmp_lakb_damp1[i][146]=' ';
;;;889    snmp_lakb_damp1[i][147]=ABCDEF[(lakb_damp[i][49])>>4];			//Дамп
;;;890    snmp_lakb_damp1[i][148]=ABCDEF[(lakb_damp[i][49])&0x0f];			//Дамп
;;;891    snmp_lakb_damp1[i][149]=0;  */
;;;892    }
;;;893    
;;;894    #ifdef UKU_TELECORE2017
;;;895    snmp_warm_sign=0;
;;;896    if(TELECORE2017_KLIMAT_WARM_SIGNAL==0) snmp_warm_sign=2;
;;;897    else if(TELECORE2017_KLIMAT_WARM_SIGNAL==1) snmp_warm_sign=1;
;;;898    snmp_cool_sign=0;
;;;899    if(TELECORE2017_KLIMAT_VENT_SIGNAL==0) snmp_cool_sign=2;
;;;900    else if(TELECORE2017_KLIMAT_VENT_SIGNAL==1) snmp_cool_sign=1;
;;;901    snmp_warm_on_temper=(signed char)TELECORE2017_KLIMAT_WARM_ON; 
;;;902    snmp_warm_off_temper=(signed char)TELECORE2017_KLIMAT_WARM_OFF;
;;;903    snmp_warm_q=(signed char)TELECORE2017_KLIMAT_CAP;	
;;;904    snmp_cool_20_temper=(signed char)TELECORE2017_KLIMAT_VENT_ON20;
;;;905    snmp_cool_40_temper=(signed char)TELECORE2017_KLIMAT_VENT_ON40;
;;;906    snmp_cool_60_temper=(signed char)TELECORE2017_KLIMAT_VENT_ON60;
;;;907    snmp_cool_80_temper=(signed char)TELECORE2017_KLIMAT_VENT_ON80;
;;;908    snmp_cool_100_temper=(signed char)TELECORE2017_KLIMAT_VENT_ON100;
;;;909    snmp_cool_20_dtemper=(signed char)TELECORE2017_KLIMAT_DVENT_ON20;
;;;910    snmp_cool_40_dtemper=(signed char)TELECORE2017_KLIMAT_DVENT_ON40;
;;;911    snmp_cool_60_dtemper=(signed char)TELECORE2017_KLIMAT_DVENT_ON60;
;;;912    snmp_cool_80_dtemper=(signed char)TELECORE2017_KLIMAT_DVENT_ON80;
;;;913    snmp_cool_100_dtemper=(signed char)TELECORE2017_KLIMAT_DVENT_ON100;
;;;914    snmp_warm_stat=0;
;;;915    if(warm_stat_k==wsON) snmp_warm_stat=1;
;;;916    #endif
;;;917    }
;;;918    //-----------------------------------------------
                          ENDP

000012  0000              DCW      0x0000
                  |L9.20|
                          DCD      ||.data||

                          AREA ||area_number.10||, CODE, READONLY, ALIGN=2

                          EXPORTAS ||area_number.10||, ||.text||
                  snmp_klimat_settings_vent_on_write PROC
;;;259    //-----------------------------------------------
;;;260    void snmp_data (void) 
000000  2801              CMP      r0,#1
;;;261    {
000002  d105              BNE      |L10.16|
;;;262    char i;
;;;263    
;;;264    snmp_mains_power_voltage=net_U;
000004  4803              LDR      r0,|L10.20|
000006  f9b0106e          LDRSH    r1,[r0,#0x6e]  ; snmp_klimat_settings_vent_on
00000a  20f4              MOVS     r0,#0xf4
;;;265    #ifdef UKU_220_IPS_TERMOKOMPENSAT
;;;266    snmp_mains_power_frequency=net_F3;
00000c  f7ffbffe          B.W      lc640_write_int
                  |L10.16|
000010  4770              BX       lr
;;;267    #else
;;;268    snmp_mains_power_frequency=net_F;
;;;269    #endif
;;;270    snmp_mains_power_voltage_phaseA=net_Ua;
;;;271    snmp_mains_power_voltage_phaseB=net_Ub;
;;;272    snmp_mains_power_voltage_phaseC=net_Uc;
;;;273    
;;;274    /*
;;;275    snmp_mains_power_status=0; 
;;;276    #if(UKU_VERSION==900)
;;;277    snmp_mains_power_status=2;
;;;278    #endif
;;;279    if(St&0x01)snmp_mains_power_status|=0x01;
;;;280    if(St&0x01)snmp_mains_power_alarm=1;
;;;281    
;;;282    
;;;283    
;;;284    
;;;285    
;;;286    
;;;287    for(i=0;i<snmp_numofevents;i++)event2snmp(i);
;;;288    //snmp_bpsnumber[0]=1;
;;;289    //snmp_bpsnumber[1]=2;
;;;290    
;;;291    snmp_sernum=AUSW_MAIN_NUMBER;
;;;292    snmp_sernum_lsb=0x1122;
;;;293    snmp_sernum_msb=0x3344;
;;;294    snmp_device_code=AUSW_MAIN;
;;;295    
;;;296    //memcpy(snmp_location,"lkhg;la",);
;;;297    
;;;298    
;;;299    snmp_numofbat=1;
;;;300    
;;;301    */
;;;302    
;;;303    snmp_load_voltage=load_U;
;;;304    snmp_load_current=load_I;
;;;305    snmp_numofbat=NUMBAT;
;;;306    snmp_numofbps=NUMIST;
;;;307    snmp_numofinv=NUMINV;
;;;308    snmp_numofavt=NUMAVT;
;;;309    snmp_numofdt=NUMDT;
;;;310    snmp_numofsk=NUMSK;
;;;311    snmp_numofevents=lc640_read_int(CNT_EVENT_LOG);
;;;312    
;;;313    snmp_energy_vvod_phase_a=Uvv_eb2[0];
;;;314    snmp_energy_vvod_phase_b=Uvv_eb2[1];
;;;315    snmp_energy_vvod_phase_c=Uvv_eb2[2];
;;;316    snmp_energy_pes_phase_a=Upes_eb2[0];
;;;317    snmp_energy_pes_phase_b=Upes_eb2[1];
;;;318    snmp_energy_pes_phase_c=Upes_eb2[2];
;;;319    
;;;320    #ifdef UKU_KONTUR
;;;321    snmp_energy_vvod_phase_a=Uvv0;
;;;322    snmp_energy_pes_phase_a=Uvv[1];
;;;323    #endif
;;;324    
;;;325    snmp_energy_total_energy=power_summary;
;;;326    snmp_energy_current_energy=power_current;
;;;327    snmp_energy_input_voltage=net_U;
;;;328    
;;;329    snmp_bat_number[0]=1;
;;;330    snmp_bat_voltage[0]=bat[0]._Ub;
;;;331    snmp_bat_part_voltage[0]=bat[0]._Ubm;
;;;332    snmp_bat_current[0]=bat[0]._Ib;
;;;333    
;;;334    #ifdef UKU_220_IPS_TERMOKOMPENSAT
;;;335    if(((AUSW_MAIN==22063)||(AUSW_MAIN==22023))&&(bps[8]._device==dIBAT_METR))
;;;336    	{
;;;337    	snmp_bat_current[0]=Ib_ips_termokompensat;
;;;338    	}
;;;339    #endif
;;;340    
;;;341    snmp_bat_temperature[0]=bat[0]._Tb;
;;;342    if(BAT_C_REAL[0]==0x5555)snmp_bat_capacity[0]=BAT_C_NOM[0];
;;;343    else snmp_bat_capacity[0]=BAT_C_REAL[0];
;;;344    snmp_bat_charge[0]=bat[0]._zar;
;;;345    snmp_bat_status[0]=bat[0]._av;
;;;346    if(BAT_IS_ON[0]!=bisON)snmp_bat_status[0]=0xff;
;;;347    
;;;348    snmp_bat_number[1]=2;
;;;349    snmp_bat_voltage[1]=bat[1]._Ub;
;;;350    snmp_bat_part_voltage[1]=bat[1]._Ubm;
;;;351    snmp_bat_current[1]=bat[1]._Ib;
;;;352    snmp_bat_temperature[1]=bat[1]._Tb;
;;;353    if(BAT_C_REAL[1]==0x5555)snmp_bat_capacity[1]=BAT_C_NOM[1];
;;;354    else snmp_bat_capacity[1]=BAT_C_REAL[1];
;;;355    snmp_bat_charge[1]=bat[1]._zar;
;;;356    snmp_bat_status[1]=bat[1]._av;
;;;357    if(BAT_IS_ON[1]!=bisON)snmp_bat_status[1]=0xff;
;;;358    
;;;359    
;;;360    
;;;361    snmp_bps_number[0]=1;
;;;362    snmp_bps_voltage[0]=bps[0]._Uii;
;;;363    snmp_bps_current[0]=bps[0]._Ii;
;;;364    snmp_bps_temperature[0]=bps[0]._Ti;
;;;365    snmp_bps_stat[0]=bps[0]._av;
;;;366    if(!(NUMIST>0))snmp_bps_stat[0]=0xff;												//Байт состояния БПСа.
;;;367    
;;;368    /*if(St_[0]&(1<<2))snmp_bps_stat[0]=(1<<3); 							//авария по Umin
;;;369    else if(St_[0]&(1<<3))snmp_bps_stat[0]=(1<<2); 						//авария по Umax
;;;370    else if(bps[0]._av&(1<<0))snmp_bps_stat[0]=(1<<1); 						//авария по Tmax
;;;371    else if(St_[0]&(1<<5))snmp_bps_stat[0]=(1<<5); 						//заблокирован
;;;372    else if((!(St_[0]&0x3c))&&(!St&0x01)&&(!OFFBP1))snmp_bps_stat[0]=1; 		//Работает
;;;373    */
;;;374    
;;;375    snmp_bps_number[1]=2;
;;;376    snmp_bps_voltage[1]=bps[1]._Uii;
;;;377    snmp_bps_current[1]=bps[1]._Ii;
;;;378    snmp_bps_temperature[1]=bps[1]._Ti;
;;;379    snmp_bps_stat[1]=bps[1]._av;
;;;380    if(!(NUMIST>1))snmp_bps_stat[1]=0xff;												//Байт состояния БПСа.
;;;381    /*if(St_[1]&(1<<2))snmp_bps_stat[1]=(1<<3); 							//авария по Umin
;;;382    else if(St_[1]&(1<<3))snmp_bps_stat[1]=(1<<2); 						//авария по Umax
;;;383    else if(St_[1]&(1<<4))snmp_bps_stat[1]=(1<<1); 						//авария по Tmax
;;;384    else if(St_[1]&(1<<5))snmp_bps_stat[1]=(1<<5); 						//заблокирован
;;;385    else if((!(St_[1]&0x3c))&&(!St&0x01)&&(!OFFBP2))snmp_bps_stat[1]=1; 		//Работает
;;;386    */
;;;387    
;;;388    snmp_bps_number[2]=3;
;;;389    snmp_bps_voltage[2]=bps[2]._Uii;
;;;390    snmp_bps_current[2]=bps[2]._Ii;
;;;391    snmp_bps_temperature[2]=bps[2]._Ti;
;;;392    snmp_bps_stat[2]=bps[2]._av;
;;;393    if(!(NUMIST>2))snmp_bps_stat[2]=0xff;
;;;394    
;;;395    snmp_bps_number[3]=4;
;;;396    snmp_bps_voltage[3]=bps[3]._Uii;
;;;397    snmp_bps_current[3]=bps[3]._Ii;
;;;398    snmp_bps_temperature[3]=bps[3]._Ti;
;;;399    snmp_bps_stat[3]=bps[3]._av;
;;;400    if(!(NUMIST>3))snmp_bps_stat[3]=0xff;
;;;401    
;;;402    snmp_bps_number[4]=5;
;;;403    snmp_bps_voltage[4]=bps[4]._Uii;
;;;404    snmp_bps_current[4]=bps[4]._Ii;
;;;405    snmp_bps_temperature[4]=bps[4]._Ti;
;;;406    snmp_bps_stat[4]=bps[4]._av;
;;;407    if(!(NUMIST>4))snmp_bps_stat[4]=0xff;
;;;408    
;;;409    snmp_bps_number[5]=6;
;;;410    snmp_bps_voltage[5]=bps[5]._Uii;
;;;411    snmp_bps_current[5]=bps[5]._Ii;
;;;412    snmp_bps_temperature[5]=bps[5]._Ti;
;;;413    snmp_bps_stat[5]=bps[5]._av;
;;;414    if(!(NUMIST>5))snmp_bps_stat[5]=0xff;
;;;415    
;;;416    snmp_bps_number[6]=7;
;;;417    snmp_bps_voltage[6]=bps[6]._Uii;
;;;418    snmp_bps_current[6]=bps[6]._Ii;
;;;419    snmp_bps_temperature[6]=bps[6]._Ti;
;;;420    snmp_bps_stat[6]=bps[6]._av;
;;;421    if(!(NUMIST>6))snmp_bps_stat[6]=0xff;
;;;422    
;;;423    snmp_bps_number[7]=8;
;;;424    snmp_bps_voltage[7]=bps[7]._Uii;
;;;425    snmp_bps_current[7]=bps[7]._Ii;
;;;426    snmp_bps_temperature[7]=bps[7]._Ti;
;;;427    snmp_bps_stat[7]=bps[7]._av;
;;;428    if(!(NUMIST>7))snmp_bps_stat[7]=0xff;
;;;429    
;;;430    
;;;431    
;;;432    snmp_inv_number[0]=1;
;;;433    snmp_inv_voltage[0]=inv[0]._Uio;
;;;434    snmp_inv_current[0]=inv[0]._Ii;
;;;435    snmp_inv_temperature[0]=inv[0]._Ti;
;;;436    snmp_inv_stat[0]=inv[0]._flags_tm;
;;;437    
;;;438    snmp_inv_number[1]=2;
;;;439    snmp_inv_voltage[1]=inv[1]._Uio;
;;;440    snmp_inv_current[1]=inv[1]._Ii;
;;;441    snmp_inv_temperature[1]=inv[1]._Ti;
;;;442    snmp_inv_stat[1]=inv[1]._flags_tm;
;;;443    
;;;444    snmp_inv_number[2]=3;
;;;445    snmp_inv_voltage[2]=inv[2]._Uio;
;;;446    snmp_inv_current[2]=inv[2]._Ii;
;;;447    snmp_inv_temperature[2]=inv[2]._Ti;
;;;448    snmp_inv_stat[2]=inv[2]._flags_tm;
;;;449    
;;;450    
;;;451    
;;;452    
;;;453    					  
;;;454    snmp_sk_number[0]=1;
;;;455    memcpy(&snmp_sk_name[0][0],"Door",10);
;;;456    if(sk_stat[0]==ssON) snmp_sk_aktiv[0]=1;
;;;457    else snmp_sk_aktiv[0]=0;
;;;458    if(!SK_SIGN[0])snmp_sk_alarm_aktiv[0]=1;
;;;459    else snmp_sk_alarm_aktiv[0]=0;
;;;460    if(sk_av_stat[0]==sasON)	snmp_sk_alarm[0]=1;
;;;461    else                     snmp_sk_alarm[0]=0;
;;;462    
;;;463    
;;;464    snmp_sk_number[1]=2;
;;;465    memcpy(&snmp_sk_name[1][0],"Smoke",10);
;;;466    if(sk_stat[1]==ssON) snmp_sk_aktiv[1]=1;
;;;467    else snmp_sk_aktiv[1]=0;
;;;468    if(!SK_SIGN[1])snmp_sk_alarm_aktiv[1]=1;
;;;469    else snmp_sk_alarm_aktiv[1]=0;
;;;470    if(sk_av_stat[1]==sasON)	snmp_sk_alarm[1]=1;
;;;471    else                     snmp_sk_alarm[1]=0;
;;;472    
;;;473    snmp_sk_number[2]=3;
;;;474    memcpy(&snmp_sk_name[2][0],"Shock",10);
;;;475    if(sk_stat[2]==ssON) snmp_sk_aktiv[2]=1;
;;;476    else snmp_sk_aktiv[2]=0;
;;;477    if(!SK_SIGN[2])snmp_sk_alarm_aktiv[2]=1;
;;;478    else snmp_sk_alarm_aktiv[2]=0;
;;;479    if(sk_av_stat[2]==sasON)	snmp_sk_alarm[2]=1;
;;;480    else                     snmp_sk_alarm[2]=0;
;;;481    
;;;482    snmp_sk_number[3]=4;
;;;483    memcpy(&snmp_sk_name[3][0],"     ",10);
;;;484    if(sk_stat[3]==ssON) snmp_sk_aktiv[3]=1;
;;;485    else snmp_sk_aktiv[3]=0;
;;;486    if(!SK_SIGN[3])snmp_sk_alarm_aktiv[3]=1;
;;;487    else snmp_sk_alarm_aktiv[3]=0;
;;;488    if(sk_av_stat[3]==sasON)	snmp_sk_alarm[3]=1;
;;;489    else                     snmp_sk_alarm[3]=0;
;;;490    
;;;491    
;;;492    if(makb[0]._cnt>8) snmp_makb_connect_status[0]=1;
;;;493    else if(makb[0]._cnt<2) snmp_makb_connect_status[0]=0;
;;;494    if(makb[1]._cnt>8) snmp_makb_connect_status[1]=1;
;;;495    else if(makb[1]._cnt<2) snmp_makb_connect_status[1]=0;
;;;496    if(makb[2]._cnt>8) snmp_makb_connect_status[2]=1;
;;;497    else if(makb[2]._cnt<2) snmp_makb_connect_status[2]=0;
;;;498    if(makb[3]._cnt>8) snmp_makb_connect_status[3]=1;
;;;499    else if(makb[3]._cnt<2) snmp_makb_connect_status[3]=0;
;;;500    
;;;501    snmp_makb_voltage0[0]=makb[0]._Ub[0];
;;;502    snmp_makb_voltage1[0]=makb[0]._Ub[1];
;;;503    snmp_makb_voltage2[0]=makb[0]._Ub[2];
;;;504    snmp_makb_voltage3[0]=makb[0]._Ub[3];
;;;505    snmp_makb_voltage4[0]=makb[0]._Ub[4];
;;;506    snmp_makb_voltage0[1]=makb[1]._Ub[0];
;;;507    snmp_makb_voltage1[1]=makb[1]._Ub[1];
;;;508    snmp_makb_voltage2[1]=makb[1]._Ub[2];
;;;509    snmp_makb_voltage3[1]=makb[1]._Ub[3];
;;;510    snmp_makb_voltage4[1]=makb[1]._Ub[4];
;;;511    snmp_makb_voltage0[2]=makb[2]._Ub[0];
;;;512    snmp_makb_voltage1[2]=makb[2]._Ub[1];
;;;513    snmp_makb_voltage2[2]=makb[2]._Ub[2];
;;;514    snmp_makb_voltage3[2]=makb[2]._Ub[3];
;;;515    snmp_makb_voltage4[2]=makb[2]._Ub[4];
;;;516    snmp_makb_voltage0[3]=makb[3]._Ub[0];
;;;517    snmp_makb_voltage1[3]=makb[3]._Ub[1];
;;;518    snmp_makb_voltage2[3]=makb[3]._Ub[2];
;;;519    snmp_makb_voltage3[3]=makb[3]._Ub[3];
;;;520    snmp_makb_voltage4[3]=makb[3]._Ub[4];
;;;521    
;;;522    snmp_makb_temper0[0]=makb[0]._T[0];
;;;523    snmp_makb_temper1[0]=makb[0]._T[1];
;;;524    snmp_makb_temper2[0]=makb[0]._T[2];
;;;525    snmp_makb_temper3[0]=makb[0]._T[3];
;;;526    snmp_makb_temper4[0]=makb[0]._T[4];
;;;527    snmp_makb_temper0[1]=makb[1]._T[0];
;;;528    snmp_makb_temper1[1]=makb[1]._T[1];
;;;529    snmp_makb_temper2[1]=makb[1]._T[2];
;;;530    snmp_makb_temper3[1]=makb[1]._T[3];
;;;531    snmp_makb_temper4[1]=makb[1]._T[4];
;;;532    snmp_makb_temper0[2]=makb[2]._T[0];
;;;533    snmp_makb_temper1[2]=makb[2]._T[1];
;;;534    snmp_makb_temper2[2]=makb[2]._T[2];
;;;535    snmp_makb_temper3[2]=makb[2]._T[3];
;;;536    snmp_makb_temper4[2]=makb[2]._T[4];
;;;537    snmp_makb_temper0[3]=makb[3]._T[0];
;;;538    snmp_makb_temper1[3]=makb[3]._T[1];
;;;539    snmp_makb_temper2[3]=makb[3]._T[2];
;;;540    snmp_makb_temper3[3]=makb[3]._T[3];
;;;541    snmp_makb_temper4[3]=makb[3]._T[4];
;;;542    
;;;543    snmp_makb_temper0_stat[0]=makb[0]._T_nd[0];
;;;544    snmp_makb_temper1_stat[0]=makb[0]._T_nd[1];
;;;545    snmp_makb_temper2_stat[0]=makb[0]._T_nd[2];
;;;546    snmp_makb_temper3_stat[0]=makb[0]._T_nd[3];
;;;547    snmp_makb_temper4_stat[0]=makb[0]._T_nd[4];
;;;548    snmp_makb_temper0_stat[1]=makb[1]._T_nd[0];
;;;549    snmp_makb_temper1_stat[1]=makb[1]._T_nd[1];
;;;550    snmp_makb_temper2_stat[1]=makb[1]._T_nd[2];
;;;551    snmp_makb_temper3_stat[1]=makb[1]._T_nd[3];
;;;552    snmp_makb_temper4_stat[1]=makb[1]._T_nd[4];
;;;553    snmp_makb_temper0_stat[2]=makb[2]._T_nd[0];
;;;554    snmp_makb_temper1_stat[2]=makb[2]._T_nd[1];
;;;555    snmp_makb_temper2_stat[2]=makb[2]._T_nd[2];
;;;556    snmp_makb_temper3_stat[2]=makb[2]._T_nd[3];
;;;557    snmp_makb_temper4_stat[2]=makb[2]._T_nd[4];
;;;558    snmp_makb_temper0_stat[3]=makb[3]._T_nd[0];
;;;559    snmp_makb_temper1_stat[3]=makb[3]._T_nd[1];
;;;560    snmp_makb_temper2_stat[3]=makb[3]._T_nd[2];
;;;561    snmp_makb_temper3_stat[3]=makb[3]._T_nd[3];
;;;562    snmp_makb_temper4_stat[3]=makb[3]._T_nd[4];
;;;563    
;;;564    
;;;565    snmp_klimat_box_temper=t_box;
;;;566    snmp_klimat_settings_box_alarm=TBOXMAX;
;;;567    snmp_klimat_settings_vent_on=TBOXVENTON;
;;;568    snmp_klimat_settings_vent_off=TBOXVENTOFF;
;;;569    snmp_klimat_settings_warm_on=TBOXWARMON;
;;;570    snmp_klimat_settings_warm_off=TBOXWARMOFF;
;;;571    snmp_klimat_settings_load_on=TLOADENABLE;
;;;572    snmp_klimat_settings_load_off=TLOADDISABLE;
;;;573    snmp_klimat_settings_batt_on=TBATENABLE;
;;;574    snmp_klimat_settings_batt_off=TBATDISABLE;
;;;575    
;;;576    snmp_dt_ext=t_ext[0];
;;;577    snmp_dt_msan=t_ext[1];
;;;578    snmp_dt_epu=t_ext[2];
;;;579    
;;;580    /*
;;;581    snmp_bat_voltage=Ubat;
;;;582    snmp_bat_current=Ibat;
;;;583    snmp_bat_temperature=t_b;
;;;584    if(BAT_C_REAL==0x5555)
;;;585    	{
;;;586    	snmp_bat_capacity=BAT_C_NOM*10;												    11
;;;587    	}
;;;588    else
;;;589    	{
;;;590    	snmp_bat_capacity=BAT_C_REAL;
;;;591    	}
;;;592    snmp_bat_charge=zar_percent;
;;;593    snmp_bat_status=0;
;;;594    if(St&0x02)snmp_bat_status|=0x01;
;;;595    if(Ibat>0)snmp_bat_status|=0x02;
;;;596    
;;;597    
;;;598    if(spc_stat==spc_OFF) snmp_spc_stat=0;
;;;599    else if(spc_stat==spc_KE) snmp_spc_stat=1;
;;;600    else if(spc_stat==spc_VZ) snmp_spc_stat=10;
;;;601    
;;;602    
;;;603    snmp_main_bps=MAIN_IST+1;
;;;604    */
;;;605    snmp_zv_en=ZV_ON;
;;;606    snmp_alarm_auto_disable=AV_OFF_AVT;
;;;607    snmp_bat_test_time=TBAT;
;;;608    snmp_u_max=UMAX;
;;;609    //snmp_u_min=UB20-DU;
;;;610    //snmp_u_0_grad=UB0;
;;;611    //snmp_u_20_grad=UB20;
;;;612    snmp_u_sign=USIGN;
;;;613    snmp_u_min_power=UMN;
;;;614    snmp_u_withouth_bat=U0B;
;;;615    snmp_control_current=IKB;
;;;616    snmp_max_charge_current=IZMAX;
;;;617    snmp_max_current=IMAX;
;;;618    snmp_min_current=IMIN;
;;;619    //snmp_max_current_koef=KIMAX;
;;;620    //snmp_uvz=UVZ;
;;;621    snmp_powerup_psu_timeout=TZAS;
;;;622    snmp_max_temperature=TMAX;
;;;623    snmp_tsign_bat=TBATSIGN; 
;;;624    snmp_tmax_bat=TBATMAX;
;;;625    snmp_tsign_bps=TSIGN;
;;;626    snmp_tmax_bps=TMAX;
;;;627    snmp_bat_part_alarm=UBM_AV; 
;;;628    snmp_power_cnt_adress=POWER_CNT_ADRESS;
;;;629    
;;;630    for(i=0;i<12;i++)
;;;631    	{
;;;632    	snmp_avt_number[i]=i+1;
;;;633    	if(avt_stat[i]==avtOFF)snmp_avt_stat[i]=0;
;;;634    	else snmp_avt_stat[i]=1;
;;;635    	}
;;;636    
;;;637    snmp_dt_number[0]=1;
;;;638    snmp_dt_number[1]=2;
;;;639    snmp_dt_number[2]=3;
;;;640    //snmp_dt_number[3]=4;
;;;641    snmp_dt_temper[0]=t_ext[0];
;;;642    snmp_dt_temper[1]=t_ext[1];
;;;643    snmp_dt_temper[2]=t_ext[2];
;;;644    //snmp_dt_temper[3]=t_ext[3];
;;;645    snmp_dt_error[0]=ND_EXT[0];
;;;646    if(NUMDT<1)snmp_dt_error[0]=0xff;
;;;647    snmp_dt_error[1]=ND_EXT[1];
;;;648    if(NUMDT<2)snmp_dt_error[0]=0xff;
;;;649    snmp_dt_error[2]=ND_EXT[2];
;;;650    if(NUMDT<3)snmp_dt_error[0]=0xff;
;;;651    //snmp_dt_error[3]=ND_EXT[3];
;;;652    if(NUMDT<4)snmp_dt_error[0]=0xff;
;;;653    
;;;654    /*
;;;655    //Литиевые батареи
;;;656    snmp_lakb_number[0]=1;								//Номер ЛАКБ
;;;657    snmp_lakb_number[1]=2;								//Номер ЛАКБ
;;;658    snmp_lakb_voltage[0]=lakb[0]._tot_bat_volt;				//Напряжение ЛАКБ
;;;659    snmp_lakb_voltage[1]=lakb[1]._tot_bat_volt;				//Напряжение ЛАКБ
;;;660    snmp_lakb_max_cell_voltage[0]=lakb[0]._max_cell_volt;		//Максимальное напряжение ячейки ЛАКБ
;;;661    snmp_lakb_max_cell_voltage[1]=lakb[1]._max_cell_volt;		//Максимальное напряжение ячейки ЛАКБ
;;;662    snmp_lakb_min_cell_voltage[0]=lakb[0]._min_cell_volt;		//Минимальное напряжение ячейки ЛАКБ
;;;663    snmp_lakb_min_cell_voltage[1]=lakb[1]._min_cell_volt;		//Минимальное напряжение ячейки ЛАКБ
;;;664    snmp_lakb_max_cell_temperature[0]=lakb[0]._max_cell_temp;	//Максимальная температура ячейки ЛАКБ
;;;665    snmp_lakb_max_cell_temperature[1]=lakb[1]._max_cell_temp;	//Максимальная температура ячейки ЛАКБ
;;;666    snmp_lakb_min_cell_temperature[0]=lakb[0]._min_cell_temp;	//Минимальная температура ячейки ЛАКБ
;;;667    snmp_lakb_min_cell_temperature[1]=lakb[1]._min_cell_temp;	//Минимальная температура ячейки ЛАКБ
;;;668    snmp_lakb_ch_curr[0]=lakb[0]._ch_curr;					//Ток заряда ЛАКБ
;;;669    snmp_lakb_ch_curr[1]=lakb[1]._ch_curr;					//Ток заряда ЛАКБ
;;;670    snmp_lakb_dsch_curr[0]=lakb[0]._dsch_curr;				//Ток разряда ЛАКБ
;;;671    snmp_lakb_dsch_curr[1]=lakb[1]._dsch_curr;				//Ток разряда ЛАКБ
;;;672    snmp_lakb_rat_cap[0]=lakb[0]._rat_cap;					//Номинальная емкость ЛАКБ
;;;673    snmp_lakb_rat_cap[1]=lakb[1]._rat_cap;					//Номинальная емкость ЛАКБ
;;;674    snmp_lakb_soh[0]=lakb[0]._s_o_h;						//Остаточная емкость ЛАКБ
;;;675    snmp_lakb_soh[1]=lakb[1]._s_o_h;						//Остаточная емкость ЛАКБ
;;;676    snmp_lakb_soc[0]=lakb[0]._s_o_c;						//Заряд ЛАКБ
;;;677    snmp_lakb_soc[1]=lakb[1]._s_o_c;						//Заряд ЛАКБ
;;;678    snmp_lakb_cclv[0]=lakb[0]._c_c_l_v;  					//Максимальный ток заряда ЛАКБ
;;;679    snmp_lakb_cclv[1]=lakb[1]._c_c_l_v;  					//Максимальный ток заряда ЛАКБ
;;;680    snmp_lakb_rbt[0]=lakb[0]._r_b_t;						//Оцениваемое время работы ЛАКБ
;;;681    snmp_lakb_rbt[1]=lakb[1]._r_b_t;						//Оцениваемое время работы ЛАКБ
;;;682    snmp_lakb_flags1[0]=lakb[0]._flags1;					//Первый флаг состояния ЛАКБ
;;;683    snmp_lakb_flags1[1]=lakb[1]._flags1;					//Первый флаг состояния ЛАКБ
;;;684    snmp_lakb_flags2[0]=lakb[0]._flags2;					//Второй флаг состояния ЛАКБ
;;;685    snmp_lakb_flags2[1]=lakb[1]._flags2;					//Второй флаг состояния ЛАКБ */
;;;686    
;;;687    //Литиевые батареи
;;;688    snmp_lakb_number[0]=1;								//Номер ЛАКБ
;;;689    snmp_lakb_number[1]=2;								//Номер ЛАКБ
;;;690    snmp_lakb_number[2]=3;								//Номер ЛАКБ
;;;691    snmp_lakb_number[3]=4;								//Номер ЛАКБ
;;;692    snmp_lakb_number[4]=5;								//Номер ЛАКБ
;;;693    snmp_lakb_number[5]=6;								//Номер ЛАКБ
;;;694    snmp_lakb_number[6]=7;								//Номер ЛАКБ
;;;695    
;;;696    for (i=0;i<3;i++)
;;;697    	{
;;;698    	snmp_lakb_voltage[i]=lakb[i]._tot_bat_volt;				//Напряжение ЛАКБ
;;;699    	snmp_lakb_max_cell_voltage[i]=lakb[i]._max_cell_volt;		//Максимальное напряжение ячейки ЛАКБ
;;;700    	snmp_lakb_min_cell_voltage[i]=lakb[i]._min_cell_volt;		//Минимальное напряжение ячейки ЛАКБ
;;;701    	snmp_lakb_max_cell_temperature[i]=lakb[i]._max_cell_temp;	//Максимальная температура ячейки ЛАКБ
;;;702    	//snmp_lakb_max_cell_temperature[1]=lakb[1]._max_cell_temp;	//Максимальная температура ячейки ЛАКБ
;;;703    	snmp_lakb_min_cell_temperature[i]=lakb[i]._min_cell_temp;	//Минимальная температура ячейки ЛАКБ
;;;704    	//snmp_lakb_min_cell_temperature[1]=lakb[1]._min_cell_temp;	//Минимальная температура ячейки ЛАКБ
;;;705    	snmp_lakb_ch_curr[i]=lakb[i]._ch_curr;					//Ток заряда ЛАКБ
;;;706    	//snmp_lakb_ch_curr[1]=lakb[1]._ch_curr;					//Ток заряда ЛАКБ
;;;707    	snmp_lakb_dsch_curr[i]=lakb[i]._dsch_curr;				//Ток разряда ЛАКБ
;;;708    	//snmp_lakb_dsch_curr[1]=lakb[1]._dsch_curr;				//Ток разряда ЛАКБ
;;;709    	snmp_lakb_rat_cap[i]=lakb[i]._rat_cap;					//Номинальная емкость ЛАКБ
;;;710    	//snmp_lakb_rat_cap[1]=lakb[1]._rat_cap;					//Номинальная емкость ЛАКБ
;;;711    	snmp_lakb_soh[i]=lakb[i]._s_o_h;						//Остаточная емкость ЛАКБ
;;;712    	//snmp_lakb_soh[1]=lakb[1]._s_o_h;						//Остаточная емкость ЛАКБ
;;;713    	snmp_lakb_soc[i]=lakb[i]._s_o_c;						//Заряд ЛАКБ
;;;714    	//snmp_lakb_soc[1]=lakb[1]._s_o_c;						//Заряд ЛАКБ
;;;715    	snmp_lakb_cclv[i]=lakb[i]._c_c_l_v;  					//Максимальный ток заряда ЛАКБ
;;;716    	//snmp_lakb_cclv[1]=lakb[1]._c_c_l_v;  					//Максимальный ток заряда ЛАКБ
;;;717    	snmp_lakb_rbt[i]=lakb[i]._r_b_t;						//Оцениваемое время работы ЛАКБ
;;;718    	//snmp_lakb_rbt[1]=lakb[1]._r_b_t;						//Оцениваемое время работы ЛАКБ
;;;719    	snmp_lakb_flags1[i]=lakb[i]._flags1;					//Первый флаг состояния ЛАКБ
;;;720    	//snmp_lakb_flags1[1]=lakb[1]._flags1;					//Первый флаг состояния ЛАКБ
;;;721    	snmp_lakb_flags2[i]=lakb[i]._flags2;					//Второй флаг состояния ЛАКБ
;;;722    	//snmp_lakb_flags2[1]=lakb[1]._flags2;					//Второй флаг состояния ЛАКБ
;;;723    
;;;724    	snmp_lakb_cell_temperature_1[i]= lakb[i]._cell_temp_1;
;;;725    	snmp_lakb_cell_temperature_2[i]= lakb[i]._cell_temp_2;
;;;726    	snmp_lakb_cell_temperature_3[i]= lakb[i]._cell_temp_3;
;;;727    	snmp_lakb_cell_temperature_4[i]= lakb[i]._cell_temp_4;
;;;728    	snmp_lakb_cell_temperature_ambient[i]=lakb[i]._cell_temp_ambient;
;;;729    	snmp_lakb_cell_temperature_power[i]=lakb[i]._cell_temp_power;
;;;730    	}
;;;731    
;;;732    for (i=0;i<7;i++)
;;;733    {
;;;734    /*
;;;735    snmp_lakb_damp1[i][0]=ABCDEF[(lakb_damp[i][0])>>4];			//Дамп
;;;736    snmp_lakb_damp1[i][1]=ABCDEF[(lakb_damp[i][0])&0x0f];			//Дамп
;;;737    snmp_lakb_damp1[i][2]=' ';
;;;738    snmp_lakb_damp1[i][3]=ABCDEF[(lakb_damp[i][1])>>4];			//Дамп
;;;739    snmp_lakb_damp1[i][4]=ABCDEF[(lakb_damp[i][1])&0x0f];			//Дамп
;;;740    snmp_lakb_damp1[i][5]=' ';
;;;741    snmp_lakb_damp1[i][6]=ABCDEF[(lakb_damp[i][2])>>4];			//Дамп
;;;742    snmp_lakb_damp1[i][7]=ABCDEF[(lakb_damp[i][2])&0x0f];			//Дамп
;;;743    snmp_lakb_damp1[i][8]=' ';
;;;744    snmp_lakb_damp1[i][9]=ABCDEF[(lakb_damp[i][3])>>4];			//Дамп
;;;745    snmp_lakb_damp1[i][10]=ABCDEF[(lakb_damp[i][3])&0x0f];			//Дамп
;;;746    snmp_lakb_damp1[i][11]=' ';
;;;747    snmp_lakb_damp1[i][12]=ABCDEF[(lakb_damp[i][4])>>4];			//Дамп
;;;748    snmp_lakb_damp1[i][13]=ABCDEF[(lakb_damp[i][4])&0x0f];			//Дамп
;;;749    snmp_lakb_damp1[i][14]=' '; 
;;;750    snmp_lakb_damp1[i][15]=ABCDEF[(lakb_damp[i][5])>>4];			//Дамп
;;;751    snmp_lakb_damp1[i][16]=ABCDEF[(lakb_damp[i][5])&0x0f];			//Дамп
;;;752    snmp_lakb_damp1[i][17]=' ';
;;;753    snmp_lakb_damp1[i][18]=ABCDEF[(lakb_damp[i][6])>>4];			//Дамп
;;;754    snmp_lakb_damp1[i][19]=ABCDEF[(lakb_damp[i][6])&0x0f];			//Дамп
;;;755    snmp_lakb_damp1[i][20]=' ';
;;;756    snmp_lakb_damp1[i][21]=ABCDEF[(lakb_damp[i][7])>>4];			//Дамп
;;;757    snmp_lakb_damp1[i][22]=ABCDEF[(lakb_damp[i][7])&0x0f];			//Дамп
;;;758    snmp_lakb_damp1[i][23]=' ';
;;;759    snmp_lakb_damp1[i][24]=ABCDEF[(lakb_damp[i][8])>>4];			//Дамп
;;;760    snmp_lakb_damp1[i][25]=ABCDEF[(lakb_damp[i][8])&0x0f];			//Дамп
;;;761    snmp_lakb_damp1[i][26]=' ';
;;;762    snmp_lakb_damp1[i][27]=ABCDEF[(lakb_damp[i][9])>>4];			//Дамп
;;;763    snmp_lakb_damp1[i][28]=ABCDEF[(lakb_damp[i][9])&0x0f];			//Дамп
;;;764    snmp_lakb_damp1[i][29]=0; 
;;;765    
;;;766    snmp_lakb_damp1[i][30]=ABCDEF[(lakb_damp[i][10])>>4];			//Дамп
;;;767    snmp_lakb_damp1[i][31]=ABCDEF[(lakb_damp[i][10])&0x0f];			//Дамп
;;;768    snmp_lakb_damp1[i][32]=' ';
;;;769    snmp_lakb_damp1[i][33]=ABCDEF[(lakb_damp[i][11])>>4];			//Дамп
;;;770    snmp_lakb_damp1[i][34]=ABCDEF[(lakb_damp[i][11])&0x0f];			//Дамп
;;;771    snmp_lakb_damp1[i][35]=' ';
;;;772    snmp_lakb_damp1[i][36]=ABCDEF[(lakb_damp[i][12])>>4];			//Дамп
;;;773    snmp_lakb_damp1[i][37]=ABCDEF[(lakb_damp[i][12])&0x0f];			//Дамп
;;;774    snmp_lakb_damp1[i][38]=' ';
;;;775    snmp_lakb_damp1[i][39]=ABCDEF[(lakb_damp[i][13])>>4];			//Дамп
;;;776    snmp_lakb_damp1[i][40]=ABCDEF[(lakb_damp[i][13])&0x0f];			//Дамп
;;;777    snmp_lakb_damp1[i][41]=' ';
;;;778    snmp_lakb_damp1[i][42]=ABCDEF[(lakb_damp[i][14])>>4];			//Дамп
;;;779    snmp_lakb_damp1[i][43]=ABCDEF[(lakb_damp[i][14])&0x0f];			//Дамп
;;;780    snmp_lakb_damp1[i][44]=' '; 
;;;781    snmp_lakb_damp1[i][45]=ABCDEF[(lakb_damp[i][15])>>4];			//Дамп
;;;782    snmp_lakb_damp1[i][46]=ABCDEF[(lakb_damp[i][15])&0x0f];			//Дамп
;;;783    snmp_lakb_damp1[i][47]=' ';
;;;784    snmp_lakb_damp1[i][48]=ABCDEF[(lakb_damp[i][16])>>4];			//Дамп
;;;785    snmp_lakb_damp1[i][49]=ABCDEF[(lakb_damp[i][16])&0x0f];			//Дамп
;;;786    snmp_lakb_damp1[i][50]=' ';
;;;787    snmp_lakb_damp1[i][51]=ABCDEF[(lakb_damp[i][17])>>4];			//Дамп
;;;788    snmp_lakb_damp1[i][52]=ABCDEF[(lakb_damp[i][17])&0x0f];			//Дамп
;;;789    snmp_lakb_damp1[i][53]=' ';
;;;790    snmp_lakb_damp1[i][54]=ABCDEF[(lakb_damp[i][18])>>4];			//Дамп
;;;791    snmp_lakb_damp1[i][55]=ABCDEF[(lakb_damp[i][18])&0x0f];			//Дамп
;;;792    snmp_lakb_damp1[i][56]=' ';
;;;793    snmp_lakb_damp1[i][57]=ABCDEF[(lakb_damp[i][19])>>4];			//Дамп
;;;794    snmp_lakb_damp1[i][58]=ABCDEF[(lakb_damp[i][19])&0x0f];			//Дамп
;;;795    snmp_lakb_damp1[i][59]=0; 
;;;796    
;;;797    
;;;798    snmp_lakb_damp1[i][60]=ABCDEF[(lakb_damp[i][20])>>4];			//Дамп
;;;799    snmp_lakb_damp1[i][61]=ABCDEF[(lakb_damp[i][20])&0x0f];			//Дамп
;;;800    snmp_lakb_damp1[i][62]=' ';
;;;801    snmp_lakb_damp1[i][63]=ABCDEF[(lakb_damp[i][21])>>4];			//Дамп
;;;802    snmp_lakb_damp1[i][64]=ABCDEF[(lakb_damp[i][21])&0x0f];			//Дамп
;;;803    snmp_lakb_damp1[i][65]=' ';
;;;804    snmp_lakb_damp1[i][66]=ABCDEF[(lakb_damp[i][22])>>4];			//Дамп
;;;805    snmp_lakb_damp1[i][67]=ABCDEF[(lakb_damp[i][22])&0x0f];			//Дамп
;;;806    snmp_lakb_damp1[i][68]=' ';
;;;807    snmp_lakb_damp1[i][69]=ABCDEF[(lakb_damp[i][23])>>4];			//Дамп
;;;808    snmp_lakb_damp1[i][70]=ABCDEF[(lakb_damp[i][23])&0x0f];			//Дамп
;;;809    snmp_lakb_damp1[i][71]=' ';
;;;810    snmp_lakb_damp1[i][72]=ABCDEF[(lakb_damp[i][24])>>4];			//Дамп
;;;811    snmp_lakb_damp1[i][73]=ABCDEF[(lakb_damp[i][24])&0x0f];			//Дамп
;;;812    snmp_lakb_damp1[i][74]=' '; 
;;;813    snmp_lakb_damp1[i][75]=ABCDEF[(lakb_damp[i][25])>>4];			//Дамп
;;;814    snmp_lakb_damp1[i][76]=ABCDEF[(lakb_damp[i][25])&0x0f];			//Дамп
;;;815    snmp_lakb_damp1[i][77]=' ';
;;;816    snmp_lakb_damp1[i][78]=ABCDEF[(lakb_damp[i][26])>>4];			//Дамп
;;;817    snmp_lakb_damp1[i][79]=ABCDEF[(lakb_damp[i][26])&0x0f];			//Дамп
;;;818    snmp_lakb_damp1[i][80]=' ';
;;;819    snmp_lakb_damp1[i][81]=ABCDEF[(lakb_damp[i][27])>>4];			//Дамп
;;;820    snmp_lakb_damp1[i][82]=ABCDEF[(lakb_damp[i][27])&0x0f];			//Дамп
;;;821    snmp_lakb_damp1[i][83]=' ';
;;;822    snmp_lakb_damp1[i][84]=ABCDEF[(lakb_damp[i][28])>>4];			//Дамп
;;;823    snmp_lakb_damp1[i][85]=ABCDEF[(lakb_damp[i][28])&0x0f];			//Дамп
;;;824    snmp_lakb_damp1[i][86]=' ';
;;;825    snmp_lakb_damp1[i][87]=ABCDEF[(lakb_damp[i][29])>>4];			//Дамп
;;;826    snmp_lakb_damp1[i][88]=ABCDEF[(lakb_damp[i][29])&0x0f];			//Дамп
;;;827    snmp_lakb_damp1[i][89]=0;
;;;828    
;;;829    
;;;830    snmp_lakb_damp1[i][90]=ABCDEF[(lakb_damp[i][30])>>4];			//Дамп
;;;831    snmp_lakb_damp1[i][91]=ABCDEF[(lakb_damp[i][30])&0x0f];			//Дамп
;;;832    snmp_lakb_damp1[i][92]=' ';
;;;833    snmp_lakb_damp1[i][93]=ABCDEF[(lakb_damp[i][31])>>4];			//Дамп
;;;834    snmp_lakb_damp1[i][94]=ABCDEF[(lakb_damp[i][31])&0x0f];			//Дамп
;;;835    snmp_lakb_damp1[i][95]=' ';
;;;836    snmp_lakb_damp1[i][96]=ABCDEF[(lakb_damp[i][32])>>4];			//Дамп
;;;837    snmp_lakb_damp1[i][97]=ABCDEF[(lakb_damp[i][32])&0x0f];			//Дамп
;;;838    snmp_lakb_damp1[i][98]=' ';
;;;839    snmp_lakb_damp1[i][99]=ABCDEF[(lakb_damp[i][33])>>4];			//Дамп
;;;840    snmp_lakb_damp1[i][100]=ABCDEF[(lakb_damp[i][33])&0x0f];			//Дамп
;;;841    snmp_lakb_damp1[i][101]=' ';
;;;842    snmp_lakb_damp1[i][102]=ABCDEF[(lakb_damp[i][34])>>4];			//Дамп
;;;843    snmp_lakb_damp1[i][103]=ABCDEF[(lakb_damp[i][34])&0x0f];			//Дамп
;;;844    snmp_lakb_damp1[i][104]=' '; 
;;;845    snmp_lakb_damp1[i][105]=ABCDEF[(lakb_damp[i][35])>>4];			//Дамп
;;;846    snmp_lakb_damp1[i][106]=ABCDEF[(lakb_damp[i][35])&0x0f];			//Дамп
;;;847    snmp_lakb_damp1[i][107]=' ';
;;;848    snmp_lakb_damp1[i][108]=ABCDEF[(lakb_damp[i][36])>>4];			//Дамп
;;;849    snmp_lakb_damp1[i][109]=ABCDEF[(lakb_damp[i][36])&0x0f];			//Дамп
;;;850    snmp_lakb_damp1[i][110]=' ';
;;;851    snmp_lakb_damp1[i][111]=ABCDEF[(lakb_damp[i][37])>>4];			//Дамп
;;;852    snmp_lakb_damp1[i][112]=ABCDEF[(lakb_damp[i][37])&0x0f];			//Дамп
;;;853    snmp_lakb_damp1[i][113]=' ';
;;;854    snmp_lakb_damp1[i][114]=ABCDEF[(lakb_damp[i][38])>>4];			//Дамп
;;;855    snmp_lakb_damp1[i][115]=ABCDEF[(lakb_damp[i][38])&0x0f];			//Дамп
;;;856    snmp_lakb_damp1[i][116]=' ';
;;;857    snmp_lakb_damp1[i][117]=ABCDEF[(lakb_damp[i][39])>>4];			//Дамп
;;;858    snmp_lakb_damp1[i][118]=ABCDEF[(lakb_damp[i][39])&0x0f];			//Дамп
;;;859    snmp_lakb_damp1[i][119]=0; 
;;;860     
;;;861    
;;;862    snmp_lakb_damp1[i][120]=ABCDEF[(lakb_damp[i][40])>>4];			//Дамп
;;;863    snmp_lakb_damp1[i][121]=ABCDEF[(lakb_damp[i][40])&0x0f];			//Дамп
;;;864    snmp_lakb_damp1[i][122]=' ';
;;;865    snmp_lakb_damp1[i][123]=ABCDEF[(lakb_damp[i][41])>>4];			//Дамп
;;;866    snmp_lakb_damp1[i][124]=ABCDEF[(lakb_damp[i][41])&0x0f];			//Дамп
;;;867    snmp_lakb_damp1[i][125]=' ';
;;;868    snmp_lakb_damp1[i][126]=ABCDEF[(lakb_damp[i][42])>>4];			//Дамп
;;;869    snmp_lakb_damp1[i][127]=ABCDEF[(lakb_damp[i][42])&0x0f];			//Дамп
;;;870    snmp_lakb_damp1[i][128]=' ';
;;;871    snmp_lakb_damp1[i][129]=ABCDEF[(lakb_damp[i][43])>>4];			//Дамп
;;;872    snmp_lakb_damp1[i][130]=ABCDEF[(lakb_damp[i][43])&0x0f];			//Дамп
;;;873    snmp_lakb_damp1[i][131]=' ';
;;;874    snmp_lakb_damp1[i][132]=ABCDEF[(lakb_damp[i][44])>>4];			//Дамп
;;;875    snmp_lakb_damp1[i][133]=ABCDEF[(lakb_damp[i][44])&0x0f];			//Дамп
;;;876    snmp_lakb_damp1[i][134]=' '; 
;;;877    snmp_lakb_damp1[i][135]=ABCDEF[(lakb_damp[i][45])>>4];			//Дамп
;;;878    snmp_lakb_damp1[i][136]=ABCDEF[(lakb_damp[i][45])&0x0f];			//Дамп
;;;879    snmp_lakb_damp1[i][137]=' ';
;;;880    snmp_lakb_damp1[i][138]=ABCDEF[(lakb_damp[i][46])>>4];			//Дамп
;;;881    snmp_lakb_damp1[i][139]=ABCDEF[(lakb_damp[i][46])&0x0f];			//Дамп
;;;882    snmp_lakb_damp1[i][140]=' ';
;;;883    snmp_lakb_damp1[i][141]=ABCDEF[(lakb_damp[i][47])>>4];			//Дамп
;;;884    snmp_lakb_damp1[i][142]=ABCDEF[(lakb_damp[i][47])&0x0f];			//Дамп
;;;885    snmp_lakb_damp1[i][143]=' ';
;;;886    snmp_lakb_damp1[i][144]=ABCDEF[(lakb_damp[i][48])>>4];			//Дамп
;;;887    snmp_lakb_damp1[i][145]=ABCDEF[(lakb_damp[i][48])&0x0f];			//Дамп
;;;888    snmp_lakb_damp1[i][146]=' ';
;;;889    snmp_lakb_damp1[i][147]=ABCDEF[(lakb_damp[i][49])>>4];			//Дамп
;;;890    snmp_lakb_damp1[i][148]=ABCDEF[(lakb_damp[i][49])&0x0f];			//Дамп
;;;891    snmp_lakb_damp1[i][149]=0;  */
;;;892    }
;;;893    
;;;894    #ifdef UKU_TELECORE2017
;;;895    snmp_warm_sign=0;
;;;896    if(TELECORE2017_KLIMAT_WARM_SIGNAL==0) snmp_warm_sign=2;
;;;897    else if(TELECORE2017_KLIMAT_WARM_SIGNAL==1) snmp_warm_sign=1;
;;;898    snmp_cool_sign=0;
;;;899    if(TELECORE2017_KLIMAT_VENT_SIGNAL==0) snmp_cool_sign=2;
;;;900    else if(TELECORE2017_KLIMAT_VENT_SIGNAL==1) snmp_cool_sign=1;
;;;901    snmp_warm_on_temper=(signed char)TELECORE2017_KLIMAT_WARM_ON; 
;;;902    snmp_warm_off_temper=(signed char)TELECORE2017_KLIMAT_WARM_OFF;
;;;903    snmp_warm_q=(signed char)TELECORE2017_KLIMAT_CAP;	
;;;904    snmp_cool_20_temper=(signed char)TELECORE2017_KLIMAT_VENT_ON20;
;;;905    snmp_cool_40_temper=(signed char)TELECORE2017_KLIMAT_VENT_ON40;
;;;906    snmp_cool_60_temper=(signed char)TELECORE2017_KLIMAT_VENT_ON60;
;;;907    snmp_cool_80_temper=(signed char)TELECORE2017_KLIMAT_VENT_ON80;
;;;908    snmp_cool_100_temper=(signed char)TELECORE2017_KLIMAT_VENT_ON100;
;;;909    snmp_cool_20_dtemper=(signed char)TELECORE2017_KLIMAT_DVENT_ON20;
;;;910    snmp_cool_40_dtemper=(signed char)TELECORE2017_KLIMAT_DVENT_ON40;
;;;911    snmp_cool_60_dtemper=(signed char)TELECORE2017_KLIMAT_DVENT_ON60;
;;;912    snmp_cool_80_dtemper=(signed char)TELECORE2017_KLIMAT_DVENT_ON80;
;;;913    snmp_cool_100_dtemper=(signed char)TELECORE2017_KLIMAT_DVENT_ON100;
;;;914    snmp_warm_stat=0;
;;;915    if(warm_stat_k==wsON) snmp_warm_stat=1;
;;;916    #endif
;;;917    }
;;;918    //-----------------------------------------------
                          ENDP

000012  0000              DCW      0x0000
                  |L10.20|
                          DCD      ||.data||

                          AREA ||area_number.11||, CODE, READONLY, ALIGN=2

                          EXPORTAS ||area_number.11||, ||.text||
                  snmp_klimat_settings_vent_off_write PROC
;;;259    //-----------------------------------------------
;;;260    void snmp_data (void) 
000000  2801              CMP      r0,#1
;;;261    {
000002  d105              BNE      |L11.16|
;;;262    char i;
;;;263    
;;;264    snmp_mains_power_voltage=net_U;
000004  4803              LDR      r0,|L11.20|
000006  f9b01070          LDRSH    r1,[r0,#0x70]  ; snmp_klimat_settings_vent_off
00000a  20f6              MOVS     r0,#0xf6
;;;265    #ifdef UKU_220_IPS_TERMOKOMPENSAT
;;;266    snmp_mains_power_frequency=net_F3;
00000c  f7ffbffe          B.W      lc640_write_int
                  |L11.16|
000010  4770              BX       lr
;;;267    #else
;;;268    snmp_mains_power_frequency=net_F;
;;;269    #endif
;;;270    snmp_mains_power_voltage_phaseA=net_Ua;
;;;271    snmp_mains_power_voltage_phaseB=net_Ub;
;;;272    snmp_mains_power_voltage_phaseC=net_Uc;
;;;273    
;;;274    /*
;;;275    snmp_mains_power_status=0; 
;;;276    #if(UKU_VERSION==900)
;;;277    snmp_mains_power_status=2;
;;;278    #endif
;;;279    if(St&0x01)snmp_mains_power_status|=0x01;
;;;280    if(St&0x01)snmp_mains_power_alarm=1;
;;;281    
;;;282    
;;;283    
;;;284    
;;;285    
;;;286    
;;;287    for(i=0;i<snmp_numofevents;i++)event2snmp(i);
;;;288    //snmp_bpsnumber[0]=1;
;;;289    //snmp_bpsnumber[1]=2;
;;;290    
;;;291    snmp_sernum=AUSW_MAIN_NUMBER;
;;;292    snmp_sernum_lsb=0x1122;
;;;293    snmp_sernum_msb=0x3344;
;;;294    snmp_device_code=AUSW_MAIN;
;;;295    
;;;296    //memcpy(snmp_location,"lkhg;la",);
;;;297    
;;;298    
;;;299    snmp_numofbat=1;
;;;300    
;;;301    */
;;;302    
;;;303    snmp_load_voltage=load_U;
;;;304    snmp_load_current=load_I;
;;;305    snmp_numofbat=NUMBAT;
;;;306    snmp_numofbps=NUMIST;
;;;307    snmp_numofinv=NUMINV;
;;;308    snmp_numofavt=NUMAVT;
;;;309    snmp_numofdt=NUMDT;
;;;310    snmp_numofsk=NUMSK;
;;;311    snmp_numofevents=lc640_read_int(CNT_EVENT_LOG);
;;;312    
;;;313    snmp_energy_vvod_phase_a=Uvv_eb2[0];
;;;314    snmp_energy_vvod_phase_b=Uvv_eb2[1];
;;;315    snmp_energy_vvod_phase_c=Uvv_eb2[2];
;;;316    snmp_energy_pes_phase_a=Upes_eb2[0];
;;;317    snmp_energy_pes_phase_b=Upes_eb2[1];
;;;318    snmp_energy_pes_phase_c=Upes_eb2[2];
;;;319    
;;;320    #ifdef UKU_KONTUR
;;;321    snmp_energy_vvod_phase_a=Uvv0;
;;;322    snmp_energy_pes_phase_a=Uvv[1];
;;;323    #endif
;;;324    
;;;325    snmp_energy_total_energy=power_summary;
;;;326    snmp_energy_current_energy=power_current;
;;;327    snmp_energy_input_voltage=net_U;
;;;328    
;;;329    snmp_bat_number[0]=1;
;;;330    snmp_bat_voltage[0]=bat[0]._Ub;
;;;331    snmp_bat_part_voltage[0]=bat[0]._Ubm;
;;;332    snmp_bat_current[0]=bat[0]._Ib;
;;;333    
;;;334    #ifdef UKU_220_IPS_TERMOKOMPENSAT
;;;335    if(((AUSW_MAIN==22063)||(AUSW_MAIN==22023))&&(bps[8]._device==dIBAT_METR))
;;;336    	{
;;;337    	snmp_bat_current[0]=Ib_ips_termokompensat;
;;;338    	}
;;;339    #endif
;;;340    
;;;341    snmp_bat_temperature[0]=bat[0]._Tb;
;;;342    if(BAT_C_REAL[0]==0x5555)snmp_bat_capacity[0]=BAT_C_NOM[0];
;;;343    else snmp_bat_capacity[0]=BAT_C_REAL[0];
;;;344    snmp_bat_charge[0]=bat[0]._zar;
;;;345    snmp_bat_status[0]=bat[0]._av;
;;;346    if(BAT_IS_ON[0]!=bisON)snmp_bat_status[0]=0xff;
;;;347    
;;;348    snmp_bat_number[1]=2;
;;;349    snmp_bat_voltage[1]=bat[1]._Ub;
;;;350    snmp_bat_part_voltage[1]=bat[1]._Ubm;
;;;351    snmp_bat_current[1]=bat[1]._Ib;
;;;352    snmp_bat_temperature[1]=bat[1]._Tb;
;;;353    if(BAT_C_REAL[1]==0x5555)snmp_bat_capacity[1]=BAT_C_NOM[1];
;;;354    else snmp_bat_capacity[1]=BAT_C_REAL[1];
;;;355    snmp_bat_charge[1]=bat[1]._zar;
;;;356    snmp_bat_status[1]=bat[1]._av;
;;;357    if(BAT_IS_ON[1]!=bisON)snmp_bat_status[1]=0xff;
;;;358    
;;;359    
;;;360    
;;;361    snmp_bps_number[0]=1;
;;;362    snmp_bps_voltage[0]=bps[0]._Uii;
;;;363    snmp_bps_current[0]=bps[0]._Ii;
;;;364    snmp_bps_temperature[0]=bps[0]._Ti;
;;;365    snmp_bps_stat[0]=bps[0]._av;
;;;366    if(!(NUMIST>0))snmp_bps_stat[0]=0xff;												//Байт состояния БПСа.
;;;367    
;;;368    /*if(St_[0]&(1<<2))snmp_bps_stat[0]=(1<<3); 							//авария по Umin
;;;369    else if(St_[0]&(1<<3))snmp_bps_stat[0]=(1<<2); 						//авария по Umax
;;;370    else if(bps[0]._av&(1<<0))snmp_bps_stat[0]=(1<<1); 						//авария по Tmax
;;;371    else if(St_[0]&(1<<5))snmp_bps_stat[0]=(1<<5); 						//заблокирован
;;;372    else if((!(St_[0]&0x3c))&&(!St&0x01)&&(!OFFBP1))snmp_bps_stat[0]=1; 		//Работает
;;;373    */
;;;374    
;;;375    snmp_bps_number[1]=2;
;;;376    snmp_bps_voltage[1]=bps[1]._Uii;
;;;377    snmp_bps_current[1]=bps[1]._Ii;
;;;378    snmp_bps_temperature[1]=bps[1]._Ti;
;;;379    snmp_bps_stat[1]=bps[1]._av;
;;;380    if(!(NUMIST>1))snmp_bps_stat[1]=0xff;												//Байт состояния БПСа.
;;;381    /*if(St_[1]&(1<<2))snmp_bps_stat[1]=(1<<3); 							//авария по Umin
;;;382    else if(St_[1]&(1<<3))snmp_bps_stat[1]=(1<<2); 						//авария по Umax
;;;383    else if(St_[1]&(1<<4))snmp_bps_stat[1]=(1<<1); 						//авария по Tmax
;;;384    else if(St_[1]&(1<<5))snmp_bps_stat[1]=(1<<5); 						//заблокирован
;;;385    else if((!(St_[1]&0x3c))&&(!St&0x01)&&(!OFFBP2))snmp_bps_stat[1]=1; 		//Работает
;;;386    */
;;;387    
;;;388    snmp_bps_number[2]=3;
;;;389    snmp_bps_voltage[2]=bps[2]._Uii;
;;;390    snmp_bps_current[2]=bps[2]._Ii;
;;;391    snmp_bps_temperature[2]=bps[2]._Ti;
;;;392    snmp_bps_stat[2]=bps[2]._av;
;;;393    if(!(NUMIST>2))snmp_bps_stat[2]=0xff;
;;;394    
;;;395    snmp_bps_number[3]=4;
;;;396    snmp_bps_voltage[3]=bps[3]._Uii;
;;;397    snmp_bps_current[3]=bps[3]._Ii;
;;;398    snmp_bps_temperature[3]=bps[3]._Ti;
;;;399    snmp_bps_stat[3]=bps[3]._av;
;;;400    if(!(NUMIST>3))snmp_bps_stat[3]=0xff;
;;;401    
;;;402    snmp_bps_number[4]=5;
;;;403    snmp_bps_voltage[4]=bps[4]._Uii;
;;;404    snmp_bps_current[4]=bps[4]._Ii;
;;;405    snmp_bps_temperature[4]=bps[4]._Ti;
;;;406    snmp_bps_stat[4]=bps[4]._av;
;;;407    if(!(NUMIST>4))snmp_bps_stat[4]=0xff;
;;;408    
;;;409    snmp_bps_number[5]=6;
;;;410    snmp_bps_voltage[5]=bps[5]._Uii;
;;;411    snmp_bps_current[5]=bps[5]._Ii;
;;;412    snmp_bps_temperature[5]=bps[5]._Ti;
;;;413    snmp_bps_stat[5]=bps[5]._av;
;;;414    if(!(NUMIST>5))snmp_bps_stat[5]=0xff;
;;;415    
;;;416    snmp_bps_number[6]=7;
;;;417    snmp_bps_voltage[6]=bps[6]._Uii;
;;;418    snmp_bps_current[6]=bps[6]._Ii;
;;;419    snmp_bps_temperature[6]=bps[6]._Ti;
;;;420    snmp_bps_stat[6]=bps[6]._av;
;;;421    if(!(NUMIST>6))snmp_bps_stat[6]=0xff;
;;;422    
;;;423    snmp_bps_number[7]=8;
;;;424    snmp_bps_voltage[7]=bps[7]._Uii;
;;;425    snmp_bps_current[7]=bps[7]._Ii;
;;;426    snmp_bps_temperature[7]=bps[7]._Ti;
;;;427    snmp_bps_stat[7]=bps[7]._av;
;;;428    if(!(NUMIST>7))snmp_bps_stat[7]=0xff;
;;;429    
;;;430    
;;;431    
;;;432    snmp_inv_number[0]=1;
;;;433    snmp_inv_voltage[0]=inv[0]._Uio;
;;;434    snmp_inv_current[0]=inv[0]._Ii;
;;;435    snmp_inv_temperature[0]=inv[0]._Ti;
;;;436    snmp_inv_stat[0]=inv[0]._flags_tm;
;;;437    
;;;438    snmp_inv_number[1]=2;
;;;439    snmp_inv_voltage[1]=inv[1]._Uio;
;;;440    snmp_inv_current[1]=inv[1]._Ii;
;;;441    snmp_inv_temperature[1]=inv[1]._Ti;
;;;442    snmp_inv_stat[1]=inv[1]._flags_tm;
;;;443    
;;;444    snmp_inv_number[2]=3;
;;;445    snmp_inv_voltage[2]=inv[2]._Uio;
;;;446    snmp_inv_current[2]=inv[2]._Ii;
;;;447    snmp_inv_temperature[2]=inv[2]._Ti;
;;;448    snmp_inv_stat[2]=inv[2]._flags_tm;
;;;449    
;;;450    
;;;451    
;;;452    
;;;453    					  
;;;454    snmp_sk_number[0]=1;
;;;455    memcpy(&snmp_sk_name[0][0],"Door",10);
;;;456    if(sk_stat[0]==ssON) snmp_sk_aktiv[0]=1;
;;;457    else snmp_sk_aktiv[0]=0;
;;;458    if(!SK_SIGN[0])snmp_sk_alarm_aktiv[0]=1;
;;;459    else snmp_sk_alarm_aktiv[0]=0;
;;;460    if(sk_av_stat[0]==sasON)	snmp_sk_alarm[0]=1;
;;;461    else                     snmp_sk_alarm[0]=0;
;;;462    
;;;463    
;;;464    snmp_sk_number[1]=2;
;;;465    memcpy(&snmp_sk_name[1][0],"Smoke",10);
;;;466    if(sk_stat[1]==ssON) snmp_sk_aktiv[1]=1;
;;;467    else snmp_sk_aktiv[1]=0;
;;;468    if(!SK_SIGN[1])snmp_sk_alarm_aktiv[1]=1;
;;;469    else snmp_sk_alarm_aktiv[1]=0;
;;;470    if(sk_av_stat[1]==sasON)	snmp_sk_alarm[1]=1;
;;;471    else                     snmp_sk_alarm[1]=0;
;;;472    
;;;473    snmp_sk_number[2]=3;
;;;474    memcpy(&snmp_sk_name[2][0],"Shock",10);
;;;475    if(sk_stat[2]==ssON) snmp_sk_aktiv[2]=1;
;;;476    else snmp_sk_aktiv[2]=0;
;;;477    if(!SK_SIGN[2])snmp_sk_alarm_aktiv[2]=1;
;;;478    else snmp_sk_alarm_aktiv[2]=0;
;;;479    if(sk_av_stat[2]==sasON)	snmp_sk_alarm[2]=1;
;;;480    else                     snmp_sk_alarm[2]=0;
;;;481    
;;;482    snmp_sk_number[3]=4;
;;;483    memcpy(&snmp_sk_name[3][0],"     ",10);
;;;484    if(sk_stat[3]==ssON) snmp_sk_aktiv[3]=1;
;;;485    else snmp_sk_aktiv[3]=0;
;;;486    if(!SK_SIGN[3])snmp_sk_alarm_aktiv[3]=1;
;;;487    else snmp_sk_alarm_aktiv[3]=0;
;;;488    if(sk_av_stat[3]==sasON)	snmp_sk_alarm[3]=1;
;;;489    else                     snmp_sk_alarm[3]=0;
;;;490    
;;;491    
;;;492    if(makb[0]._cnt>8) snmp_makb_connect_status[0]=1;
;;;493    else if(makb[0]._cnt<2) snmp_makb_connect_status[0]=0;
;;;494    if(makb[1]._cnt>8) snmp_makb_connect_status[1]=1;
;;;495    else if(makb[1]._cnt<2) snmp_makb_connect_status[1]=0;
;;;496    if(makb[2]._cnt>8) snmp_makb_connect_status[2]=1;
;;;497    else if(makb[2]._cnt<2) snmp_makb_connect_status[2]=0;
;;;498    if(makb[3]._cnt>8) snmp_makb_connect_status[3]=1;
;;;499    else if(makb[3]._cnt<2) snmp_makb_connect_status[3]=0;
;;;500    
;;;501    snmp_makb_voltage0[0]=makb[0]._Ub[0];
;;;502    snmp_makb_voltage1[0]=makb[0]._Ub[1];
;;;503    snmp_makb_voltage2[0]=makb[0]._Ub[2];
;;;504    snmp_makb_voltage3[0]=makb[0]._Ub[3];
;;;505    snmp_makb_voltage4[0]=makb[0]._Ub[4];
;;;506    snmp_makb_voltage0[1]=makb[1]._Ub[0];
;;;507    snmp_makb_voltage1[1]=makb[1]._Ub[1];
;;;508    snmp_makb_voltage2[1]=makb[1]._Ub[2];
;;;509    snmp_makb_voltage3[1]=makb[1]._Ub[3];
;;;510    snmp_makb_voltage4[1]=makb[1]._Ub[4];
;;;511    snmp_makb_voltage0[2]=makb[2]._Ub[0];
;;;512    snmp_makb_voltage1[2]=makb[2]._Ub[1];
;;;513    snmp_makb_voltage2[2]=makb[2]._Ub[2];
;;;514    snmp_makb_voltage3[2]=makb[2]._Ub[3];
;;;515    snmp_makb_voltage4[2]=makb[2]._Ub[4];
;;;516    snmp_makb_voltage0[3]=makb[3]._Ub[0];
;;;517    snmp_makb_voltage1[3]=makb[3]._Ub[1];
;;;518    snmp_makb_voltage2[3]=makb[3]._Ub[2];
;;;519    snmp_makb_voltage3[3]=makb[3]._Ub[3];
;;;520    snmp_makb_voltage4[3]=makb[3]._Ub[4];
;;;521    
;;;522    snmp_makb_temper0[0]=makb[0]._T[0];
;;;523    snmp_makb_temper1[0]=makb[0]._T[1];
;;;524    snmp_makb_temper2[0]=makb[0]._T[2];
;;;525    snmp_makb_temper3[0]=makb[0]._T[3];
;;;526    snmp_makb_temper4[0]=makb[0]._T[4];
;;;527    snmp_makb_temper0[1]=makb[1]._T[0];
;;;528    snmp_makb_temper1[1]=makb[1]._T[1];
;;;529    snmp_makb_temper2[1]=makb[1]._T[2];
;;;530    snmp_makb_temper3[1]=makb[1]._T[3];
;;;531    snmp_makb_temper4[1]=makb[1]._T[4];
;;;532    snmp_makb_temper0[2]=makb[2]._T[0];
;;;533    snmp_makb_temper1[2]=makb[2]._T[1];
;;;534    snmp_makb_temper2[2]=makb[2]._T[2];
;;;535    snmp_makb_temper3[2]=makb[2]._T[3];
;;;536    snmp_makb_temper4[2]=makb[2]._T[4];
;;;537    snmp_makb_temper0[3]=makb[3]._T[0];
;;;538    snmp_makb_temper1[3]=makb[3]._T[1];
;;;539    snmp_makb_temper2[3]=makb[3]._T[2];
;;;540    snmp_makb_temper3[3]=makb[3]._T[3];
;;;541    snmp_makb_temper4[3]=makb[3]._T[4];
;;;542    
;;;543    snmp_makb_temper0_stat[0]=makb[0]._T_nd[0];
;;;544    snmp_makb_temper1_stat[0]=makb[0]._T_nd[1];
;;;545    snmp_makb_temper2_stat[0]=makb[0]._T_nd[2];
;;;546    snmp_makb_temper3_stat[0]=makb[0]._T_nd[3];
;;;547    snmp_makb_temper4_stat[0]=makb[0]._T_nd[4];
;;;548    snmp_makb_temper0_stat[1]=makb[1]._T_nd[0];
;;;549    snmp_makb_temper1_stat[1]=makb[1]._T_nd[1];
;;;550    snmp_makb_temper2_stat[1]=makb[1]._T_nd[2];
;;;551    snmp_makb_temper3_stat[1]=makb[1]._T_nd[3];
;;;552    snmp_makb_temper4_stat[1]=makb[1]._T_nd[4];
;;;553    snmp_makb_temper0_stat[2]=makb[2]._T_nd[0];
;;;554    snmp_makb_temper1_stat[2]=makb[2]._T_nd[1];
;;;555    snmp_makb_temper2_stat[2]=makb[2]._T_nd[2];
;;;556    snmp_makb_temper3_stat[2]=makb[2]._T_nd[3];
;;;557    snmp_makb_temper4_stat[2]=makb[2]._T_nd[4];
;;;558    snmp_makb_temper0_stat[3]=makb[3]._T_nd[0];
;;;559    snmp_makb_temper1_stat[3]=makb[3]._T_nd[1];
;;;560    snmp_makb_temper2_stat[3]=makb[3]._T_nd[2];
;;;561    snmp_makb_temper3_stat[3]=makb[3]._T_nd[3];
;;;562    snmp_makb_temper4_stat[3]=makb[3]._T_nd[4];
;;;563    
;;;564    
;;;565    snmp_klimat_box_temper=t_box;
;;;566    snmp_klimat_settings_box_alarm=TBOXMAX;
;;;567    snmp_klimat_settings_vent_on=TBOXVENTON;
;;;568    snmp_klimat_settings_vent_off=TBOXVENTOFF;
;;;569    snmp_klimat_settings_warm_on=TBOXWARMON;
;;;570    snmp_klimat_settings_warm_off=TBOXWARMOFF;
;;;571    snmp_klimat_settings_load_on=TLOADENABLE;
;;;572    snmp_klimat_settings_load_off=TLOADDISABLE;
;;;573    snmp_klimat_settings_batt_on=TBATENABLE;
;;;574    snmp_klimat_settings_batt_off=TBATDISABLE;
;;;575    
;;;576    snmp_dt_ext=t_ext[0];
;;;577    snmp_dt_msan=t_ext[1];
;;;578    snmp_dt_epu=t_ext[2];
;;;579    
;;;580    /*
;;;581    snmp_bat_voltage=Ubat;
;;;582    snmp_bat_current=Ibat;
;;;583    snmp_bat_temperature=t_b;
;;;584    if(BAT_C_REAL==0x5555)
;;;585    	{
;;;586    	snmp_bat_capacity=BAT_C_NOM*10;												    11
;;;587    	}
;;;588    else
;;;589    	{
;;;590    	snmp_bat_capacity=BAT_C_REAL;
;;;591    	}
;;;592    snmp_bat_charge=zar_percent;
;;;593    snmp_bat_status=0;
;;;594    if(St&0x02)snmp_bat_status|=0x01;
;;;595    if(Ibat>0)snmp_bat_status|=0x02;
;;;596    
;;;597    
;;;598    if(spc_stat==spc_OFF) snmp_spc_stat=0;
;;;599    else if(spc_stat==spc_KE) snmp_spc_stat=1;
;;;600    else if(spc_stat==spc_VZ) snmp_spc_stat=10;
;;;601    
;;;602    
;;;603    snmp_main_bps=MAIN_IST+1;
;;;604    */
;;;605    snmp_zv_en=ZV_ON;
;;;606    snmp_alarm_auto_disable=AV_OFF_AVT;
;;;607    snmp_bat_test_time=TBAT;
;;;608    snmp_u_max=UMAX;
;;;609    //snmp_u_min=UB20-DU;
;;;610    //snmp_u_0_grad=UB0;
;;;611    //snmp_u_20_grad=UB20;
;;;612    snmp_u_sign=USIGN;
;;;613    snmp_u_min_power=UMN;
;;;614    snmp_u_withouth_bat=U0B;
;;;615    snmp_control_current=IKB;
;;;616    snmp_max_charge_current=IZMAX;
;;;617    snmp_max_current=IMAX;
;;;618    snmp_min_current=IMIN;
;;;619    //snmp_max_current_koef=KIMAX;
;;;620    //snmp_uvz=UVZ;
;;;621    snmp_powerup_psu_timeout=TZAS;
;;;622    snmp_max_temperature=TMAX;
;;;623    snmp_tsign_bat=TBATSIGN; 
;;;624    snmp_tmax_bat=TBATMAX;
;;;625    snmp_tsign_bps=TSIGN;
;;;626    snmp_tmax_bps=TMAX;
;;;627    snmp_bat_part_alarm=UBM_AV; 
;;;628    snmp_power_cnt_adress=POWER_CNT_ADRESS;
;;;629    
;;;630    for(i=0;i<12;i++)
;;;631    	{
;;;632    	snmp_avt_number[i]=i+1;
;;;633    	if(avt_stat[i]==avtOFF)snmp_avt_stat[i]=0;
;;;634    	else snmp_avt_stat[i]=1;
;;;635    	}
;;;636    
;;;637    snmp_dt_number[0]=1;
;;;638    snmp_dt_number[1]=2;
;;;639    snmp_dt_number[2]=3;
;;;640    //snmp_dt_number[3]=4;
;;;641    snmp_dt_temper[0]=t_ext[0];
;;;642    snmp_dt_temper[1]=t_ext[1];
;;;643    snmp_dt_temper[2]=t_ext[2];
;;;644    //snmp_dt_temper[3]=t_ext[3];
;;;645    snmp_dt_error[0]=ND_EXT[0];
;;;646    if(NUMDT<1)snmp_dt_error[0]=0xff;
;;;647    snmp_dt_error[1]=ND_EXT[1];
;;;648    if(NUMDT<2)snmp_dt_error[0]=0xff;
;;;649    snmp_dt_error[2]=ND_EXT[2];
;;;650    if(NUMDT<3)snmp_dt_error[0]=0xff;
;;;651    //snmp_dt_error[3]=ND_EXT[3];
;;;652    if(NUMDT<4)snmp_dt_error[0]=0xff;
;;;653    
;;;654    /*
;;;655    //Литиевые батареи
;;;656    snmp_lakb_number[0]=1;								//Номер ЛАКБ
;;;657    snmp_lakb_number[1]=2;								//Номер ЛАКБ
;;;658    snmp_lakb_voltage[0]=lakb[0]._tot_bat_volt;				//Напряжение ЛАКБ
;;;659    snmp_lakb_voltage[1]=lakb[1]._tot_bat_volt;				//Напряжение ЛАКБ
;;;660    snmp_lakb_max_cell_voltage[0]=lakb[0]._max_cell_volt;		//Максимальное напряжение ячейки ЛАКБ
;;;661    snmp_lakb_max_cell_voltage[1]=lakb[1]._max_cell_volt;		//Максимальное напряжение ячейки ЛАКБ
;;;662    snmp_lakb_min_cell_voltage[0]=lakb[0]._min_cell_volt;		//Минимальное напряжение ячейки ЛАКБ
;;;663    snmp_lakb_min_cell_voltage[1]=lakb[1]._min_cell_volt;		//Минимальное напряжение ячейки ЛАКБ
;;;664    snmp_lakb_max_cell_temperature[0]=lakb[0]._max_cell_temp;	//Максимальная температура ячейки ЛАКБ
;;;665    snmp_lakb_max_cell_temperature[1]=lakb[1]._max_cell_temp;	//Максимальная температура ячейки ЛАКБ
;;;666    snmp_lakb_min_cell_temperature[0]=lakb[0]._min_cell_temp;	//Минимальная температура ячейки ЛАКБ
;;;667    snmp_lakb_min_cell_temperature[1]=lakb[1]._min_cell_temp;	//Минимальная температура ячейки ЛАКБ
;;;668    snmp_lakb_ch_curr[0]=lakb[0]._ch_curr;					//Ток заряда ЛАКБ
;;;669    snmp_lakb_ch_curr[1]=lakb[1]._ch_curr;					//Ток заряда ЛАКБ
;;;670    snmp_lakb_dsch_curr[0]=lakb[0]._dsch_curr;				//Ток разряда ЛАКБ
;;;671    snmp_lakb_dsch_curr[1]=lakb[1]._dsch_curr;				//Ток разряда ЛАКБ
;;;672    snmp_lakb_rat_cap[0]=lakb[0]._rat_cap;					//Номинальная емкость ЛАКБ
;;;673    snmp_lakb_rat_cap[1]=lakb[1]._rat_cap;					//Номинальная емкость ЛАКБ
;;;674    snmp_lakb_soh[0]=lakb[0]._s_o_h;						//Остаточная емкость ЛАКБ
;;;675    snmp_lakb_soh[1]=lakb[1]._s_o_h;						//Остаточная емкость ЛАКБ
;;;676    snmp_lakb_soc[0]=lakb[0]._s_o_c;						//Заряд ЛАКБ
;;;677    snmp_lakb_soc[1]=lakb[1]._s_o_c;						//Заряд ЛАКБ
;;;678    snmp_lakb_cclv[0]=lakb[0]._c_c_l_v;  					//Максимальный ток заряда ЛАКБ
;;;679    snmp_lakb_cclv[1]=lakb[1]._c_c_l_v;  					//Максимальный ток заряда ЛАКБ
;;;680    snmp_lakb_rbt[0]=lakb[0]._r_b_t;						//Оцениваемое время работы ЛАКБ
;;;681    snmp_lakb_rbt[1]=lakb[1]._r_b_t;						//Оцениваемое время работы ЛАКБ
;;;682    snmp_lakb_flags1[0]=lakb[0]._flags1;					//Первый флаг состояния ЛАКБ
;;;683    snmp_lakb_flags1[1]=lakb[1]._flags1;					//Первый флаг состояния ЛАКБ
;;;684    snmp_lakb_flags2[0]=lakb[0]._flags2;					//Второй флаг состояния ЛАКБ
;;;685    snmp_lakb_flags2[1]=lakb[1]._flags2;					//Второй флаг состояния ЛАКБ */
;;;686    
;;;687    //Литиевые батареи
;;;688    snmp_lakb_number[0]=1;								//Номер ЛАКБ
;;;689    snmp_lakb_number[1]=2;								//Номер ЛАКБ
;;;690    snmp_lakb_number[2]=3;								//Номер ЛАКБ
;;;691    snmp_lakb_number[3]=4;								//Номер ЛАКБ
;;;692    snmp_lakb_number[4]=5;								//Номер ЛАКБ
;;;693    snmp_lakb_number[5]=6;								//Номер ЛАКБ
;;;694    snmp_lakb_number[6]=7;								//Номер ЛАКБ
;;;695    
;;;696    for (i=0;i<3;i++)
;;;697    	{
;;;698    	snmp_lakb_voltage[i]=lakb[i]._tot_bat_volt;				//Напряжение ЛАКБ
;;;699    	snmp_lakb_max_cell_voltage[i]=lakb[i]._max_cell_volt;		//Максимальное напряжение ячейки ЛАКБ
;;;700    	snmp_lakb_min_cell_voltage[i]=lakb[i]._min_cell_volt;		//Минимальное напряжение ячейки ЛАКБ
;;;701    	snmp_lakb_max_cell_temperature[i]=lakb[i]._max_cell_temp;	//Максимальная температура ячейки ЛАКБ
;;;702    	//snmp_lakb_max_cell_temperature[1]=lakb[1]._max_cell_temp;	//Максимальная температура ячейки ЛАКБ
;;;703    	snmp_lakb_min_cell_temperature[i]=lakb[i]._min_cell_temp;	//Минимальная температура ячейки ЛАКБ
;;;704    	//snmp_lakb_min_cell_temperature[1]=lakb[1]._min_cell_temp;	//Минимальная температура ячейки ЛАКБ
;;;705    	snmp_lakb_ch_curr[i]=lakb[i]._ch_curr;					//Ток заряда ЛАКБ
;;;706    	//snmp_lakb_ch_curr[1]=lakb[1]._ch_curr;					//Ток заряда ЛАКБ
;;;707    	snmp_lakb_dsch_curr[i]=lakb[i]._dsch_curr;				//Ток разряда ЛАКБ
;;;708    	//snmp_lakb_dsch_curr[1]=lakb[1]._dsch_curr;				//Ток разряда ЛАКБ
;;;709    	snmp_lakb_rat_cap[i]=lakb[i]._rat_cap;					//Номинальная емкость ЛАКБ
;;;710    	//snmp_lakb_rat_cap[1]=lakb[1]._rat_cap;					//Номинальная емкость ЛАКБ
;;;711    	snmp_lakb_soh[i]=lakb[i]._s_o_h;						//Остаточная емкость ЛАКБ
;;;712    	//snmp_lakb_soh[1]=lakb[1]._s_o_h;						//Остаточная емкость ЛАКБ
;;;713    	snmp_lakb_soc[i]=lakb[i]._s_o_c;						//Заряд ЛАКБ
;;;714    	//snmp_lakb_soc[1]=lakb[1]._s_o_c;						//Заряд ЛАКБ
;;;715    	snmp_lakb_cclv[i]=lakb[i]._c_c_l_v;  					//Максимальный ток заряда ЛАКБ
;;;716    	//snmp_lakb_cclv[1]=lakb[1]._c_c_l_v;  					//Максимальный ток заряда ЛАКБ
;;;717    	snmp_lakb_rbt[i]=lakb[i]._r_b_t;						//Оцениваемое время работы ЛАКБ
;;;718    	//snmp_lakb_rbt[1]=lakb[1]._r_b_t;						//Оцениваемое время работы ЛАКБ
;;;719    	snmp_lakb_flags1[i]=lakb[i]._flags1;					//Первый флаг состояния ЛАКБ
;;;720    	//snmp_lakb_flags1[1]=lakb[1]._flags1;					//Первый флаг состояния ЛАКБ
;;;721    	snmp_lakb_flags2[i]=lakb[i]._flags2;					//Второй флаг состояния ЛАКБ
;;;722    	//snmp_lakb_flags2[1]=lakb[1]._flags2;					//Второй флаг состояния ЛАКБ
;;;723    
;;;724    	snmp_lakb_cell_temperature_1[i]= lakb[i]._cell_temp_1;
;;;725    	snmp_lakb_cell_temperature_2[i]= lakb[i]._cell_temp_2;
;;;726    	snmp_lakb_cell_temperature_3[i]= lakb[i]._cell_temp_3;
;;;727    	snmp_lakb_cell_temperature_4[i]= lakb[i]._cell_temp_4;
;;;728    	snmp_lakb_cell_temperature_ambient[i]=lakb[i]._cell_temp_ambient;
;;;729    	snmp_lakb_cell_temperature_power[i]=lakb[i]._cell_temp_power;
;;;730    	}
;;;731    
;;;732    for (i=0;i<7;i++)
;;;733    {
;;;734    /*
;;;735    snmp_lakb_damp1[i][0]=ABCDEF[(lakb_damp[i][0])>>4];			//Дамп
;;;736    snmp_lakb_damp1[i][1]=ABCDEF[(lakb_damp[i][0])&0x0f];			//Дамп
;;;737    snmp_lakb_damp1[i][2]=' ';
;;;738    snmp_lakb_damp1[i][3]=ABCDEF[(lakb_damp[i][1])>>4];			//Дамп
;;;739    snmp_lakb_damp1[i][4]=ABCDEF[(lakb_damp[i][1])&0x0f];			//Дамп
;;;740    snmp_lakb_damp1[i][5]=' ';
;;;741    snmp_lakb_damp1[i][6]=ABCDEF[(lakb_damp[i][2])>>4];			//Дамп
;;;742    snmp_lakb_damp1[i][7]=ABCDEF[(lakb_damp[i][2])&0x0f];			//Дамп
;;;743    snmp_lakb_damp1[i][8]=' ';
;;;744    snmp_lakb_damp1[i][9]=ABCDEF[(lakb_damp[i][3])>>4];			//Дамп
;;;745    snmp_lakb_damp1[i][10]=ABCDEF[(lakb_damp[i][3])&0x0f];			//Дамп
;;;746    snmp_lakb_damp1[i][11]=' ';
;;;747    snmp_lakb_damp1[i][12]=ABCDEF[(lakb_damp[i][4])>>4];			//Дамп
;;;748    snmp_lakb_damp1[i][13]=ABCDEF[(lakb_damp[i][4])&0x0f];			//Дамп
;;;749    snmp_lakb_damp1[i][14]=' '; 
;;;750    snmp_lakb_damp1[i][15]=ABCDEF[(lakb_damp[i][5])>>4];			//Дамп
;;;751    snmp_lakb_damp1[i][16]=ABCDEF[(lakb_damp[i][5])&0x0f];			//Дамп
;;;752    snmp_lakb_damp1[i][17]=' ';
;;;753    snmp_lakb_damp1[i][18]=ABCDEF[(lakb_damp[i][6])>>4];			//Дамп
;;;754    snmp_lakb_damp1[i][19]=ABCDEF[(lakb_damp[i][6])&0x0f];			//Дамп
;;;755    snmp_lakb_damp1[i][20]=' ';
;;;756    snmp_lakb_damp1[i][21]=ABCDEF[(lakb_damp[i][7])>>4];			//Дамп
;;;757    snmp_lakb_damp1[i][22]=ABCDEF[(lakb_damp[i][7])&0x0f];			//Дамп
;;;758    snmp_lakb_damp1[i][23]=' ';
;;;759    snmp_lakb_damp1[i][24]=ABCDEF[(lakb_damp[i][8])>>4];			//Дамп
;;;760    snmp_lakb_damp1[i][25]=ABCDEF[(lakb_damp[i][8])&0x0f];			//Дамп
;;;761    snmp_lakb_damp1[i][26]=' ';
;;;762    snmp_lakb_damp1[i][27]=ABCDEF[(lakb_damp[i][9])>>4];			//Дамп
;;;763    snmp_lakb_damp1[i][28]=ABCDEF[(lakb_damp[i][9])&0x0f];			//Дамп
;;;764    snmp_lakb_damp1[i][29]=0; 
;;;765    
;;;766    snmp_lakb_damp1[i][30]=ABCDEF[(lakb_damp[i][10])>>4];			//Дамп
;;;767    snmp_lakb_damp1[i][31]=ABCDEF[(lakb_damp[i][10])&0x0f];			//Дамп
;;;768    snmp_lakb_damp1[i][32]=' ';
;;;769    snmp_lakb_damp1[i][33]=ABCDEF[(lakb_damp[i][11])>>4];			//Дамп
;;;770    snmp_lakb_damp1[i][34]=ABCDEF[(lakb_damp[i][11])&0x0f];			//Дамп
;;;771    snmp_lakb_damp1[i][35]=' ';
;;;772    snmp_lakb_damp1[i][36]=ABCDEF[(lakb_damp[i][12])>>4];			//Дамп
;;;773    snmp_lakb_damp1[i][37]=ABCDEF[(lakb_damp[i][12])&0x0f];			//Дамп
;;;774    snmp_lakb_damp1[i][38]=' ';
;;;775    snmp_lakb_damp1[i][39]=ABCDEF[(lakb_damp[i][13])>>4];			//Дамп
;;;776    snmp_lakb_damp1[i][40]=ABCDEF[(lakb_damp[i][13])&0x0f];			//Дамп
;;;777    snmp_lakb_damp1[i][41]=' ';
;;;778    snmp_lakb_damp1[i][42]=ABCDEF[(lakb_damp[i][14])>>4];			//Дамп
;;;779    snmp_lakb_damp1[i][43]=ABCDEF[(lakb_damp[i][14])&0x0f];			//Дамп
;;;780    snmp_lakb_damp1[i][44]=' '; 
;;;781    snmp_lakb_damp1[i][45]=ABCDEF[(lakb_damp[i][15])>>4];			//Дамп
;;;782    snmp_lakb_damp1[i][46]=ABCDEF[(lakb_damp[i][15])&0x0f];			//Дамп
;;;783    snmp_lakb_damp1[i][47]=' ';
;;;784    snmp_lakb_damp1[i][48]=ABCDEF[(lakb_damp[i][16])>>4];			//Дамп
;;;785    snmp_lakb_damp1[i][49]=ABCDEF[(lakb_damp[i][16])&0x0f];			//Дамп
;;;786    snmp_lakb_damp1[i][50]=' ';
;;;787    snmp_lakb_damp1[i][51]=ABCDEF[(lakb_damp[i][17])>>4];			//Дамп
;;;788    snmp_lakb_damp1[i][52]=ABCDEF[(lakb_damp[i][17])&0x0f];			//Дамп
;;;789    snmp_lakb_damp1[i][53]=' ';
;;;790    snmp_lakb_damp1[i][54]=ABCDEF[(lakb_damp[i][18])>>4];			//Дамп
;;;791    snmp_lakb_damp1[i][55]=ABCDEF[(lakb_damp[i][18])&0x0f];			//Дамп
;;;792    snmp_lakb_damp1[i][56]=' ';
;;;793    snmp_lakb_damp1[i][57]=ABCDEF[(lakb_damp[i][19])>>4];			//Дамп
;;;794    snmp_lakb_damp1[i][58]=ABCDEF[(lakb_damp[i][19])&0x0f];			//Дамп
;;;795    snmp_lakb_damp1[i][59]=0; 
;;;796    
;;;797    
;;;798    snmp_lakb_damp1[i][60]=ABCDEF[(lakb_damp[i][20])>>4];			//Дамп
;;;799    snmp_lakb_damp1[i][61]=ABCDEF[(lakb_damp[i][20])&0x0f];			//Дамп
;;;800    snmp_lakb_damp1[i][62]=' ';
;;;801    snmp_lakb_damp1[i][63]=ABCDEF[(lakb_damp[i][21])>>4];			//Дамп
;;;802    snmp_lakb_damp1[i][64]=ABCDEF[(lakb_damp[i][21])&0x0f];			//Дамп
;;;803    snmp_lakb_damp1[i][65]=' ';
;;;804    snmp_lakb_damp1[i][66]=ABCDEF[(lakb_damp[i][22])>>4];			//Дамп
;;;805    snmp_lakb_damp1[i][67]=ABCDEF[(lakb_damp[i][22])&0x0f];			//Дамп
;;;806    snmp_lakb_damp1[i][68]=' ';
;;;807    snmp_lakb_damp1[i][69]=ABCDEF[(lakb_damp[i][23])>>4];			//Дамп
;;;808    snmp_lakb_damp1[i][70]=ABCDEF[(lakb_damp[i][23])&0x0f];			//Дамп
;;;809    snmp_lakb_damp1[i][71]=' ';
;;;810    snmp_lakb_damp1[i][72]=ABCDEF[(lakb_damp[i][24])>>4];			//Дамп
;;;811    snmp_lakb_damp1[i][73]=ABCDEF[(lakb_damp[i][24])&0x0f];			//Дамп
;;;812    snmp_lakb_damp1[i][74]=' '; 
;;;813    snmp_lakb_damp1[i][75]=ABCDEF[(lakb_damp[i][25])>>4];			//Дамп
;;;814    snmp_lakb_damp1[i][76]=ABCDEF[(lakb_damp[i][25])&0x0f];			//Дамп
;;;815    snmp_lakb_damp1[i][77]=' ';
;;;816    snmp_lakb_damp1[i][78]=ABCDEF[(lakb_damp[i][26])>>4];			//Дамп
;;;817    snmp_lakb_damp1[i][79]=ABCDEF[(lakb_damp[i][26])&0x0f];			//Дамп
;;;818    snmp_lakb_damp1[i][80]=' ';
;;;819    snmp_lakb_damp1[i][81]=ABCDEF[(lakb_damp[i][27])>>4];			//Дамп
;;;820    snmp_lakb_damp1[i][82]=ABCDEF[(lakb_damp[i][27])&0x0f];			//Дамп
;;;821    snmp_lakb_damp1[i][83]=' ';
;;;822    snmp_lakb_damp1[i][84]=ABCDEF[(lakb_damp[i][28])>>4];			//Дамп
;;;823    snmp_lakb_damp1[i][85]=ABCDEF[(lakb_damp[i][28])&0x0f];			//Дамп
;;;824    snmp_lakb_damp1[i][86]=' ';
;;;825    snmp_lakb_damp1[i][87]=ABCDEF[(lakb_damp[i][29])>>4];			//Дамп
;;;826    snmp_lakb_damp1[i][88]=ABCDEF[(lakb_damp[i][29])&0x0f];			//Дамп
;;;827    snmp_lakb_damp1[i][89]=0;
;;;828    
;;;829    
;;;830    snmp_lakb_damp1[i][90]=ABCDEF[(lakb_damp[i][30])>>4];			//Дамп
;;;831    snmp_lakb_damp1[i][91]=ABCDEF[(lakb_damp[i][30])&0x0f];			//Дамп
;;;832    snmp_lakb_damp1[i][92]=' ';
;;;833    snmp_lakb_damp1[i][93]=ABCDEF[(lakb_damp[i][31])>>4];			//Дамп
;;;834    snmp_lakb_damp1[i][94]=ABCDEF[(lakb_damp[i][31])&0x0f];			//Дамп
;;;835    snmp_lakb_damp1[i][95]=' ';
;;;836    snmp_lakb_damp1[i][96]=ABCDEF[(lakb_damp[i][32])>>4];			//Дамп
;;;837    snmp_lakb_damp1[i][97]=ABCDEF[(lakb_damp[i][32])&0x0f];			//Дамп
;;;838    snmp_lakb_damp1[i][98]=' ';
;;;839    snmp_lakb_damp1[i][99]=ABCDEF[(lakb_damp[i][33])>>4];			//Дамп
;;;840    snmp_lakb_damp1[i][100]=ABCDEF[(lakb_damp[i][33])&0x0f];			//Дамп
;;;841    snmp_lakb_damp1[i][101]=' ';
;;;842    snmp_lakb_damp1[i][102]=ABCDEF[(lakb_damp[i][34])>>4];			//Дамп
;;;843    snmp_lakb_damp1[i][103]=ABCDEF[(lakb_damp[i][34])&0x0f];			//Дамп
;;;844    snmp_lakb_damp1[i][104]=' '; 
;;;845    snmp_lakb_damp1[i][105]=ABCDEF[(lakb_damp[i][35])>>4];			//Дамп
;;;846    snmp_lakb_damp1[i][106]=ABCDEF[(lakb_damp[i][35])&0x0f];			//Дамп
;;;847    snmp_lakb_damp1[i][107]=' ';
;;;848    snmp_lakb_damp1[i][108]=ABCDEF[(lakb_damp[i][36])>>4];			//Дамп
;;;849    snmp_lakb_damp1[i][109]=ABCDEF[(lakb_damp[i][36])&0x0f];			//Дамп
;;;850    snmp_lakb_damp1[i][110]=' ';
;;;851    snmp_lakb_damp1[i][111]=ABCDEF[(lakb_damp[i][37])>>4];			//Дамп
;;;852    snmp_lakb_damp1[i][112]=ABCDEF[(lakb_damp[i][37])&0x0f];			//Дамп
;;;853    snmp_lakb_damp1[i][113]=' ';
;;;854    snmp_lakb_damp1[i][114]=ABCDEF[(lakb_damp[i][38])>>4];			//Дамп
;;;855    snmp_lakb_damp1[i][115]=ABCDEF[(lakb_damp[i][38])&0x0f];			//Дамп
;;;856    snmp_lakb_damp1[i][116]=' ';
;;;857    snmp_lakb_damp1[i][117]=ABCDEF[(lakb_damp[i][39])>>4];			//Дамп
;;;858    snmp_lakb_damp1[i][118]=ABCDEF[(lakb_damp[i][39])&0x0f];			//Дамп
;;;859    snmp_lakb_damp1[i][119]=0; 
;;;860     
;;;861    
;;;862    snmp_lakb_damp1[i][120]=ABCDEF[(lakb_damp[i][40])>>4];			//Дамп
;;;863    snmp_lakb_damp1[i][121]=ABCDEF[(lakb_damp[i][40])&0x0f];			//Дамп
;;;864    snmp_lakb_damp1[i][122]=' ';
;;;865    snmp_lakb_damp1[i][123]=ABCDEF[(lakb_damp[i][41])>>4];			//Дамп
;;;866    snmp_lakb_damp1[i][124]=ABCDEF[(lakb_damp[i][41])&0x0f];			//Дамп
;;;867    snmp_lakb_damp1[i][125]=' ';
;;;868    snmp_lakb_damp1[i][126]=ABCDEF[(lakb_damp[i][42])>>4];			//Дамп
;;;869    snmp_lakb_damp1[i][127]=ABCDEF[(lakb_damp[i][42])&0x0f];			//Дамп
;;;870    snmp_lakb_damp1[i][128]=' ';
;;;871    snmp_lakb_damp1[i][129]=ABCDEF[(lakb_damp[i][43])>>4];			//Дамп
;;;872    snmp_lakb_damp1[i][130]=ABCDEF[(lakb_damp[i][43])&0x0f];			//Дамп
;;;873    snmp_lakb_damp1[i][131]=' ';
;;;874    snmp_lakb_damp1[i][132]=ABCDEF[(lakb_damp[i][44])>>4];			//Дамп
;;;875    snmp_lakb_damp1[i][133]=ABCDEF[(lakb_damp[i][44])&0x0f];			//Дамп
;;;876    snmp_lakb_damp1[i][134]=' '; 
;;;877    snmp_lakb_damp1[i][135]=ABCDEF[(lakb_damp[i][45])>>4];			//Дамп
;;;878    snmp_lakb_damp1[i][136]=ABCDEF[(lakb_damp[i][45])&0x0f];			//Дамп
;;;879    snmp_lakb_damp1[i][137]=' ';
;;;880    snmp_lakb_damp1[i][138]=ABCDEF[(lakb_damp[i][46])>>4];			//Дамп
;;;881    snmp_lakb_damp1[i][139]=ABCDEF[(lakb_damp[i][46])&0x0f];			//Дамп
;;;882    snmp_lakb_damp1[i][140]=' ';
;;;883    snmp_lakb_damp1[i][141]=ABCDEF[(lakb_damp[i][47])>>4];			//Дамп
;;;884    snmp_lakb_damp1[i][142]=ABCDEF[(lakb_damp[i][47])&0x0f];			//Дамп
;;;885    snmp_lakb_damp1[i][143]=' ';
;;;886    snmp_lakb_damp1[i][144]=ABCDEF[(lakb_damp[i][48])>>4];			//Дамп
;;;887    snmp_lakb_damp1[i][145]=ABCDEF[(lakb_damp[i][48])&0x0f];			//Дамп
;;;888    snmp_lakb_damp1[i][146]=' ';
;;;889    snmp_lakb_damp1[i][147]=ABCDEF[(lakb_damp[i][49])>>4];			//Дамп
;;;890    snmp_lakb_damp1[i][148]=ABCDEF[(lakb_damp[i][49])&0x0f];			//Дамп
;;;891    snmp_lakb_damp1[i][149]=0;  */
;;;892    }
;;;893    
;;;894    #ifdef UKU_TELECORE2017
;;;895    snmp_warm_sign=0;
;;;896    if(TELECORE2017_KLIMAT_WARM_SIGNAL==0) snmp_warm_sign=2;
;;;897    else if(TELECORE2017_KLIMAT_WARM_SIGNAL==1) snmp_warm_sign=1;
;;;898    snmp_cool_sign=0;
;;;899    if(TELECORE2017_KLIMAT_VENT_SIGNAL==0) snmp_cool_sign=2;
;;;900    else if(TELECORE2017_KLIMAT_VENT_SIGNAL==1) snmp_cool_sign=1;
;;;901    snmp_warm_on_temper=(signed char)TELECORE2017_KLIMAT_WARM_ON; 
;;;902    snmp_warm_off_temper=(signed char)TELECORE2017_KLIMAT_WARM_OFF;
;;;903    snmp_warm_q=(signed char)TELECORE2017_KLIMAT_CAP;	
;;;904    snmp_cool_20_temper=(signed char)TELECORE2017_KLIMAT_VENT_ON20;
;;;905    snmp_cool_40_temper=(signed char)TELECORE2017_KLIMAT_VENT_ON40;
;;;906    snmp_cool_60_temper=(signed char)TELECORE2017_KLIMAT_VENT_ON60;
;;;907    snmp_cool_80_temper=(signed char)TELECORE2017_KLIMAT_VENT_ON80;
;;;908    snmp_cool_100_temper=(signed char)TELECORE2017_KLIMAT_VENT_ON100;
;;;909    snmp_cool_20_dtemper=(signed char)TELECORE2017_KLIMAT_DVENT_ON20;
;;;910    snmp_cool_40_dtemper=(signed char)TELECORE2017_KLIMAT_DVENT_ON40;
;;;911    snmp_cool_60_dtemper=(signed char)TELECORE2017_KLIMAT_DVENT_ON60;
;;;912    snmp_cool_80_dtemper=(signed char)TELECORE2017_KLIMAT_DVENT_ON80;
;;;913    snmp_cool_100_dtemper=(signed char)TELECORE2017_KLIMAT_DVENT_ON100;
;;;914    snmp_warm_stat=0;
;;;915    if(warm_stat_k==wsON) snmp_warm_stat=1;
;;;916    #endif
;;;917    }
;;;918    //-----------------------------------------------
                          ENDP

000012  0000              DCW      0x0000
                  |L11.20|
                          DCD      ||.data||

                          AREA ||area_number.12||, CODE, READONLY, ALIGN=2

                          EXPORTAS ||area_number.12||, ||.text||
                  snmp_klimat_settings_warm_on_write PROC
;;;259    //-----------------------------------------------
;;;260    void snmp_data (void) 
000000  2801              CMP      r0,#1
;;;261    {
000002  d105              BNE      |L12.16|
;;;262    char i;
;;;263    
;;;264    snmp_mains_power_voltage=net_U;
000004  4803              LDR      r0,|L12.20|
000006  f9b01072          LDRSH    r1,[r0,#0x72]  ; snmp_klimat_settings_warm_on
00000a  20f8              MOVS     r0,#0xf8
;;;265    #ifdef UKU_220_IPS_TERMOKOMPENSAT
;;;266    snmp_mains_power_frequency=net_F3;
00000c  f7ffbffe          B.W      lc640_write_int
                  |L12.16|
000010  4770              BX       lr
;;;267    #else
;;;268    snmp_mains_power_frequency=net_F;
;;;269    #endif
;;;270    snmp_mains_power_voltage_phaseA=net_Ua;
;;;271    snmp_mains_power_voltage_phaseB=net_Ub;
;;;272    snmp_mains_power_voltage_phaseC=net_Uc;
;;;273    
;;;274    /*
;;;275    snmp_mains_power_status=0; 
;;;276    #if(UKU_VERSION==900)
;;;277    snmp_mains_power_status=2;
;;;278    #endif
;;;279    if(St&0x01)snmp_mains_power_status|=0x01;
;;;280    if(St&0x01)snmp_mains_power_alarm=1;
;;;281    
;;;282    
;;;283    
;;;284    
;;;285    
;;;286    
;;;287    for(i=0;i<snmp_numofevents;i++)event2snmp(i);
;;;288    //snmp_bpsnumber[0]=1;
;;;289    //snmp_bpsnumber[1]=2;
;;;290    
;;;291    snmp_sernum=AUSW_MAIN_NUMBER;
;;;292    snmp_sernum_lsb=0x1122;
;;;293    snmp_sernum_msb=0x3344;
;;;294    snmp_device_code=AUSW_MAIN;
;;;295    
;;;296    //memcpy(snmp_location,"lkhg;la",);
;;;297    
;;;298    
;;;299    snmp_numofbat=1;
;;;300    
;;;301    */
;;;302    
;;;303    snmp_load_voltage=load_U;
;;;304    snmp_load_current=load_I;
;;;305    snmp_numofbat=NUMBAT;
;;;306    snmp_numofbps=NUMIST;
;;;307    snmp_numofinv=NUMINV;
;;;308    snmp_numofavt=NUMAVT;
;;;309    snmp_numofdt=NUMDT;
;;;310    snmp_numofsk=NUMSK;
;;;311    snmp_numofevents=lc640_read_int(CNT_EVENT_LOG);
;;;312    
;;;313    snmp_energy_vvod_phase_a=Uvv_eb2[0];
;;;314    snmp_energy_vvod_phase_b=Uvv_eb2[1];
;;;315    snmp_energy_vvod_phase_c=Uvv_eb2[2];
;;;316    snmp_energy_pes_phase_a=Upes_eb2[0];
;;;317    snmp_energy_pes_phase_b=Upes_eb2[1];
;;;318    snmp_energy_pes_phase_c=Upes_eb2[2];
;;;319    
;;;320    #ifdef UKU_KONTUR
;;;321    snmp_energy_vvod_phase_a=Uvv0;
;;;322    snmp_energy_pes_phase_a=Uvv[1];
;;;323    #endif
;;;324    
;;;325    snmp_energy_total_energy=power_summary;
;;;326    snmp_energy_current_energy=power_current;
;;;327    snmp_energy_input_voltage=net_U;
;;;328    
;;;329    snmp_bat_number[0]=1;
;;;330    snmp_bat_voltage[0]=bat[0]._Ub;
;;;331    snmp_bat_part_voltage[0]=bat[0]._Ubm;
;;;332    snmp_bat_current[0]=bat[0]._Ib;
;;;333    
;;;334    #ifdef UKU_220_IPS_TERMOKOMPENSAT
;;;335    if(((AUSW_MAIN==22063)||(AUSW_MAIN==22023))&&(bps[8]._device==dIBAT_METR))
;;;336    	{
;;;337    	snmp_bat_current[0]=Ib_ips_termokompensat;
;;;338    	}
;;;339    #endif
;;;340    
;;;341    snmp_bat_temperature[0]=bat[0]._Tb;
;;;342    if(BAT_C_REAL[0]==0x5555)snmp_bat_capacity[0]=BAT_C_NOM[0];
;;;343    else snmp_bat_capacity[0]=BAT_C_REAL[0];
;;;344    snmp_bat_charge[0]=bat[0]._zar;
;;;345    snmp_bat_status[0]=bat[0]._av;
;;;346    if(BAT_IS_ON[0]!=bisON)snmp_bat_status[0]=0xff;
;;;347    
;;;348    snmp_bat_number[1]=2;
;;;349    snmp_bat_voltage[1]=bat[1]._Ub;
;;;350    snmp_bat_part_voltage[1]=bat[1]._Ubm;
;;;351    snmp_bat_current[1]=bat[1]._Ib;
;;;352    snmp_bat_temperature[1]=bat[1]._Tb;
;;;353    if(BAT_C_REAL[1]==0x5555)snmp_bat_capacity[1]=BAT_C_NOM[1];
;;;354    else snmp_bat_capacity[1]=BAT_C_REAL[1];
;;;355    snmp_bat_charge[1]=bat[1]._zar;
;;;356    snmp_bat_status[1]=bat[1]._av;
;;;357    if(BAT_IS_ON[1]!=bisON)snmp_bat_status[1]=0xff;
;;;358    
;;;359    
;;;360    
;;;361    snmp_bps_number[0]=1;
;;;362    snmp_bps_voltage[0]=bps[0]._Uii;
;;;363    snmp_bps_current[0]=bps[0]._Ii;
;;;364    snmp_bps_temperature[0]=bps[0]._Ti;
;;;365    snmp_bps_stat[0]=bps[0]._av;
;;;366    if(!(NUMIST>0))snmp_bps_stat[0]=0xff;												//Байт состояния БПСа.
;;;367    
;;;368    /*if(St_[0]&(1<<2))snmp_bps_stat[0]=(1<<3); 							//авария по Umin
;;;369    else if(St_[0]&(1<<3))snmp_bps_stat[0]=(1<<2); 						//авария по Umax
;;;370    else if(bps[0]._av&(1<<0))snmp_bps_stat[0]=(1<<1); 						//авария по Tmax
;;;371    else if(St_[0]&(1<<5))snmp_bps_stat[0]=(1<<5); 						//заблокирован
;;;372    else if((!(St_[0]&0x3c))&&(!St&0x01)&&(!OFFBP1))snmp_bps_stat[0]=1; 		//Работает
;;;373    */
;;;374    
;;;375    snmp_bps_number[1]=2;
;;;376    snmp_bps_voltage[1]=bps[1]._Uii;
;;;377    snmp_bps_current[1]=bps[1]._Ii;
;;;378    snmp_bps_temperature[1]=bps[1]._Ti;
;;;379    snmp_bps_stat[1]=bps[1]._av;
;;;380    if(!(NUMIST>1))snmp_bps_stat[1]=0xff;												//Байт состояния БПСа.
;;;381    /*if(St_[1]&(1<<2))snmp_bps_stat[1]=(1<<3); 							//авария по Umin
;;;382    else if(St_[1]&(1<<3))snmp_bps_stat[1]=(1<<2); 						//авария по Umax
;;;383    else if(St_[1]&(1<<4))snmp_bps_stat[1]=(1<<1); 						//авария по Tmax
;;;384    else if(St_[1]&(1<<5))snmp_bps_stat[1]=(1<<5); 						//заблокирован
;;;385    else if((!(St_[1]&0x3c))&&(!St&0x01)&&(!OFFBP2))snmp_bps_stat[1]=1; 		//Работает
;;;386    */
;;;387    
;;;388    snmp_bps_number[2]=3;
;;;389    snmp_bps_voltage[2]=bps[2]._Uii;
;;;390    snmp_bps_current[2]=bps[2]._Ii;
;;;391    snmp_bps_temperature[2]=bps[2]._Ti;
;;;392    snmp_bps_stat[2]=bps[2]._av;
;;;393    if(!(NUMIST>2))snmp_bps_stat[2]=0xff;
;;;394    
;;;395    snmp_bps_number[3]=4;
;;;396    snmp_bps_voltage[3]=bps[3]._Uii;
;;;397    snmp_bps_current[3]=bps[3]._Ii;
;;;398    snmp_bps_temperature[3]=bps[3]._Ti;
;;;399    snmp_bps_stat[3]=bps[3]._av;
;;;400    if(!(NUMIST>3))snmp_bps_stat[3]=0xff;
;;;401    
;;;402    snmp_bps_number[4]=5;
;;;403    snmp_bps_voltage[4]=bps[4]._Uii;
;;;404    snmp_bps_current[4]=bps[4]._Ii;
;;;405    snmp_bps_temperature[4]=bps[4]._Ti;
;;;406    snmp_bps_stat[4]=bps[4]._av;
;;;407    if(!(NUMIST>4))snmp_bps_stat[4]=0xff;
;;;408    
;;;409    snmp_bps_number[5]=6;
;;;410    snmp_bps_voltage[5]=bps[5]._Uii;
;;;411    snmp_bps_current[5]=bps[5]._Ii;
;;;412    snmp_bps_temperature[5]=bps[5]._Ti;
;;;413    snmp_bps_stat[5]=bps[5]._av;
;;;414    if(!(NUMIST>5))snmp_bps_stat[5]=0xff;
;;;415    
;;;416    snmp_bps_number[6]=7;
;;;417    snmp_bps_voltage[6]=bps[6]._Uii;
;;;418    snmp_bps_current[6]=bps[6]._Ii;
;;;419    snmp_bps_temperature[6]=bps[6]._Ti;
;;;420    snmp_bps_stat[6]=bps[6]._av;
;;;421    if(!(NUMIST>6))snmp_bps_stat[6]=0xff;
;;;422    
;;;423    snmp_bps_number[7]=8;
;;;424    snmp_bps_voltage[7]=bps[7]._Uii;
;;;425    snmp_bps_current[7]=bps[7]._Ii;
;;;426    snmp_bps_temperature[7]=bps[7]._Ti;
;;;427    snmp_bps_stat[7]=bps[7]._av;
;;;428    if(!(NUMIST>7))snmp_bps_stat[7]=0xff;
;;;429    
;;;430    
;;;431    
;;;432    snmp_inv_number[0]=1;
;;;433    snmp_inv_voltage[0]=inv[0]._Uio;
;;;434    snmp_inv_current[0]=inv[0]._Ii;
;;;435    snmp_inv_temperature[0]=inv[0]._Ti;
;;;436    snmp_inv_stat[0]=inv[0]._flags_tm;
;;;437    
;;;438    snmp_inv_number[1]=2;
;;;439    snmp_inv_voltage[1]=inv[1]._Uio;
;;;440    snmp_inv_current[1]=inv[1]._Ii;
;;;441    snmp_inv_temperature[1]=inv[1]._Ti;
;;;442    snmp_inv_stat[1]=inv[1]._flags_tm;
;;;443    
;;;444    snmp_inv_number[2]=3;
;;;445    snmp_inv_voltage[2]=inv[2]._Uio;
;;;446    snmp_inv_current[2]=inv[2]._Ii;
;;;447    snmp_inv_temperature[2]=inv[2]._Ti;
;;;448    snmp_inv_stat[2]=inv[2]._flags_tm;
;;;449    
;;;450    
;;;451    
;;;452    
;;;453    					  
;;;454    snmp_sk_number[0]=1;
;;;455    memcpy(&snmp_sk_name[0][0],"Door",10);
;;;456    if(sk_stat[0]==ssON) snmp_sk_aktiv[0]=1;
;;;457    else snmp_sk_aktiv[0]=0;
;;;458    if(!SK_SIGN[0])snmp_sk_alarm_aktiv[0]=1;
;;;459    else snmp_sk_alarm_aktiv[0]=0;
;;;460    if(sk_av_stat[0]==sasON)	snmp_sk_alarm[0]=1;
;;;461    else                     snmp_sk_alarm[0]=0;
;;;462    
;;;463    
;;;464    snmp_sk_number[1]=2;
;;;465    memcpy(&snmp_sk_name[1][0],"Smoke",10);
;;;466    if(sk_stat[1]==ssON) snmp_sk_aktiv[1]=1;
;;;467    else snmp_sk_aktiv[1]=0;
;;;468    if(!SK_SIGN[1])snmp_sk_alarm_aktiv[1]=1;
;;;469    else snmp_sk_alarm_aktiv[1]=0;
;;;470    if(sk_av_stat[1]==sasON)	snmp_sk_alarm[1]=1;
;;;471    else                     snmp_sk_alarm[1]=0;
;;;472    
;;;473    snmp_sk_number[2]=3;
;;;474    memcpy(&snmp_sk_name[2][0],"Shock",10);
;;;475    if(sk_stat[2]==ssON) snmp_sk_aktiv[2]=1;
;;;476    else snmp_sk_aktiv[2]=0;
;;;477    if(!SK_SIGN[2])snmp_sk_alarm_aktiv[2]=1;
;;;478    else snmp_sk_alarm_aktiv[2]=0;
;;;479    if(sk_av_stat[2]==sasON)	snmp_sk_alarm[2]=1;
;;;480    else                     snmp_sk_alarm[2]=0;
;;;481    
;;;482    snmp_sk_number[3]=4;
;;;483    memcpy(&snmp_sk_name[3][0],"     ",10);
;;;484    if(sk_stat[3]==ssON) snmp_sk_aktiv[3]=1;
;;;485    else snmp_sk_aktiv[3]=0;
;;;486    if(!SK_SIGN[3])snmp_sk_alarm_aktiv[3]=1;
;;;487    else snmp_sk_alarm_aktiv[3]=0;
;;;488    if(sk_av_stat[3]==sasON)	snmp_sk_alarm[3]=1;
;;;489    else                     snmp_sk_alarm[3]=0;
;;;490    
;;;491    
;;;492    if(makb[0]._cnt>8) snmp_makb_connect_status[0]=1;
;;;493    else if(makb[0]._cnt<2) snmp_makb_connect_status[0]=0;
;;;494    if(makb[1]._cnt>8) snmp_makb_connect_status[1]=1;
;;;495    else if(makb[1]._cnt<2) snmp_makb_connect_status[1]=0;
;;;496    if(makb[2]._cnt>8) snmp_makb_connect_status[2]=1;
;;;497    else if(makb[2]._cnt<2) snmp_makb_connect_status[2]=0;
;;;498    if(makb[3]._cnt>8) snmp_makb_connect_status[3]=1;
;;;499    else if(makb[3]._cnt<2) snmp_makb_connect_status[3]=0;
;;;500    
;;;501    snmp_makb_voltage0[0]=makb[0]._Ub[0];
;;;502    snmp_makb_voltage1[0]=makb[0]._Ub[1];
;;;503    snmp_makb_voltage2[0]=makb[0]._Ub[2];
;;;504    snmp_makb_voltage3[0]=makb[0]._Ub[3];
;;;505    snmp_makb_voltage4[0]=makb[0]._Ub[4];
;;;506    snmp_makb_voltage0[1]=makb[1]._Ub[0];
;;;507    snmp_makb_voltage1[1]=makb[1]._Ub[1];
;;;508    snmp_makb_voltage2[1]=makb[1]._Ub[2];
;;;509    snmp_makb_voltage3[1]=makb[1]._Ub[3];
;;;510    snmp_makb_voltage4[1]=makb[1]._Ub[4];
;;;511    snmp_makb_voltage0[2]=makb[2]._Ub[0];
;;;512    snmp_makb_voltage1[2]=makb[2]._Ub[1];
;;;513    snmp_makb_voltage2[2]=makb[2]._Ub[2];
;;;514    snmp_makb_voltage3[2]=makb[2]._Ub[3];
;;;515    snmp_makb_voltage4[2]=makb[2]._Ub[4];
;;;516    snmp_makb_voltage0[3]=makb[3]._Ub[0];
;;;517    snmp_makb_voltage1[3]=makb[3]._Ub[1];
;;;518    snmp_makb_voltage2[3]=makb[3]._Ub[2];
;;;519    snmp_makb_voltage3[3]=makb[3]._Ub[3];
;;;520    snmp_makb_voltage4[3]=makb[3]._Ub[4];
;;;521    
;;;522    snmp_makb_temper0[0]=makb[0]._T[0];
;;;523    snmp_makb_temper1[0]=makb[0]._T[1];
;;;524    snmp_makb_temper2[0]=makb[0]._T[2];
;;;525    snmp_makb_temper3[0]=makb[0]._T[3];
;;;526    snmp_makb_temper4[0]=makb[0]._T[4];
;;;527    snmp_makb_temper0[1]=makb[1]._T[0];
;;;528    snmp_makb_temper1[1]=makb[1]._T[1];
;;;529    snmp_makb_temper2[1]=makb[1]._T[2];
;;;530    snmp_makb_temper3[1]=makb[1]._T[3];
;;;531    snmp_makb_temper4[1]=makb[1]._T[4];
;;;532    snmp_makb_temper0[2]=makb[2]._T[0];
;;;533    snmp_makb_temper1[2]=makb[2]._T[1];
;;;534    snmp_makb_temper2[2]=makb[2]._T[2];
;;;535    snmp_makb_temper3[2]=makb[2]._T[3];
;;;536    snmp_makb_temper4[2]=makb[2]._T[4];
;;;537    snmp_makb_temper0[3]=makb[3]._T[0];
;;;538    snmp_makb_temper1[3]=makb[3]._T[1];
;;;539    snmp_makb_temper2[3]=makb[3]._T[2];
;;;540    snmp_makb_temper3[3]=makb[3]._T[3];
;;;541    snmp_makb_temper4[3]=makb[3]._T[4];
;;;542    
;;;543    snmp_makb_temper0_stat[0]=makb[0]._T_nd[0];
;;;544    snmp_makb_temper1_stat[0]=makb[0]._T_nd[1];
;;;545    snmp_makb_temper2_stat[0]=makb[0]._T_nd[2];
;;;546    snmp_makb_temper3_stat[0]=makb[0]._T_nd[3];
;;;547    snmp_makb_temper4_stat[0]=makb[0]._T_nd[4];
;;;548    snmp_makb_temper0_stat[1]=makb[1]._T_nd[0];
;;;549    snmp_makb_temper1_stat[1]=makb[1]._T_nd[1];
;;;550    snmp_makb_temper2_stat[1]=makb[1]._T_nd[2];
;;;551    snmp_makb_temper3_stat[1]=makb[1]._T_nd[3];
;;;552    snmp_makb_temper4_stat[1]=makb[1]._T_nd[4];
;;;553    snmp_makb_temper0_stat[2]=makb[2]._T_nd[0];
;;;554    snmp_makb_temper1_stat[2]=makb[2]._T_nd[1];
;;;555    snmp_makb_temper2_stat[2]=makb[2]._T_nd[2];
;;;556    snmp_makb_temper3_stat[2]=makb[2]._T_nd[3];
;;;557    snmp_makb_temper4_stat[2]=makb[2]._T_nd[4];
;;;558    snmp_makb_temper0_stat[3]=makb[3]._T_nd[0];
;;;559    snmp_makb_temper1_stat[3]=makb[3]._T_nd[1];
;;;560    snmp_makb_temper2_stat[3]=makb[3]._T_nd[2];
;;;561    snmp_makb_temper3_stat[3]=makb[3]._T_nd[3];
;;;562    snmp_makb_temper4_stat[3]=makb[3]._T_nd[4];
;;;563    
;;;564    
;;;565    snmp_klimat_box_temper=t_box;
;;;566    snmp_klimat_settings_box_alarm=TBOXMAX;
;;;567    snmp_klimat_settings_vent_on=TBOXVENTON;
;;;568    snmp_klimat_settings_vent_off=TBOXVENTOFF;
;;;569    snmp_klimat_settings_warm_on=TBOXWARMON;
;;;570    snmp_klimat_settings_warm_off=TBOXWARMOFF;
;;;571    snmp_klimat_settings_load_on=TLOADENABLE;
;;;572    snmp_klimat_settings_load_off=TLOADDISABLE;
;;;573    snmp_klimat_settings_batt_on=TBATENABLE;
;;;574    snmp_klimat_settings_batt_off=TBATDISABLE;
;;;575    
;;;576    snmp_dt_ext=t_ext[0];
;;;577    snmp_dt_msan=t_ext[1];
;;;578    snmp_dt_epu=t_ext[2];
;;;579    
;;;580    /*
;;;581    snmp_bat_voltage=Ubat;
;;;582    snmp_bat_current=Ibat;
;;;583    snmp_bat_temperature=t_b;
;;;584    if(BAT_C_REAL==0x5555)
;;;585    	{
;;;586    	snmp_bat_capacity=BAT_C_NOM*10;												    11
;;;587    	}
;;;588    else
;;;589    	{
;;;590    	snmp_bat_capacity=BAT_C_REAL;
;;;591    	}
;;;592    snmp_bat_charge=zar_percent;
;;;593    snmp_bat_status=0;
;;;594    if(St&0x02)snmp_bat_status|=0x01;
;;;595    if(Ibat>0)snmp_bat_status|=0x02;
;;;596    
;;;597    
;;;598    if(spc_stat==spc_OFF) snmp_spc_stat=0;
;;;599    else if(spc_stat==spc_KE) snmp_spc_stat=1;
;;;600    else if(spc_stat==spc_VZ) snmp_spc_stat=10;
;;;601    
;;;602    
;;;603    snmp_main_bps=MAIN_IST+1;
;;;604    */
;;;605    snmp_zv_en=ZV_ON;
;;;606    snmp_alarm_auto_disable=AV_OFF_AVT;
;;;607    snmp_bat_test_time=TBAT;
;;;608    snmp_u_max=UMAX;
;;;609    //snmp_u_min=UB20-DU;
;;;610    //snmp_u_0_grad=UB0;
;;;611    //snmp_u_20_grad=UB20;
;;;612    snmp_u_sign=USIGN;
;;;613    snmp_u_min_power=UMN;
;;;614    snmp_u_withouth_bat=U0B;
;;;615    snmp_control_current=IKB;
;;;616    snmp_max_charge_current=IZMAX;
;;;617    snmp_max_current=IMAX;
;;;618    snmp_min_current=IMIN;
;;;619    //snmp_max_current_koef=KIMAX;
;;;620    //snmp_uvz=UVZ;
;;;621    snmp_powerup_psu_timeout=TZAS;
;;;622    snmp_max_temperature=TMAX;
;;;623    snmp_tsign_bat=TBATSIGN; 
;;;624    snmp_tmax_bat=TBATMAX;
;;;625    snmp_tsign_bps=TSIGN;
;;;626    snmp_tmax_bps=TMAX;
;;;627    snmp_bat_part_alarm=UBM_AV; 
;;;628    snmp_power_cnt_adress=POWER_CNT_ADRESS;
;;;629    
;;;630    for(i=0;i<12;i++)
;;;631    	{
;;;632    	snmp_avt_number[i]=i+1;
;;;633    	if(avt_stat[i]==avtOFF)snmp_avt_stat[i]=0;
;;;634    	else snmp_avt_stat[i]=1;
;;;635    	}
;;;636    
;;;637    snmp_dt_number[0]=1;
;;;638    snmp_dt_number[1]=2;
;;;639    snmp_dt_number[2]=3;
;;;640    //snmp_dt_number[3]=4;
;;;641    snmp_dt_temper[0]=t_ext[0];
;;;642    snmp_dt_temper[1]=t_ext[1];
;;;643    snmp_dt_temper[2]=t_ext[2];
;;;644    //snmp_dt_temper[3]=t_ext[3];
;;;645    snmp_dt_error[0]=ND_EXT[0];
;;;646    if(NUMDT<1)snmp_dt_error[0]=0xff;
;;;647    snmp_dt_error[1]=ND_EXT[1];
;;;648    if(NUMDT<2)snmp_dt_error[0]=0xff;
;;;649    snmp_dt_error[2]=ND_EXT[2];
;;;650    if(NUMDT<3)snmp_dt_error[0]=0xff;
;;;651    //snmp_dt_error[3]=ND_EXT[3];
;;;652    if(NUMDT<4)snmp_dt_error[0]=0xff;
;;;653    
;;;654    /*
;;;655    //Литиевые батареи
;;;656    snmp_lakb_number[0]=1;								//Номер ЛАКБ
;;;657    snmp_lakb_number[1]=2;								//Номер ЛАКБ
;;;658    snmp_lakb_voltage[0]=lakb[0]._tot_bat_volt;				//Напряжение ЛАКБ
;;;659    snmp_lakb_voltage[1]=lakb[1]._tot_bat_volt;				//Напряжение ЛАКБ
;;;660    snmp_lakb_max_cell_voltage[0]=lakb[0]._max_cell_volt;		//Максимальное напряжение ячейки ЛАКБ
;;;661    snmp_lakb_max_cell_voltage[1]=lakb[1]._max_cell_volt;		//Максимальное напряжение ячейки ЛАКБ
;;;662    snmp_lakb_min_cell_voltage[0]=lakb[0]._min_cell_volt;		//Минимальное напряжение ячейки ЛАКБ
;;;663    snmp_lakb_min_cell_voltage[1]=lakb[1]._min_cell_volt;		//Минимальное напряжение ячейки ЛАКБ
;;;664    snmp_lakb_max_cell_temperature[0]=lakb[0]._max_cell_temp;	//Максимальная температура ячейки ЛАКБ
;;;665    snmp_lakb_max_cell_temperature[1]=lakb[1]._max_cell_temp;	//Максимальная температура ячейки ЛАКБ
;;;666    snmp_lakb_min_cell_temperature[0]=lakb[0]._min_cell_temp;	//Минимальная температура ячейки ЛАКБ
;;;667    snmp_lakb_min_cell_temperature[1]=lakb[1]._min_cell_temp;	//Минимальная температура ячейки ЛАКБ
;;;668    snmp_lakb_ch_curr[0]=lakb[0]._ch_curr;					//Ток заряда ЛАКБ
;;;669    snmp_lakb_ch_curr[1]=lakb[1]._ch_curr;					//Ток заряда ЛАКБ
;;;670    snmp_lakb_dsch_curr[0]=lakb[0]._dsch_curr;				//Ток разряда ЛАКБ
;;;671    snmp_lakb_dsch_curr[1]=lakb[1]._dsch_curr;				//Ток разряда ЛАКБ
;;;672    snmp_lakb_rat_cap[0]=lakb[0]._rat_cap;					//Номинальная емкость ЛАКБ
;;;673    snmp_lakb_rat_cap[1]=lakb[1]._rat_cap;					//Номинальная емкость ЛАКБ
;;;674    snmp_lakb_soh[0]=lakb[0]._s_o_h;						//Остаточная емкость ЛАКБ
;;;675    snmp_lakb_soh[1]=lakb[1]._s_o_h;						//Остаточная емкость ЛАКБ
;;;676    snmp_lakb_soc[0]=lakb[0]._s_o_c;						//Заряд ЛАКБ
;;;677    snmp_lakb_soc[1]=lakb[1]._s_o_c;						//Заряд ЛАКБ
;;;678    snmp_lakb_cclv[0]=lakb[0]._c_c_l_v;  					//Максимальный ток заряда ЛАКБ
;;;679    snmp_lakb_cclv[1]=lakb[1]._c_c_l_v;  					//Максимальный ток заряда ЛАКБ
;;;680    snmp_lakb_rbt[0]=lakb[0]._r_b_t;						//Оцениваемое время работы ЛАКБ
;;;681    snmp_lakb_rbt[1]=lakb[1]._r_b_t;						//Оцениваемое время работы ЛАКБ
;;;682    snmp_lakb_flags1[0]=lakb[0]._flags1;					//Первый флаг состояния ЛАКБ
;;;683    snmp_lakb_flags1[1]=lakb[1]._flags1;					//Первый флаг состояния ЛАКБ
;;;684    snmp_lakb_flags2[0]=lakb[0]._flags2;					//Второй флаг состояния ЛАКБ
;;;685    snmp_lakb_flags2[1]=lakb[1]._flags2;					//Второй флаг состояния ЛАКБ */
;;;686    
;;;687    //Литиевые батареи
;;;688    snmp_lakb_number[0]=1;								//Номер ЛАКБ
;;;689    snmp_lakb_number[1]=2;								//Номер ЛАКБ
;;;690    snmp_lakb_number[2]=3;								//Номер ЛАКБ
;;;691    snmp_lakb_number[3]=4;								//Номер ЛАКБ
;;;692    snmp_lakb_number[4]=5;								//Номер ЛАКБ
;;;693    snmp_lakb_number[5]=6;								//Номер ЛАКБ
;;;694    snmp_lakb_number[6]=7;								//Номер ЛАКБ
;;;695    
;;;696    for (i=0;i<3;i++)
;;;697    	{
;;;698    	snmp_lakb_voltage[i]=lakb[i]._tot_bat_volt;				//Напряжение ЛАКБ
;;;699    	snmp_lakb_max_cell_voltage[i]=lakb[i]._max_cell_volt;		//Максимальное напряжение ячейки ЛАКБ
;;;700    	snmp_lakb_min_cell_voltage[i]=lakb[i]._min_cell_volt;		//Минимальное напряжение ячейки ЛАКБ
;;;701    	snmp_lakb_max_cell_temperature[i]=lakb[i]._max_cell_temp;	//Максимальная температура ячейки ЛАКБ
;;;702    	//snmp_lakb_max_cell_temperature[1]=lakb[1]._max_cell_temp;	//Максимальная температура ячейки ЛАКБ
;;;703    	snmp_lakb_min_cell_temperature[i]=lakb[i]._min_cell_temp;	//Минимальная температура ячейки ЛАКБ
;;;704    	//snmp_lakb_min_cell_temperature[1]=lakb[1]._min_cell_temp;	//Минимальная температура ячейки ЛАКБ
;;;705    	snmp_lakb_ch_curr[i]=lakb[i]._ch_curr;					//Ток заряда ЛАКБ
;;;706    	//snmp_lakb_ch_curr[1]=lakb[1]._ch_curr;					//Ток заряда ЛАКБ
;;;707    	snmp_lakb_dsch_curr[i]=lakb[i]._dsch_curr;				//Ток разряда ЛАКБ
;;;708    	//snmp_lakb_dsch_curr[1]=lakb[1]._dsch_curr;				//Ток разряда ЛАКБ
;;;709    	snmp_lakb_rat_cap[i]=lakb[i]._rat_cap;					//Номинальная емкость ЛАКБ
;;;710    	//snmp_lakb_rat_cap[1]=lakb[1]._rat_cap;					//Номинальная емкость ЛАКБ
;;;711    	snmp_lakb_soh[i]=lakb[i]._s_o_h;						//Остаточная емкость ЛАКБ
;;;712    	//snmp_lakb_soh[1]=lakb[1]._s_o_h;						//Остаточная емкость ЛАКБ
;;;713    	snmp_lakb_soc[i]=lakb[i]._s_o_c;						//Заряд ЛАКБ
;;;714    	//snmp_lakb_soc[1]=lakb[1]._s_o_c;						//Заряд ЛАКБ
;;;715    	snmp_lakb_cclv[i]=lakb[i]._c_c_l_v;  					//Максимальный ток заряда ЛАКБ
;;;716    	//snmp_lakb_cclv[1]=lakb[1]._c_c_l_v;  					//Максимальный ток заряда ЛАКБ
;;;717    	snmp_lakb_rbt[i]=lakb[i]._r_b_t;						//Оцениваемое время работы ЛАКБ
;;;718    	//snmp_lakb_rbt[1]=lakb[1]._r_b_t;						//Оцениваемое время работы ЛАКБ
;;;719    	snmp_lakb_flags1[i]=lakb[i]._flags1;					//Первый флаг состояния ЛАКБ
;;;720    	//snmp_lakb_flags1[1]=lakb[1]._flags1;					//Первый флаг состояния ЛАКБ
;;;721    	snmp_lakb_flags2[i]=lakb[i]._flags2;					//Второй флаг состояния ЛАКБ
;;;722    	//snmp_lakb_flags2[1]=lakb[1]._flags2;					//Второй флаг состояния ЛАКБ
;;;723    
;;;724    	snmp_lakb_cell_temperature_1[i]= lakb[i]._cell_temp_1;
;;;725    	snmp_lakb_cell_temperature_2[i]= lakb[i]._cell_temp_2;
;;;726    	snmp_lakb_cell_temperature_3[i]= lakb[i]._cell_temp_3;
;;;727    	snmp_lakb_cell_temperature_4[i]= lakb[i]._cell_temp_4;
;;;728    	snmp_lakb_cell_temperature_ambient[i]=lakb[i]._cell_temp_ambient;
;;;729    	snmp_lakb_cell_temperature_power[i]=lakb[i]._cell_temp_power;
;;;730    	}
;;;731    
;;;732    for (i=0;i<7;i++)
;;;733    {
;;;734    /*
;;;735    snmp_lakb_damp1[i][0]=ABCDEF[(lakb_damp[i][0])>>4];			//Дамп
;;;736    snmp_lakb_damp1[i][1]=ABCDEF[(lakb_damp[i][0])&0x0f];			//Дамп
;;;737    snmp_lakb_damp1[i][2]=' ';
;;;738    snmp_lakb_damp1[i][3]=ABCDEF[(lakb_damp[i][1])>>4];			//Дамп
;;;739    snmp_lakb_damp1[i][4]=ABCDEF[(lakb_damp[i][1])&0x0f];			//Дамп
;;;740    snmp_lakb_damp1[i][5]=' ';
;;;741    snmp_lakb_damp1[i][6]=ABCDEF[(lakb_damp[i][2])>>4];			//Дамп
;;;742    snmp_lakb_damp1[i][7]=ABCDEF[(lakb_damp[i][2])&0x0f];			//Дамп
;;;743    snmp_lakb_damp1[i][8]=' ';
;;;744    snmp_lakb_damp1[i][9]=ABCDEF[(lakb_damp[i][3])>>4];			//Дамп
;;;745    snmp_lakb_damp1[i][10]=ABCDEF[(lakb_damp[i][3])&0x0f];			//Дамп
;;;746    snmp_lakb_damp1[i][11]=' ';
;;;747    snmp_lakb_damp1[i][12]=ABCDEF[(lakb_damp[i][4])>>4];			//Дамп
;;;748    snmp_lakb_damp1[i][13]=ABCDEF[(lakb_damp[i][4])&0x0f];			//Дамп
;;;749    snmp_lakb_damp1[i][14]=' '; 
;;;750    snmp_lakb_damp1[i][15]=ABCDEF[(lakb_damp[i][5])>>4];			//Дамп
;;;751    snmp_lakb_damp1[i][16]=ABCDEF[(lakb_damp[i][5])&0x0f];			//Дамп
;;;752    snmp_lakb_damp1[i][17]=' ';
;;;753    snmp_lakb_damp1[i][18]=ABCDEF[(lakb_damp[i][6])>>4];			//Дамп
;;;754    snmp_lakb_damp1[i][19]=ABCDEF[(lakb_damp[i][6])&0x0f];			//Дамп
;;;755    snmp_lakb_damp1[i][20]=' ';
;;;756    snmp_lakb_damp1[i][21]=ABCDEF[(lakb_damp[i][7])>>4];			//Дамп
;;;757    snmp_lakb_damp1[i][22]=ABCDEF[(lakb_damp[i][7])&0x0f];			//Дамп
;;;758    snmp_lakb_damp1[i][23]=' ';
;;;759    snmp_lakb_damp1[i][24]=ABCDEF[(lakb_damp[i][8])>>4];			//Дамп
;;;760    snmp_lakb_damp1[i][25]=ABCDEF[(lakb_damp[i][8])&0x0f];			//Дамп
;;;761    snmp_lakb_damp1[i][26]=' ';
;;;762    snmp_lakb_damp1[i][27]=ABCDEF[(lakb_damp[i][9])>>4];			//Дамп
;;;763    snmp_lakb_damp1[i][28]=ABCDEF[(lakb_damp[i][9])&0x0f];			//Дамп
;;;764    snmp_lakb_damp1[i][29]=0; 
;;;765    
;;;766    snmp_lakb_damp1[i][30]=ABCDEF[(lakb_damp[i][10])>>4];			//Дамп
;;;767    snmp_lakb_damp1[i][31]=ABCDEF[(lakb_damp[i][10])&0x0f];			//Дамп
;;;768    snmp_lakb_damp1[i][32]=' ';
;;;769    snmp_lakb_damp1[i][33]=ABCDEF[(lakb_damp[i][11])>>4];			//Дамп
;;;770    snmp_lakb_damp1[i][34]=ABCDEF[(lakb_damp[i][11])&0x0f];			//Дамп
;;;771    snmp_lakb_damp1[i][35]=' ';
;;;772    snmp_lakb_damp1[i][36]=ABCDEF[(lakb_damp[i][12])>>4];			//Дамп
;;;773    snmp_lakb_damp1[i][37]=ABCDEF[(lakb_damp[i][12])&0x0f];			//Дамп
;;;774    snmp_lakb_damp1[i][38]=' ';
;;;775    snmp_lakb_damp1[i][39]=ABCDEF[(lakb_damp[i][13])>>4];			//Дамп
;;;776    snmp_lakb_damp1[i][40]=ABCDEF[(lakb_damp[i][13])&0x0f];			//Дамп
;;;777    snmp_lakb_damp1[i][41]=' ';
;;;778    snmp_lakb_damp1[i][42]=ABCDEF[(lakb_damp[i][14])>>4];			//Дамп
;;;779    snmp_lakb_damp1[i][43]=ABCDEF[(lakb_damp[i][14])&0x0f];			//Дамп
;;;780    snmp_lakb_damp1[i][44]=' '; 
;;;781    snmp_lakb_damp1[i][45]=ABCDEF[(lakb_damp[i][15])>>4];			//Дамп
;;;782    snmp_lakb_damp1[i][46]=ABCDEF[(lakb_damp[i][15])&0x0f];			//Дамп
;;;783    snmp_lakb_damp1[i][47]=' ';
;;;784    snmp_lakb_damp1[i][48]=ABCDEF[(lakb_damp[i][16])>>4];			//Дамп
;;;785    snmp_lakb_damp1[i][49]=ABCDEF[(lakb_damp[i][16])&0x0f];			//Дамп
;;;786    snmp_lakb_damp1[i][50]=' ';
;;;787    snmp_lakb_damp1[i][51]=ABCDEF[(lakb_damp[i][17])>>4];			//Дамп
;;;788    snmp_lakb_damp1[i][52]=ABCDEF[(lakb_damp[i][17])&0x0f];			//Дамп
;;;789    snmp_lakb_damp1[i][53]=' ';
;;;790    snmp_lakb_damp1[i][54]=ABCDEF[(lakb_damp[i][18])>>4];			//Дамп
;;;791    snmp_lakb_damp1[i][55]=ABCDEF[(lakb_damp[i][18])&0x0f];			//Дамп
;;;792    snmp_lakb_damp1[i][56]=' ';
;;;793    snmp_lakb_damp1[i][57]=ABCDEF[(lakb_damp[i][19])>>4];			//Дамп
;;;794    snmp_lakb_damp1[i][58]=ABCDEF[(lakb_damp[i][19])&0x0f];			//Дамп
;;;795    snmp_lakb_damp1[i][59]=0; 
;;;796    
;;;797    
;;;798    snmp_lakb_damp1[i][60]=ABCDEF[(lakb_damp[i][20])>>4];			//Дамп
;;;799    snmp_lakb_damp1[i][61]=ABCDEF[(lakb_damp[i][20])&0x0f];			//Дамп
;;;800    snmp_lakb_damp1[i][62]=' ';
;;;801    snmp_lakb_damp1[i][63]=ABCDEF[(lakb_damp[i][21])>>4];			//Дамп
;;;802    snmp_lakb_damp1[i][64]=ABCDEF[(lakb_damp[i][21])&0x0f];			//Дамп
;;;803    snmp_lakb_damp1[i][65]=' ';
;;;804    snmp_lakb_damp1[i][66]=ABCDEF[(lakb_damp[i][22])>>4];			//Дамп
;;;805    snmp_lakb_damp1[i][67]=ABCDEF[(lakb_damp[i][22])&0x0f];			//Дамп
;;;806    snmp_lakb_damp1[i][68]=' ';
;;;807    snmp_lakb_damp1[i][69]=ABCDEF[(lakb_damp[i][23])>>4];			//Дамп
;;;808    snmp_lakb_damp1[i][70]=ABCDEF[(lakb_damp[i][23])&0x0f];			//Дамп
;;;809    snmp_lakb_damp1[i][71]=' ';
;;;810    snmp_lakb_damp1[i][72]=ABCDEF[(lakb_damp[i][24])>>4];			//Дамп
;;;811    snmp_lakb_damp1[i][73]=ABCDEF[(lakb_damp[i][24])&0x0f];			//Дамп
;;;812    snmp_lakb_damp1[i][74]=' '; 
;;;813    snmp_lakb_damp1[i][75]=ABCDEF[(lakb_damp[i][25])>>4];			//Дамп
;;;814    snmp_lakb_damp1[i][76]=ABCDEF[(lakb_damp[i][25])&0x0f];			//Дамп
;;;815    snmp_lakb_damp1[i][77]=' ';
;;;816    snmp_lakb_damp1[i][78]=ABCDEF[(lakb_damp[i][26])>>4];			//Дамп
;;;817    snmp_lakb_damp1[i][79]=ABCDEF[(lakb_damp[i][26])&0x0f];			//Дамп
;;;818    snmp_lakb_damp1[i][80]=' ';
;;;819    snmp_lakb_damp1[i][81]=ABCDEF[(lakb_damp[i][27])>>4];			//Дамп
;;;820    snmp_lakb_damp1[i][82]=ABCDEF[(lakb_damp[i][27])&0x0f];			//Дамп
;;;821    snmp_lakb_damp1[i][83]=' ';
;;;822    snmp_lakb_damp1[i][84]=ABCDEF[(lakb_damp[i][28])>>4];			//Дамп
;;;823    snmp_lakb_damp1[i][85]=ABCDEF[(lakb_damp[i][28])&0x0f];			//Дамп
;;;824    snmp_lakb_damp1[i][86]=' ';
;;;825    snmp_lakb_damp1[i][87]=ABCDEF[(lakb_damp[i][29])>>4];			//Дамп
;;;826    snmp_lakb_damp1[i][88]=ABCDEF[(lakb_damp[i][29])&0x0f];			//Дамп
;;;827    snmp_lakb_damp1[i][89]=0;
;;;828    
;;;829    
;;;830    snmp_lakb_damp1[i][90]=ABCDEF[(lakb_damp[i][30])>>4];			//Дамп
;;;831    snmp_lakb_damp1[i][91]=ABCDEF[(lakb_damp[i][30])&0x0f];			//Дамп
;;;832    snmp_lakb_damp1[i][92]=' ';
;;;833    snmp_lakb_damp1[i][93]=ABCDEF[(lakb_damp[i][31])>>4];			//Дамп
;;;834    snmp_lakb_damp1[i][94]=ABCDEF[(lakb_damp[i][31])&0x0f];			//Дамп
;;;835    snmp_lakb_damp1[i][95]=' ';
;;;836    snmp_lakb_damp1[i][96]=ABCDEF[(lakb_damp[i][32])>>4];			//Дамп
;;;837    snmp_lakb_damp1[i][97]=ABCDEF[(lakb_damp[i][32])&0x0f];			//Дамп
;;;838    snmp_lakb_damp1[i][98]=' ';
;;;839    snmp_lakb_damp1[i][99]=ABCDEF[(lakb_damp[i][33])>>4];			//Дамп
;;;840    snmp_lakb_damp1[i][100]=ABCDEF[(lakb_damp[i][33])&0x0f];			//Дамп
;;;841    snmp_lakb_damp1[i][101]=' ';
;;;842    snmp_lakb_damp1[i][102]=ABCDEF[(lakb_damp[i][34])>>4];			//Дамп
;;;843    snmp_lakb_damp1[i][103]=ABCDEF[(lakb_damp[i][34])&0x0f];			//Дамп
;;;844    snmp_lakb_damp1[i][104]=' '; 
;;;845    snmp_lakb_damp1[i][105]=ABCDEF[(lakb_damp[i][35])>>4];			//Дамп
;;;846    snmp_lakb_damp1[i][106]=ABCDEF[(lakb_damp[i][35])&0x0f];			//Дамп
;;;847    snmp_lakb_damp1[i][107]=' ';
;;;848    snmp_lakb_damp1[i][108]=ABCDEF[(lakb_damp[i][36])>>4];			//Дамп
;;;849    snmp_lakb_damp1[i][109]=ABCDEF[(lakb_damp[i][36])&0x0f];			//Дамп
;;;850    snmp_lakb_damp1[i][110]=' ';
;;;851    snmp_lakb_damp1[i][111]=ABCDEF[(lakb_damp[i][37])>>4];			//Дамп
;;;852    snmp_lakb_damp1[i][112]=ABCDEF[(lakb_damp[i][37])&0x0f];			//Дамп
;;;853    snmp_lakb_damp1[i][113]=' ';
;;;854    snmp_lakb_damp1[i][114]=ABCDEF[(lakb_damp[i][38])>>4];			//Дамп
;;;855    snmp_lakb_damp1[i][115]=ABCDEF[(lakb_damp[i][38])&0x0f];			//Дамп
;;;856    snmp_lakb_damp1[i][116]=' ';
;;;857    snmp_lakb_damp1[i][117]=ABCDEF[(lakb_damp[i][39])>>4];			//Дамп
;;;858    snmp_lakb_damp1[i][118]=ABCDEF[(lakb_damp[i][39])&0x0f];			//Дамп
;;;859    snmp_lakb_damp1[i][119]=0; 
;;;860     
;;;861    
;;;862    snmp_lakb_damp1[i][120]=ABCDEF[(lakb_damp[i][40])>>4];			//Дамп
;;;863    snmp_lakb_damp1[i][121]=ABCDEF[(lakb_damp[i][40])&0x0f];			//Дамп
;;;864    snmp_lakb_damp1[i][122]=' ';
;;;865    snmp_lakb_damp1[i][123]=ABCDEF[(lakb_damp[i][41])>>4];			//Дамп
;;;866    snmp_lakb_damp1[i][124]=ABCDEF[(lakb_damp[i][41])&0x0f];			//Дамп
;;;867    snmp_lakb_damp1[i][125]=' ';
;;;868    snmp_lakb_damp1[i][126]=ABCDEF[(lakb_damp[i][42])>>4];			//Дамп
;;;869    snmp_lakb_damp1[i][127]=ABCDEF[(lakb_damp[i][42])&0x0f];			//Дамп
;;;870    snmp_lakb_damp1[i][128]=' ';
;;;871    snmp_lakb_damp1[i][129]=ABCDEF[(lakb_damp[i][43])>>4];			//Дамп
;;;872    snmp_lakb_damp1[i][130]=ABCDEF[(lakb_damp[i][43])&0x0f];			//Дамп
;;;873    snmp_lakb_damp1[i][131]=' ';
;;;874    snmp_lakb_damp1[i][132]=ABCDEF[(lakb_damp[i][44])>>4];			//Дамп
;;;875    snmp_lakb_damp1[i][133]=ABCDEF[(lakb_damp[i][44])&0x0f];			//Дамп
;;;876    snmp_lakb_damp1[i][134]=' '; 
;;;877    snmp_lakb_damp1[i][135]=ABCDEF[(lakb_damp[i][45])>>4];			//Дамп
;;;878    snmp_lakb_damp1[i][136]=ABCDEF[(lakb_damp[i][45])&0x0f];			//Дамп
;;;879    snmp_lakb_damp1[i][137]=' ';
;;;880    snmp_lakb_damp1[i][138]=ABCDEF[(lakb_damp[i][46])>>4];			//Дамп
;;;881    snmp_lakb_damp1[i][139]=ABCDEF[(lakb_damp[i][46])&0x0f];			//Дамп
;;;882    snmp_lakb_damp1[i][140]=' ';
;;;883    snmp_lakb_damp1[i][141]=ABCDEF[(lakb_damp[i][47])>>4];			//Дамп
;;;884    snmp_lakb_damp1[i][142]=ABCDEF[(lakb_damp[i][47])&0x0f];			//Дамп
;;;885    snmp_lakb_damp1[i][143]=' ';
;;;886    snmp_lakb_damp1[i][144]=ABCDEF[(lakb_damp[i][48])>>4];			//Дамп
;;;887    snmp_lakb_damp1[i][145]=ABCDEF[(lakb_damp[i][48])&0x0f];			//Дамп
;;;888    snmp_lakb_damp1[i][146]=' ';
;;;889    snmp_lakb_damp1[i][147]=ABCDEF[(lakb_damp[i][49])>>4];			//Дамп
;;;890    snmp_lakb_damp1[i][148]=ABCDEF[(lakb_damp[i][49])&0x0f];			//Дамп
;;;891    snmp_lakb_damp1[i][149]=0;  */
;;;892    }
;;;893    
;;;894    #ifdef UKU_TELECORE2017
;;;895    snmp_warm_sign=0;
;;;896    if(TELECORE2017_KLIMAT_WARM_SIGNAL==0) snmp_warm_sign=2;
;;;897    else if(TELECORE2017_KLIMAT_WARM_SIGNAL==1) snmp_warm_sign=1;
;;;898    snmp_cool_sign=0;
;;;899    if(TELECORE2017_KLIMAT_VENT_SIGNAL==0) snmp_cool_sign=2;
;;;900    else if(TELECORE2017_KLIMAT_VENT_SIGNAL==1) snmp_cool_sign=1;
;;;901    snmp_warm_on_temper=(signed char)TELECORE2017_KLIMAT_WARM_ON; 
;;;902    snmp_warm_off_temper=(signed char)TELECORE2017_KLIMAT_WARM_OFF;
;;;903    snmp_warm_q=(signed char)TELECORE2017_KLIMAT_CAP;	
;;;904    snmp_cool_20_temper=(signed char)TELECORE2017_KLIMAT_VENT_ON20;
;;;905    snmp_cool_40_temper=(signed char)TELECORE2017_KLIMAT_VENT_ON40;
;;;906    snmp_cool_60_temper=(signed char)TELECORE2017_KLIMAT_VENT_ON60;
;;;907    snmp_cool_80_temper=(signed char)TELECORE2017_KLIMAT_VENT_ON80;
;;;908    snmp_cool_100_temper=(signed char)TELECORE2017_KLIMAT_VENT_ON100;
;;;909    snmp_cool_20_dtemper=(signed char)TELECORE2017_KLIMAT_DVENT_ON20;
;;;910    snmp_cool_40_dtemper=(signed char)TELECORE2017_KLIMAT_DVENT_ON40;
;;;911    snmp_cool_60_dtemper=(signed char)TELECORE2017_KLIMAT_DVENT_ON60;
;;;912    snmp_cool_80_dtemper=(signed char)TELECORE2017_KLIMAT_DVENT_ON80;
;;;913    snmp_cool_100_dtemper=(signed char)TELECORE2017_KLIMAT_DVENT_ON100;
;;;914    snmp_warm_stat=0;
;;;915    if(warm_stat_k==wsON) snmp_warm_stat=1;
;;;916    #endif
;;;917    }
;;;918    //-----------------------------------------------
                          ENDP

000012  0000              DCW      0x0000
                  |L12.20|
                          DCD      ||.data||

                          AREA ||area_number.13||, CODE, READONLY, ALIGN=2

                          EXPORTAS ||area_number.13||, ||.text||
                  snmp_klimat_settings_warm_off_write PROC
;;;259    //-----------------------------------------------
;;;260    void snmp_data (void) 
000000  2801              CMP      r0,#1
;;;261    {
000002  d105              BNE      |L13.16|
;;;262    char i;
;;;263    
;;;264    snmp_mains_power_voltage=net_U;
000004  4803              LDR      r0,|L13.20|
000006  f9b01074          LDRSH    r1,[r0,#0x74]  ; snmp_klimat_settings_warm_off
00000a  20fa              MOVS     r0,#0xfa
;;;265    #ifdef UKU_220_IPS_TERMOKOMPENSAT
;;;266    snmp_mains_power_frequency=net_F3;
00000c  f7ffbffe          B.W      lc640_write_int
                  |L13.16|
000010  4770              BX       lr
;;;267    #else
;;;268    snmp_mains_power_frequency=net_F;
;;;269    #endif
;;;270    snmp_mains_power_voltage_phaseA=net_Ua;
;;;271    snmp_mains_power_voltage_phaseB=net_Ub;
;;;272    snmp_mains_power_voltage_phaseC=net_Uc;
;;;273    
;;;274    /*
;;;275    snmp_mains_power_status=0; 
;;;276    #if(UKU_VERSION==900)
;;;277    snmp_mains_power_status=2;
;;;278    #endif
;;;279    if(St&0x01)snmp_mains_power_status|=0x01;
;;;280    if(St&0x01)snmp_mains_power_alarm=1;
;;;281    
;;;282    
;;;283    
;;;284    
;;;285    
;;;286    
;;;287    for(i=0;i<snmp_numofevents;i++)event2snmp(i);
;;;288    //snmp_bpsnumber[0]=1;
;;;289    //snmp_bpsnumber[1]=2;
;;;290    
;;;291    snmp_sernum=AUSW_MAIN_NUMBER;
;;;292    snmp_sernum_lsb=0x1122;
;;;293    snmp_sernum_msb=0x3344;
;;;294    snmp_device_code=AUSW_MAIN;
;;;295    
;;;296    //memcpy(snmp_location,"lkhg;la",);
;;;297    
;;;298    
;;;299    snmp_numofbat=1;
;;;300    
;;;301    */
;;;302    
;;;303    snmp_load_voltage=load_U;
;;;304    snmp_load_current=load_I;
;;;305    snmp_numofbat=NUMBAT;
;;;306    snmp_numofbps=NUMIST;
;;;307    snmp_numofinv=NUMINV;
;;;308    snmp_numofavt=NUMAVT;
;;;309    snmp_numofdt=NUMDT;
;;;310    snmp_numofsk=NUMSK;
;;;311    snmp_numofevents=lc640_read_int(CNT_EVENT_LOG);
;;;312    
;;;313    snmp_energy_vvod_phase_a=Uvv_eb2[0];
;;;314    snmp_energy_vvod_phase_b=Uvv_eb2[1];
;;;315    snmp_energy_vvod_phase_c=Uvv_eb2[2];
;;;316    snmp_energy_pes_phase_a=Upes_eb2[0];
;;;317    snmp_energy_pes_phase_b=Upes_eb2[1];
;;;318    snmp_energy_pes_phase_c=Upes_eb2[2];
;;;319    
;;;320    #ifdef UKU_KONTUR
;;;321    snmp_energy_vvod_phase_a=Uvv0;
;;;322    snmp_energy_pes_phase_a=Uvv[1];
;;;323    #endif
;;;324    
;;;325    snmp_energy_total_energy=power_summary;
;;;326    snmp_energy_current_energy=power_current;
;;;327    snmp_energy_input_voltage=net_U;
;;;328    
;;;329    snmp_bat_number[0]=1;
;;;330    snmp_bat_voltage[0]=bat[0]._Ub;
;;;331    snmp_bat_part_voltage[0]=bat[0]._Ubm;
;;;332    snmp_bat_current[0]=bat[0]._Ib;
;;;333    
;;;334    #ifdef UKU_220_IPS_TERMOKOMPENSAT
;;;335    if(((AUSW_MAIN==22063)||(AUSW_MAIN==22023))&&(bps[8]._device==dIBAT_METR))
;;;336    	{
;;;337    	snmp_bat_current[0]=Ib_ips_termokompensat;
;;;338    	}
;;;339    #endif
;;;340    
;;;341    snmp_bat_temperature[0]=bat[0]._Tb;
;;;342    if(BAT_C_REAL[0]==0x5555)snmp_bat_capacity[0]=BAT_C_NOM[0];
;;;343    else snmp_bat_capacity[0]=BAT_C_REAL[0];
;;;344    snmp_bat_charge[0]=bat[0]._zar;
;;;345    snmp_bat_status[0]=bat[0]._av;
;;;346    if(BAT_IS_ON[0]!=bisON)snmp_bat_status[0]=0xff;
;;;347    
;;;348    snmp_bat_number[1]=2;
;;;349    snmp_bat_voltage[1]=bat[1]._Ub;
;;;350    snmp_bat_part_voltage[1]=bat[1]._Ubm;
;;;351    snmp_bat_current[1]=bat[1]._Ib;
;;;352    snmp_bat_temperature[1]=bat[1]._Tb;
;;;353    if(BAT_C_REAL[1]==0x5555)snmp_bat_capacity[1]=BAT_C_NOM[1];
;;;354    else snmp_bat_capacity[1]=BAT_C_REAL[1];
;;;355    snmp_bat_charge[1]=bat[1]._zar;
;;;356    snmp_bat_status[1]=bat[1]._av;
;;;357    if(BAT_IS_ON[1]!=bisON)snmp_bat_status[1]=0xff;
;;;358    
;;;359    
;;;360    
;;;361    snmp_bps_number[0]=1;
;;;362    snmp_bps_voltage[0]=bps[0]._Uii;
;;;363    snmp_bps_current[0]=bps[0]._Ii;
;;;364    snmp_bps_temperature[0]=bps[0]._Ti;
;;;365    snmp_bps_stat[0]=bps[0]._av;
;;;366    if(!(NUMIST>0))snmp_bps_stat[0]=0xff;												//Байт состояния БПСа.
;;;367    
;;;368    /*if(St_[0]&(1<<2))snmp_bps_stat[0]=(1<<3); 							//авария по Umin
;;;369    else if(St_[0]&(1<<3))snmp_bps_stat[0]=(1<<2); 						//авария по Umax
;;;370    else if(bps[0]._av&(1<<0))snmp_bps_stat[0]=(1<<1); 						//авария по Tmax
;;;371    else if(St_[0]&(1<<5))snmp_bps_stat[0]=(1<<5); 						//заблокирован
;;;372    else if((!(St_[0]&0x3c))&&(!St&0x01)&&(!OFFBP1))snmp_bps_stat[0]=1; 		//Работает
;;;373    */
;;;374    
;;;375    snmp_bps_number[1]=2;
;;;376    snmp_bps_voltage[1]=bps[1]._Uii;
;;;377    snmp_bps_current[1]=bps[1]._Ii;
;;;378    snmp_bps_temperature[1]=bps[1]._Ti;
;;;379    snmp_bps_stat[1]=bps[1]._av;
;;;380    if(!(NUMIST>1))snmp_bps_stat[1]=0xff;												//Байт состояния БПСа.
;;;381    /*if(St_[1]&(1<<2))snmp_bps_stat[1]=(1<<3); 							//авария по Umin
;;;382    else if(St_[1]&(1<<3))snmp_bps_stat[1]=(1<<2); 						//авария по Umax
;;;383    else if(St_[1]&(1<<4))snmp_bps_stat[1]=(1<<1); 						//авария по Tmax
;;;384    else if(St_[1]&(1<<5))snmp_bps_stat[1]=(1<<5); 						//заблокирован
;;;385    else if((!(St_[1]&0x3c))&&(!St&0x01)&&(!OFFBP2))snmp_bps_stat[1]=1; 		//Работает
;;;386    */
;;;387    
;;;388    snmp_bps_number[2]=3;
;;;389    snmp_bps_voltage[2]=bps[2]._Uii;
;;;390    snmp_bps_current[2]=bps[2]._Ii;
;;;391    snmp_bps_temperature[2]=bps[2]._Ti;
;;;392    snmp_bps_stat[2]=bps[2]._av;
;;;393    if(!(NUMIST>2))snmp_bps_stat[2]=0xff;
;;;394    
;;;395    snmp_bps_number[3]=4;
;;;396    snmp_bps_voltage[3]=bps[3]._Uii;
;;;397    snmp_bps_current[3]=bps[3]._Ii;
;;;398    snmp_bps_temperature[3]=bps[3]._Ti;
;;;399    snmp_bps_stat[3]=bps[3]._av;
;;;400    if(!(NUMIST>3))snmp_bps_stat[3]=0xff;
;;;401    
;;;402    snmp_bps_number[4]=5;
;;;403    snmp_bps_voltage[4]=bps[4]._Uii;
;;;404    snmp_bps_current[4]=bps[4]._Ii;
;;;405    snmp_bps_temperature[4]=bps[4]._Ti;
;;;406    snmp_bps_stat[4]=bps[4]._av;
;;;407    if(!(NUMIST>4))snmp_bps_stat[4]=0xff;
;;;408    
;;;409    snmp_bps_number[5]=6;
;;;410    snmp_bps_voltage[5]=bps[5]._Uii;
;;;411    snmp_bps_current[5]=bps[5]._Ii;
;;;412    snmp_bps_temperature[5]=bps[5]._Ti;
;;;413    snmp_bps_stat[5]=bps[5]._av;
;;;414    if(!(NUMIST>5))snmp_bps_stat[5]=0xff;
;;;415    
;;;416    snmp_bps_number[6]=7;
;;;417    snmp_bps_voltage[6]=bps[6]._Uii;
;;;418    snmp_bps_current[6]=bps[6]._Ii;
;;;419    snmp_bps_temperature[6]=bps[6]._Ti;
;;;420    snmp_bps_stat[6]=bps[6]._av;
;;;421    if(!(NUMIST>6))snmp_bps_stat[6]=0xff;
;;;422    
;;;423    snmp_bps_number[7]=8;
;;;424    snmp_bps_voltage[7]=bps[7]._Uii;
;;;425    snmp_bps_current[7]=bps[7]._Ii;
;;;426    snmp_bps_temperature[7]=bps[7]._Ti;
;;;427    snmp_bps_stat[7]=bps[7]._av;
;;;428    if(!(NUMIST>7))snmp_bps_stat[7]=0xff;
;;;429    
;;;430    
;;;431    
;;;432    snmp_inv_number[0]=1;
;;;433    snmp_inv_voltage[0]=inv[0]._Uio;
;;;434    snmp_inv_current[0]=inv[0]._Ii;
;;;435    snmp_inv_temperature[0]=inv[0]._Ti;
;;;436    snmp_inv_stat[0]=inv[0]._flags_tm;
;;;437    
;;;438    snmp_inv_number[1]=2;
;;;439    snmp_inv_voltage[1]=inv[1]._Uio;
;;;440    snmp_inv_current[1]=inv[1]._Ii;
;;;441    snmp_inv_temperature[1]=inv[1]._Ti;
;;;442    snmp_inv_stat[1]=inv[1]._flags_tm;
;;;443    
;;;444    snmp_inv_number[2]=3;
;;;445    snmp_inv_voltage[2]=inv[2]._Uio;
;;;446    snmp_inv_current[2]=inv[2]._Ii;
;;;447    snmp_inv_temperature[2]=inv[2]._Ti;
;;;448    snmp_inv_stat[2]=inv[2]._flags_tm;
;;;449    
;;;450    
;;;451    
;;;452    
;;;453    					  
;;;454    snmp_sk_number[0]=1;
;;;455    memcpy(&snmp_sk_name[0][0],"Door",10);
;;;456    if(sk_stat[0]==ssON) snmp_sk_aktiv[0]=1;
;;;457    else snmp_sk_aktiv[0]=0;
;;;458    if(!SK_SIGN[0])snmp_sk_alarm_aktiv[0]=1;
;;;459    else snmp_sk_alarm_aktiv[0]=0;
;;;460    if(sk_av_stat[0]==sasON)	snmp_sk_alarm[0]=1;
;;;461    else                     snmp_sk_alarm[0]=0;
;;;462    
;;;463    
;;;464    snmp_sk_number[1]=2;
;;;465    memcpy(&snmp_sk_name[1][0],"Smoke",10);
;;;466    if(sk_stat[1]==ssON) snmp_sk_aktiv[1]=1;
;;;467    else snmp_sk_aktiv[1]=0;
;;;468    if(!SK_SIGN[1])snmp_sk_alarm_aktiv[1]=1;
;;;469    else snmp_sk_alarm_aktiv[1]=0;
;;;470    if(sk_av_stat[1]==sasON)	snmp_sk_alarm[1]=1;
;;;471    else                     snmp_sk_alarm[1]=0;
;;;472    
;;;473    snmp_sk_number[2]=3;
;;;474    memcpy(&snmp_sk_name[2][0],"Shock",10);
;;;475    if(sk_stat[2]==ssON) snmp_sk_aktiv[2]=1;
;;;476    else snmp_sk_aktiv[2]=0;
;;;477    if(!SK_SIGN[2])snmp_sk_alarm_aktiv[2]=1;
;;;478    else snmp_sk_alarm_aktiv[2]=0;
;;;479    if(sk_av_stat[2]==sasON)	snmp_sk_alarm[2]=1;
;;;480    else                     snmp_sk_alarm[2]=0;
;;;481    
;;;482    snmp_sk_number[3]=4;
;;;483    memcpy(&snmp_sk_name[3][0],"     ",10);
;;;484    if(sk_stat[3]==ssON) snmp_sk_aktiv[3]=1;
;;;485    else snmp_sk_aktiv[3]=0;
;;;486    if(!SK_SIGN[3])snmp_sk_alarm_aktiv[3]=1;
;;;487    else snmp_sk_alarm_aktiv[3]=0;
;;;488    if(sk_av_stat[3]==sasON)	snmp_sk_alarm[3]=1;
;;;489    else                     snmp_sk_alarm[3]=0;
;;;490    
;;;491    
;;;492    if(makb[0]._cnt>8) snmp_makb_connect_status[0]=1;
;;;493    else if(makb[0]._cnt<2) snmp_makb_connect_status[0]=0;
;;;494    if(makb[1]._cnt>8) snmp_makb_connect_status[1]=1;
;;;495    else if(makb[1]._cnt<2) snmp_makb_connect_status[1]=0;
;;;496    if(makb[2]._cnt>8) snmp_makb_connect_status[2]=1;
;;;497    else if(makb[2]._cnt<2) snmp_makb_connect_status[2]=0;
;;;498    if(makb[3]._cnt>8) snmp_makb_connect_status[3]=1;
;;;499    else if(makb[3]._cnt<2) snmp_makb_connect_status[3]=0;
;;;500    
;;;501    snmp_makb_voltage0[0]=makb[0]._Ub[0];
;;;502    snmp_makb_voltage1[0]=makb[0]._Ub[1];
;;;503    snmp_makb_voltage2[0]=makb[0]._Ub[2];
;;;504    snmp_makb_voltage3[0]=makb[0]._Ub[3];
;;;505    snmp_makb_voltage4[0]=makb[0]._Ub[4];
;;;506    snmp_makb_voltage0[1]=makb[1]._Ub[0];
;;;507    snmp_makb_voltage1[1]=makb[1]._Ub[1];
;;;508    snmp_makb_voltage2[1]=makb[1]._Ub[2];
;;;509    snmp_makb_voltage3[1]=makb[1]._Ub[3];
;;;510    snmp_makb_voltage4[1]=makb[1]._Ub[4];
;;;511    snmp_makb_voltage0[2]=makb[2]._Ub[0];
;;;512    snmp_makb_voltage1[2]=makb[2]._Ub[1];
;;;513    snmp_makb_voltage2[2]=makb[2]._Ub[2];
;;;514    snmp_makb_voltage3[2]=makb[2]._Ub[3];
;;;515    snmp_makb_voltage4[2]=makb[2]._Ub[4];
;;;516    snmp_makb_voltage0[3]=makb[3]._Ub[0];
;;;517    snmp_makb_voltage1[3]=makb[3]._Ub[1];
;;;518    snmp_makb_voltage2[3]=makb[3]._Ub[2];
;;;519    snmp_makb_voltage3[3]=makb[3]._Ub[3];
;;;520    snmp_makb_voltage4[3]=makb[3]._Ub[4];
;;;521    
;;;522    snmp_makb_temper0[0]=makb[0]._T[0];
;;;523    snmp_makb_temper1[0]=makb[0]._T[1];
;;;524    snmp_makb_temper2[0]=makb[0]._T[2];
;;;525    snmp_makb_temper3[0]=makb[0]._T[3];
;;;526    snmp_makb_temper4[0]=makb[0]._T[4];
;;;527    snmp_makb_temper0[1]=makb[1]._T[0];
;;;528    snmp_makb_temper1[1]=makb[1]._T[1];
;;;529    snmp_makb_temper2[1]=makb[1]._T[2];
;;;530    snmp_makb_temper3[1]=makb[1]._T[3];
;;;531    snmp_makb_temper4[1]=makb[1]._T[4];
;;;532    snmp_makb_temper0[2]=makb[2]._T[0];
;;;533    snmp_makb_temper1[2]=makb[2]._T[1];
;;;534    snmp_makb_temper2[2]=makb[2]._T[2];
;;;535    snmp_makb_temper3[2]=makb[2]._T[3];
;;;536    snmp_makb_temper4[2]=makb[2]._T[4];
;;;537    snmp_makb_temper0[3]=makb[3]._T[0];
;;;538    snmp_makb_temper1[3]=makb[3]._T[1];
;;;539    snmp_makb_temper2[3]=makb[3]._T[2];
;;;540    snmp_makb_temper3[3]=makb[3]._T[3];
;;;541    snmp_makb_temper4[3]=makb[3]._T[4];
;;;542    
;;;543    snmp_makb_temper0_stat[0]=makb[0]._T_nd[0];
;;;544    snmp_makb_temper1_stat[0]=makb[0]._T_nd[1];
;;;545    snmp_makb_temper2_stat[0]=makb[0]._T_nd[2];
;;;546    snmp_makb_temper3_stat[0]=makb[0]._T_nd[3];
;;;547    snmp_makb_temper4_stat[0]=makb[0]._T_nd[4];
;;;548    snmp_makb_temper0_stat[1]=makb[1]._T_nd[0];
;;;549    snmp_makb_temper1_stat[1]=makb[1]._T_nd[1];
;;;550    snmp_makb_temper2_stat[1]=makb[1]._T_nd[2];
;;;551    snmp_makb_temper3_stat[1]=makb[1]._T_nd[3];
;;;552    snmp_makb_temper4_stat[1]=makb[1]._T_nd[4];
;;;553    snmp_makb_temper0_stat[2]=makb[2]._T_nd[0];
;;;554    snmp_makb_temper1_stat[2]=makb[2]._T_nd[1];
;;;555    snmp_makb_temper2_stat[2]=makb[2]._T_nd[2];
;;;556    snmp_makb_temper3_stat[2]=makb[2]._T_nd[3];
;;;557    snmp_makb_temper4_stat[2]=makb[2]._T_nd[4];
;;;558    snmp_makb_temper0_stat[3]=makb[3]._T_nd[0];
;;;559    snmp_makb_temper1_stat[3]=makb[3]._T_nd[1];
;;;560    snmp_makb_temper2_stat[3]=makb[3]._T_nd[2];
;;;561    snmp_makb_temper3_stat[3]=makb[3]._T_nd[3];
;;;562    snmp_makb_temper4_stat[3]=makb[3]._T_nd[4];
;;;563    
;;;564    
;;;565    snmp_klimat_box_temper=t_box;
;;;566    snmp_klimat_settings_box_alarm=TBOXMAX;
;;;567    snmp_klimat_settings_vent_on=TBOXVENTON;
;;;568    snmp_klimat_settings_vent_off=TBOXVENTOFF;
;;;569    snmp_klimat_settings_warm_on=TBOXWARMON;
;;;570    snmp_klimat_settings_warm_off=TBOXWARMOFF;
;;;571    snmp_klimat_settings_load_on=TLOADENABLE;
;;;572    snmp_klimat_settings_load_off=TLOADDISABLE;
;;;573    snmp_klimat_settings_batt_on=TBATENABLE;
;;;574    snmp_klimat_settings_batt_off=TBATDISABLE;
;;;575    
;;;576    snmp_dt_ext=t_ext[0];
;;;577    snmp_dt_msan=t_ext[1];
;;;578    snmp_dt_epu=t_ext[2];
;;;579    
;;;580    /*
;;;581    snmp_bat_voltage=Ubat;
;;;582    snmp_bat_current=Ibat;
;;;583    snmp_bat_temperature=t_b;
;;;584    if(BAT_C_REAL==0x5555)
;;;585    	{
;;;586    	snmp_bat_capacity=BAT_C_NOM*10;												    11
;;;587    	}
;;;588    else
;;;589    	{
;;;590    	snmp_bat_capacity=BAT_C_REAL;
;;;591    	}
;;;592    snmp_bat_charge=zar_percent;
;;;593    snmp_bat_status=0;
;;;594    if(St&0x02)snmp_bat_status|=0x01;
;;;595    if(Ibat>0)snmp_bat_status|=0x02;
;;;596    
;;;597    
;;;598    if(spc_stat==spc_OFF) snmp_spc_stat=0;
;;;599    else if(spc_stat==spc_KE) snmp_spc_stat=1;
;;;600    else if(spc_stat==spc_VZ) snmp_spc_stat=10;
;;;601    
;;;602    
;;;603    snmp_main_bps=MAIN_IST+1;
;;;604    */
;;;605    snmp_zv_en=ZV_ON;
;;;606    snmp_alarm_auto_disable=AV_OFF_AVT;
;;;607    snmp_bat_test_time=TBAT;
;;;608    snmp_u_max=UMAX;
;;;609    //snmp_u_min=UB20-DU;
;;;610    //snmp_u_0_grad=UB0;
;;;611    //snmp_u_20_grad=UB20;
;;;612    snmp_u_sign=USIGN;
;;;613    snmp_u_min_power=UMN;
;;;614    snmp_u_withouth_bat=U0B;
;;;615    snmp_control_current=IKB;
;;;616    snmp_max_charge_current=IZMAX;
;;;617    snmp_max_current=IMAX;
;;;618    snmp_min_current=IMIN;
;;;619    //snmp_max_current_koef=KIMAX;
;;;620    //snmp_uvz=UVZ;
;;;621    snmp_powerup_psu_timeout=TZAS;
;;;622    snmp_max_temperature=TMAX;
;;;623    snmp_tsign_bat=TBATSIGN; 
;;;624    snmp_tmax_bat=TBATMAX;
;;;625    snmp_tsign_bps=TSIGN;
;;;626    snmp_tmax_bps=TMAX;
;;;627    snmp_bat_part_alarm=UBM_AV; 
;;;628    snmp_power_cnt_adress=POWER_CNT_ADRESS;
;;;629    
;;;630    for(i=0;i<12;i++)
;;;631    	{
;;;632    	snmp_avt_number[i]=i+1;
;;;633    	if(avt_stat[i]==avtOFF)snmp_avt_stat[i]=0;
;;;634    	else snmp_avt_stat[i]=1;
;;;635    	}
;;;636    
;;;637    snmp_dt_number[0]=1;
;;;638    snmp_dt_number[1]=2;
;;;639    snmp_dt_number[2]=3;
;;;640    //snmp_dt_number[3]=4;
;;;641    snmp_dt_temper[0]=t_ext[0];
;;;642    snmp_dt_temper[1]=t_ext[1];
;;;643    snmp_dt_temper[2]=t_ext[2];
;;;644    //snmp_dt_temper[3]=t_ext[3];
;;;645    snmp_dt_error[0]=ND_EXT[0];
;;;646    if(NUMDT<1)snmp_dt_error[0]=0xff;
;;;647    snmp_dt_error[1]=ND_EXT[1];
;;;648    if(NUMDT<2)snmp_dt_error[0]=0xff;
;;;649    snmp_dt_error[2]=ND_EXT[2];
;;;650    if(NUMDT<3)snmp_dt_error[0]=0xff;
;;;651    //snmp_dt_error[3]=ND_EXT[3];
;;;652    if(NUMDT<4)snmp_dt_error[0]=0xff;
;;;653    
;;;654    /*
;;;655    //Литиевые батареи
;;;656    snmp_lakb_number[0]=1;								//Номер ЛАКБ
;;;657    snmp_lakb_number[1]=2;								//Номер ЛАКБ
;;;658    snmp_lakb_voltage[0]=lakb[0]._tot_bat_volt;				//Напряжение ЛАКБ
;;;659    snmp_lakb_voltage[1]=lakb[1]._tot_bat_volt;				//Напряжение ЛАКБ
;;;660    snmp_lakb_max_cell_voltage[0]=lakb[0]._max_cell_volt;		//Максимальное напряжение ячейки ЛАКБ
;;;661    snmp_lakb_max_cell_voltage[1]=lakb[1]._max_cell_volt;		//Максимальное напряжение ячейки ЛАКБ
;;;662    snmp_lakb_min_cell_voltage[0]=lakb[0]._min_cell_volt;		//Минимальное напряжение ячейки ЛАКБ
;;;663    snmp_lakb_min_cell_voltage[1]=lakb[1]._min_cell_volt;		//Минимальное напряжение ячейки ЛАКБ
;;;664    snmp_lakb_max_cell_temperature[0]=lakb[0]._max_cell_temp;	//Максимальная температура ячейки ЛАКБ
;;;665    snmp_lakb_max_cell_temperature[1]=lakb[1]._max_cell_temp;	//Максимальная температура ячейки ЛАКБ
;;;666    snmp_lakb_min_cell_temperature[0]=lakb[0]._min_cell_temp;	//Минимальная температура ячейки ЛАКБ
;;;667    snmp_lakb_min_cell_temperature[1]=lakb[1]._min_cell_temp;	//Минимальная температура ячейки ЛАКБ
;;;668    snmp_lakb_ch_curr[0]=lakb[0]._ch_curr;					//Ток заряда ЛАКБ
;;;669    snmp_lakb_ch_curr[1]=lakb[1]._ch_curr;					//Ток заряда ЛАКБ
;;;670    snmp_lakb_dsch_curr[0]=lakb[0]._dsch_curr;				//Ток разряда ЛАКБ
;;;671    snmp_lakb_dsch_curr[1]=lakb[1]._dsch_curr;				//Ток разряда ЛАКБ
;;;672    snmp_lakb_rat_cap[0]=lakb[0]._rat_cap;					//Номинальная емкость ЛАКБ
;;;673    snmp_lakb_rat_cap[1]=lakb[1]._rat_cap;					//Номинальная емкость ЛАКБ
;;;674    snmp_lakb_soh[0]=lakb[0]._s_o_h;						//Остаточная емкость ЛАКБ
;;;675    snmp_lakb_soh[1]=lakb[1]._s_o_h;						//Остаточная емкость ЛАКБ
;;;676    snmp_lakb_soc[0]=lakb[0]._s_o_c;						//Заряд ЛАКБ
;;;677    snmp_lakb_soc[1]=lakb[1]._s_o_c;						//Заряд ЛАКБ
;;;678    snmp_lakb_cclv[0]=lakb[0]._c_c_l_v;  					//Максимальный ток заряда ЛАКБ
;;;679    snmp_lakb_cclv[1]=lakb[1]._c_c_l_v;  					//Максимальный ток заряда ЛАКБ
;;;680    snmp_lakb_rbt[0]=lakb[0]._r_b_t;						//Оцениваемое время работы ЛАКБ
;;;681    snmp_lakb_rbt[1]=lakb[1]._r_b_t;						//Оцениваемое время работы ЛАКБ
;;;682    snmp_lakb_flags1[0]=lakb[0]._flags1;					//Первый флаг состояния ЛАКБ
;;;683    snmp_lakb_flags1[1]=lakb[1]._flags1;					//Первый флаг состояния ЛАКБ
;;;684    snmp_lakb_flags2[0]=lakb[0]._flags2;					//Второй флаг состояния ЛАКБ
;;;685    snmp_lakb_flags2[1]=lakb[1]._flags2;					//Второй флаг состояния ЛАКБ */
;;;686    
;;;687    //Литиевые батареи
;;;688    snmp_lakb_number[0]=1;								//Номер ЛАКБ
;;;689    snmp_lakb_number[1]=2;								//Номер ЛАКБ
;;;690    snmp_lakb_number[2]=3;								//Номер ЛАКБ
;;;691    snmp_lakb_number[3]=4;								//Номер ЛАКБ
;;;692    snmp_lakb_number[4]=5;								//Номер ЛАКБ
;;;693    snmp_lakb_number[5]=6;								//Номер ЛАКБ
;;;694    snmp_lakb_number[6]=7;								//Номер ЛАКБ
;;;695    
;;;696    for (i=0;i<3;i++)
;;;697    	{
;;;698    	snmp_lakb_voltage[i]=lakb[i]._tot_bat_volt;				//Напряжение ЛАКБ
;;;699    	snmp_lakb_max_cell_voltage[i]=lakb[i]._max_cell_volt;		//Максимальное напряжение ячейки ЛАКБ
;;;700    	snmp_lakb_min_cell_voltage[i]=lakb[i]._min_cell_volt;		//Минимальное напряжение ячейки ЛАКБ
;;;701    	snmp_lakb_max_cell_temperature[i]=lakb[i]._max_cell_temp;	//Максимальная температура ячейки ЛАКБ
;;;702    	//snmp_lakb_max_cell_temperature[1]=lakb[1]._max_cell_temp;	//Максимальная температура ячейки ЛАКБ
;;;703    	snmp_lakb_min_cell_temperature[i]=lakb[i]._min_cell_temp;	//Минимальная температура ячейки ЛАКБ
;;;704    	//snmp_lakb_min_cell_temperature[1]=lakb[1]._min_cell_temp;	//Минимальная температура ячейки ЛАКБ
;;;705    	snmp_lakb_ch_curr[i]=lakb[i]._ch_curr;					//Ток заряда ЛАКБ
;;;706    	//snmp_lakb_ch_curr[1]=lakb[1]._ch_curr;					//Ток заряда ЛАКБ
;;;707    	snmp_lakb_dsch_curr[i]=lakb[i]._dsch_curr;				//Ток разряда ЛАКБ
;;;708    	//snmp_lakb_dsch_curr[1]=lakb[1]._dsch_curr;				//Ток разряда ЛАКБ
;;;709    	snmp_lakb_rat_cap[i]=lakb[i]._rat_cap;					//Номинальная емкость ЛАКБ
;;;710    	//snmp_lakb_rat_cap[1]=lakb[1]._rat_cap;					//Номинальная емкость ЛАКБ
;;;711    	snmp_lakb_soh[i]=lakb[i]._s_o_h;						//Остаточная емкость ЛАКБ
;;;712    	//snmp_lakb_soh[1]=lakb[1]._s_o_h;						//Остаточная емкость ЛАКБ
;;;713    	snmp_lakb_soc[i]=lakb[i]._s_o_c;						//Заряд ЛАКБ
;;;714    	//snmp_lakb_soc[1]=lakb[1]._s_o_c;						//Заряд ЛАКБ
;;;715    	snmp_lakb_cclv[i]=lakb[i]._c_c_l_v;  					//Максимальный ток заряда ЛАКБ
;;;716    	//snmp_lakb_cclv[1]=lakb[1]._c_c_l_v;  					//Максимальный ток заряда ЛАКБ
;;;717    	snmp_lakb_rbt[i]=lakb[i]._r_b_t;						//Оцениваемое время работы ЛАКБ
;;;718    	//snmp_lakb_rbt[1]=lakb[1]._r_b_t;						//Оцениваемое время работы ЛАКБ
;;;719    	snmp_lakb_flags1[i]=lakb[i]._flags1;					//Первый флаг состояния ЛАКБ
;;;720    	//snmp_lakb_flags1[1]=lakb[1]._flags1;					//Первый флаг состояния ЛАКБ
;;;721    	snmp_lakb_flags2[i]=lakb[i]._flags2;					//Второй флаг состояния ЛАКБ
;;;722    	//snmp_lakb_flags2[1]=lakb[1]._flags2;					//Второй флаг состояния ЛАКБ
;;;723    
;;;724    	snmp_lakb_cell_temperature_1[i]= lakb[i]._cell_temp_1;
;;;725    	snmp_lakb_cell_temperature_2[i]= lakb[i]._cell_temp_2;
;;;726    	snmp_lakb_cell_temperature_3[i]= lakb[i]._cell_temp_3;
;;;727    	snmp_lakb_cell_temperature_4[i]= lakb[i]._cell_temp_4;
;;;728    	snmp_lakb_cell_temperature_ambient[i]=lakb[i]._cell_temp_ambient;
;;;729    	snmp_lakb_cell_temperature_power[i]=lakb[i]._cell_temp_power;
;;;730    	}
;;;731    
;;;732    for (i=0;i<7;i++)
;;;733    {
;;;734    /*
;;;735    snmp_lakb_damp1[i][0]=ABCDEF[(lakb_damp[i][0])>>4];			//Дамп
;;;736    snmp_lakb_damp1[i][1]=ABCDEF[(lakb_damp[i][0])&0x0f];			//Дамп
;;;737    snmp_lakb_damp1[i][2]=' ';
;;;738    snmp_lakb_damp1[i][3]=ABCDEF[(lakb_damp[i][1])>>4];			//Дамп
;;;739    snmp_lakb_damp1[i][4]=ABCDEF[(lakb_damp[i][1])&0x0f];			//Дамп
;;;740    snmp_lakb_damp1[i][5]=' ';
;;;741    snmp_lakb_damp1[i][6]=ABCDEF[(lakb_damp[i][2])>>4];			//Дамп
;;;742    snmp_lakb_damp1[i][7]=ABCDEF[(lakb_damp[i][2])&0x0f];			//Дамп
;;;743    snmp_lakb_damp1[i][8]=' ';
;;;744    snmp_lakb_damp1[i][9]=ABCDEF[(lakb_damp[i][3])>>4];			//Дамп
;;;745    snmp_lakb_damp1[i][10]=ABCDEF[(lakb_damp[i][3])&0x0f];			//Дамп
;;;746    snmp_lakb_damp1[i][11]=' ';
;;;747    snmp_lakb_damp1[i][12]=ABCDEF[(lakb_damp[i][4])>>4];			//Дамп
;;;748    snmp_lakb_damp1[i][13]=ABCDEF[(lakb_damp[i][4])&0x0f];			//Дамп
;;;749    snmp_lakb_damp1[i][14]=' '; 
;;;750    snmp_lakb_damp1[i][15]=ABCDEF[(lakb_damp[i][5])>>4];			//Дамп
;;;751    snmp_lakb_damp1[i][16]=ABCDEF[(lakb_damp[i][5])&0x0f];			//Дамп
;;;752    snmp_lakb_damp1[i][17]=' ';
;;;753    snmp_lakb_damp1[i][18]=ABCDEF[(lakb_damp[i][6])>>4];			//Дамп
;;;754    snmp_lakb_damp1[i][19]=ABCDEF[(lakb_damp[i][6])&0x0f];			//Дамп
;;;755    snmp_lakb_damp1[i][20]=' ';
;;;756    snmp_lakb_damp1[i][21]=ABCDEF[(lakb_damp[i][7])>>4];			//Дамп
;;;757    snmp_lakb_damp1[i][22]=ABCDEF[(lakb_damp[i][7])&0x0f];			//Дамп
;;;758    snmp_lakb_damp1[i][23]=' ';
;;;759    snmp_lakb_damp1[i][24]=ABCDEF[(lakb_damp[i][8])>>4];			//Дамп
;;;760    snmp_lakb_damp1[i][25]=ABCDEF[(lakb_damp[i][8])&0x0f];			//Дамп
;;;761    snmp_lakb_damp1[i][26]=' ';
;;;762    snmp_lakb_damp1[i][27]=ABCDEF[(lakb_damp[i][9])>>4];			//Дамп
;;;763    snmp_lakb_damp1[i][28]=ABCDEF[(lakb_damp[i][9])&0x0f];			//Дамп
;;;764    snmp_lakb_damp1[i][29]=0; 
;;;765    
;;;766    snmp_lakb_damp1[i][30]=ABCDEF[(lakb_damp[i][10])>>4];			//Дамп
;;;767    snmp_lakb_damp1[i][31]=ABCDEF[(lakb_damp[i][10])&0x0f];			//Дамп
;;;768    snmp_lakb_damp1[i][32]=' ';
;;;769    snmp_lakb_damp1[i][33]=ABCDEF[(lakb_damp[i][11])>>4];			//Дамп
;;;770    snmp_lakb_damp1[i][34]=ABCDEF[(lakb_damp[i][11])&0x0f];			//Дамп
;;;771    snmp_lakb_damp1[i][35]=' ';
;;;772    snmp_lakb_damp1[i][36]=ABCDEF[(lakb_damp[i][12])>>4];			//Дамп
;;;773    snmp_lakb_damp1[i][37]=ABCDEF[(lakb_damp[i][12])&0x0f];			//Дамп
;;;774    snmp_lakb_damp1[i][38]=' ';
;;;775    snmp_lakb_damp1[i][39]=ABCDEF[(lakb_damp[i][13])>>4];			//Дамп
;;;776    snmp_lakb_damp1[i][40]=ABCDEF[(lakb_damp[i][13])&0x0f];			//Дамп
;;;777    snmp_lakb_damp1[i][41]=' ';
;;;778    snmp_lakb_damp1[i][42]=ABCDEF[(lakb_damp[i][14])>>4];			//Дамп
;;;779    snmp_lakb_damp1[i][43]=ABCDEF[(lakb_damp[i][14])&0x0f];			//Дамп
;;;780    snmp_lakb_damp1[i][44]=' '; 
;;;781    snmp_lakb_damp1[i][45]=ABCDEF[(lakb_damp[i][15])>>4];			//Дамп
;;;782    snmp_lakb_damp1[i][46]=ABCDEF[(lakb_damp[i][15])&0x0f];			//Дамп
;;;783    snmp_lakb_damp1[i][47]=' ';
;;;784    snmp_lakb_damp1[i][48]=ABCDEF[(lakb_damp[i][16])>>4];			//Дамп
;;;785    snmp_lakb_damp1[i][49]=ABCDEF[(lakb_damp[i][16])&0x0f];			//Дамп
;;;786    snmp_lakb_damp1[i][50]=' ';
;;;787    snmp_lakb_damp1[i][51]=ABCDEF[(lakb_damp[i][17])>>4];			//Дамп
;;;788    snmp_lakb_damp1[i][52]=ABCDEF[(lakb_damp[i][17])&0x0f];			//Дамп
;;;789    snmp_lakb_damp1[i][53]=' ';
;;;790    snmp_lakb_damp1[i][54]=ABCDEF[(lakb_damp[i][18])>>4];			//Дамп
;;;791    snmp_lakb_damp1[i][55]=ABCDEF[(lakb_damp[i][18])&0x0f];			//Дамп
;;;792    snmp_lakb_damp1[i][56]=' ';
;;;793    snmp_lakb_damp1[i][57]=ABCDEF[(lakb_damp[i][19])>>4];			//Дамп
;;;794    snmp_lakb_damp1[i][58]=ABCDEF[(lakb_damp[i][19])&0x0f];			//Дамп
;;;795    snmp_lakb_damp1[i][59]=0; 
;;;796    
;;;797    
;;;798    snmp_lakb_damp1[i][60]=ABCDEF[(lakb_damp[i][20])>>4];			//Дамп
;;;799    snmp_lakb_damp1[i][61]=ABCDEF[(lakb_damp[i][20])&0x0f];			//Дамп
;;;800    snmp_lakb_damp1[i][62]=' ';
;;;801    snmp_lakb_damp1[i][63]=ABCDEF[(lakb_damp[i][21])>>4];			//Дамп
;;;802    snmp_lakb_damp1[i][64]=ABCDEF[(lakb_damp[i][21])&0x0f];			//Дамп
;;;803    snmp_lakb_damp1[i][65]=' ';
;;;804    snmp_lakb_damp1[i][66]=ABCDEF[(lakb_damp[i][22])>>4];			//Дамп
;;;805    snmp_lakb_damp1[i][67]=ABCDEF[(lakb_damp[i][22])&0x0f];			//Дамп
;;;806    snmp_lakb_damp1[i][68]=' ';
;;;807    snmp_lakb_damp1[i][69]=ABCDEF[(lakb_damp[i][23])>>4];			//Дамп
;;;808    snmp_lakb_damp1[i][70]=ABCDEF[(lakb_damp[i][23])&0x0f];			//Дамп
;;;809    snmp_lakb_damp1[i][71]=' ';
;;;810    snmp_lakb_damp1[i][72]=ABCDEF[(lakb_damp[i][24])>>4];			//Дамп
;;;811    snmp_lakb_damp1[i][73]=ABCDEF[(lakb_damp[i][24])&0x0f];			//Дамп
;;;812    snmp_lakb_damp1[i][74]=' '; 
;;;813    snmp_lakb_damp1[i][75]=ABCDEF[(lakb_damp[i][25])>>4];			//Дамп
;;;814    snmp_lakb_damp1[i][76]=ABCDEF[(lakb_damp[i][25])&0x0f];			//Дамп
;;;815    snmp_lakb_damp1[i][77]=' ';
;;;816    snmp_lakb_damp1[i][78]=ABCDEF[(lakb_damp[i][26])>>4];			//Дамп
;;;817    snmp_lakb_damp1[i][79]=ABCDEF[(lakb_damp[i][26])&0x0f];			//Дамп
;;;818    snmp_lakb_damp1[i][80]=' ';
;;;819    snmp_lakb_damp1[i][81]=ABCDEF[(lakb_damp[i][27])>>4];			//Дамп
;;;820    snmp_lakb_damp1[i][82]=ABCDEF[(lakb_damp[i][27])&0x0f];			//Дамп
;;;821    snmp_lakb_damp1[i][83]=' ';
;;;822    snmp_lakb_damp1[i][84]=ABCDEF[(lakb_damp[i][28])>>4];			//Дамп
;;;823    snmp_lakb_damp1[i][85]=ABCDEF[(lakb_damp[i][28])&0x0f];			//Дамп
;;;824    snmp_lakb_damp1[i][86]=' ';
;;;825    snmp_lakb_damp1[i][87]=ABCDEF[(lakb_damp[i][29])>>4];			//Дамп
;;;826    snmp_lakb_damp1[i][88]=ABCDEF[(lakb_damp[i][29])&0x0f];			//Дамп
;;;827    snmp_lakb_damp1[i][89]=0;
;;;828    
;;;829    
;;;830    snmp_lakb_damp1[i][90]=ABCDEF[(lakb_damp[i][30])>>4];			//Дамп
;;;831    snmp_lakb_damp1[i][91]=ABCDEF[(lakb_damp[i][30])&0x0f];			//Дамп
;;;832    snmp_lakb_damp1[i][92]=' ';
;;;833    snmp_lakb_damp1[i][93]=ABCDEF[(lakb_damp[i][31])>>4];			//Дамп
;;;834    snmp_lakb_damp1[i][94]=ABCDEF[(lakb_damp[i][31])&0x0f];			//Дамп
;;;835    snmp_lakb_damp1[i][95]=' ';
;;;836    snmp_lakb_damp1[i][96]=ABCDEF[(lakb_damp[i][32])>>4];			//Дамп
;;;837    snmp_lakb_damp1[i][97]=ABCDEF[(lakb_damp[i][32])&0x0f];			//Дамп
;;;838    snmp_lakb_damp1[i][98]=' ';
;;;839    snmp_lakb_damp1[i][99]=ABCDEF[(lakb_damp[i][33])>>4];			//Дамп
;;;840    snmp_lakb_damp1[i][100]=ABCDEF[(lakb_damp[i][33])&0x0f];			//Дамп
;;;841    snmp_lakb_damp1[i][101]=' ';
;;;842    snmp_lakb_damp1[i][102]=ABCDEF[(lakb_damp[i][34])>>4];			//Дамп
;;;843    snmp_lakb_damp1[i][103]=ABCDEF[(lakb_damp[i][34])&0x0f];			//Дамп
;;;844    snmp_lakb_damp1[i][104]=' '; 
;;;845    snmp_lakb_damp1[i][105]=ABCDEF[(lakb_damp[i][35])>>4];			//Дамп
;;;846    snmp_lakb_damp1[i][106]=ABCDEF[(lakb_damp[i][35])&0x0f];			//Дамп
;;;847    snmp_lakb_damp1[i][107]=' ';
;;;848    snmp_lakb_damp1[i][108]=ABCDEF[(lakb_damp[i][36])>>4];			//Дамп
;;;849    snmp_lakb_damp1[i][109]=ABCDEF[(lakb_damp[i][36])&0x0f];			//Дамп
;;;850    snmp_lakb_damp1[i][110]=' ';
;;;851    snmp_lakb_damp1[i][111]=ABCDEF[(lakb_damp[i][37])>>4];			//Дамп
;;;852    snmp_lakb_damp1[i][112]=ABCDEF[(lakb_damp[i][37])&0x0f];			//Дамп
;;;853    snmp_lakb_damp1[i][113]=' ';
;;;854    snmp_lakb_damp1[i][114]=ABCDEF[(lakb_damp[i][38])>>4];			//Дамп
;;;855    snmp_lakb_damp1[i][115]=ABCDEF[(lakb_damp[i][38])&0x0f];			//Дамп
;;;856    snmp_lakb_damp1[i][116]=' ';
;;;857    snmp_lakb_damp1[i][117]=ABCDEF[(lakb_damp[i][39])>>4];			//Дамп
;;;858    snmp_lakb_damp1[i][118]=ABCDEF[(lakb_damp[i][39])&0x0f];			//Дамп
;;;859    snmp_lakb_damp1[i][119]=0; 
;;;860     
;;;861    
;;;862    snmp_lakb_damp1[i][120]=ABCDEF[(lakb_damp[i][40])>>4];			//Дамп
;;;863    snmp_lakb_damp1[i][121]=ABCDEF[(lakb_damp[i][40])&0x0f];			//Дамп
;;;864    snmp_lakb_damp1[i][122]=' ';
;;;865    snmp_lakb_damp1[i][123]=ABCDEF[(lakb_damp[i][41])>>4];			//Дамп
;;;866    snmp_lakb_damp1[i][124]=ABCDEF[(lakb_damp[i][41])&0x0f];			//Дамп
;;;867    snmp_lakb_damp1[i][125]=' ';
;;;868    snmp_lakb_damp1[i][126]=ABCDEF[(lakb_damp[i][42])>>4];			//Дамп
;;;869    snmp_lakb_damp1[i][127]=ABCDEF[(lakb_damp[i][42])&0x0f];			//Дамп
;;;870    snmp_lakb_damp1[i][128]=' ';
;;;871    snmp_lakb_damp1[i][129]=ABCDEF[(lakb_damp[i][43])>>4];			//Дамп
;;;872    snmp_lakb_damp1[i][130]=ABCDEF[(lakb_damp[i][43])&0x0f];			//Дамп
;;;873    snmp_lakb_damp1[i][131]=' ';
;;;874    snmp_lakb_damp1[i][132]=ABCDEF[(lakb_damp[i][44])>>4];			//Дамп
;;;875    snmp_lakb_damp1[i][133]=ABCDEF[(lakb_damp[i][44])&0x0f];			//Дамп
;;;876    snmp_lakb_damp1[i][134]=' '; 
;;;877    snmp_lakb_damp1[i][135]=ABCDEF[(lakb_damp[i][45])>>4];			//Дамп
;;;878    snmp_lakb_damp1[i][136]=ABCDEF[(lakb_damp[i][45])&0x0f];			//Дамп
;;;879    snmp_lakb_damp1[i][137]=' ';
;;;880    snmp_lakb_damp1[i][138]=ABCDEF[(lakb_damp[i][46])>>4];			//Дамп
;;;881    snmp_lakb_damp1[i][139]=ABCDEF[(lakb_damp[i][46])&0x0f];			//Дамп
;;;882    snmp_lakb_damp1[i][140]=' ';
;;;883    snmp_lakb_damp1[i][141]=ABCDEF[(lakb_damp[i][47])>>4];			//Дамп
;;;884    snmp_lakb_damp1[i][142]=ABCDEF[(lakb_damp[i][47])&0x0f];			//Дамп
;;;885    snmp_lakb_damp1[i][143]=' ';
;;;886    snmp_lakb_damp1[i][144]=ABCDEF[(lakb_damp[i][48])>>4];			//Дамп
;;;887    snmp_lakb_damp1[i][145]=ABCDEF[(lakb_damp[i][48])&0x0f];			//Дамп
;;;888    snmp_lakb_damp1[i][146]=' ';
;;;889    snmp_lakb_damp1[i][147]=ABCDEF[(lakb_damp[i][49])>>4];			//Дамп
;;;890    snmp_lakb_damp1[i][148]=ABCDEF[(lakb_damp[i][49])&0x0f];			//Дамп
;;;891    snmp_lakb_damp1[i][149]=0;  */
;;;892    }
;;;893    
;;;894    #ifdef UKU_TELECORE2017
;;;895    snmp_warm_sign=0;
;;;896    if(TELECORE2017_KLIMAT_WARM_SIGNAL==0) snmp_warm_sign=2;
;;;897    else if(TELECORE2017_KLIMAT_WARM_SIGNAL==1) snmp_warm_sign=1;
;;;898    snmp_cool_sign=0;
;;;899    if(TELECORE2017_KLIMAT_VENT_SIGNAL==0) snmp_cool_sign=2;
;;;900    else if(TELECORE2017_KLIMAT_VENT_SIGNAL==1) snmp_cool_sign=1;
;;;901    snmp_warm_on_temper=(signed char)TELECORE2017_KLIMAT_WARM_ON; 
;;;902    snmp_warm_off_temper=(signed char)TELECORE2017_KLIMAT_WARM_OFF;
;;;903    snmp_warm_q=(signed char)TELECORE2017_KLIMAT_CAP;	
;;;904    snmp_cool_20_temper=(signed char)TELECORE2017_KLIMAT_VENT_ON20;
;;;905    snmp_cool_40_temper=(signed char)TELECORE2017_KLIMAT_VENT_ON40;
;;;906    snmp_cool_60_temper=(signed char)TELECORE2017_KLIMAT_VENT_ON60;
;;;907    snmp_cool_80_temper=(signed char)TELECORE2017_KLIMAT_VENT_ON80;
;;;908    snmp_cool_100_temper=(signed char)TELECORE2017_KLIMAT_VENT_ON100;
;;;909    snmp_cool_20_dtemper=(signed char)TELECORE2017_KLIMAT_DVENT_ON20;
;;;910    snmp_cool_40_dtemper=(signed char)TELECORE2017_KLIMAT_DVENT_ON40;
;;;911    snmp_cool_60_dtemper=(signed char)TELECORE2017_KLIMAT_DVENT_ON60;
;;;912    snmp_cool_80_dtemper=(signed char)TELECORE2017_KLIMAT_DVENT_ON80;
;;;913    snmp_cool_100_dtemper=(signed char)TELECORE2017_KLIMAT_DVENT_ON100;
;;;914    snmp_warm_stat=0;
;;;915    if(warm_stat_k==wsON) snmp_warm_stat=1;
;;;916    #endif
;;;917    }
;;;918    //-----------------------------------------------
                          ENDP

000012  0000              DCW      0x0000
                  |L13.20|
                          DCD      ||.data||

                          AREA ||area_number.14||, CODE, READONLY, ALIGN=2

                          EXPORTAS ||area_number.14||, ||.text||
                  snmp_klimat_settings_load_on_write PROC
;;;259    //-----------------------------------------------
;;;260    void snmp_data (void) 
000000  2801              CMP      r0,#1
;;;261    {
000002  d105              BNE      |L14.16|
;;;262    char i;
;;;263    
;;;264    snmp_mains_power_voltage=net_U;
000004  4803              LDR      r0,|L14.20|
000006  f9b01076          LDRSH    r1,[r0,#0x76]  ; snmp_klimat_settings_load_on
00000a  20d8              MOVS     r0,#0xd8
;;;265    #ifdef UKU_220_IPS_TERMOKOMPENSAT
;;;266    snmp_mains_power_frequency=net_F3;
00000c  f7ffbffe          B.W      lc640_write_int
                  |L14.16|
000010  4770              BX       lr
;;;267    #else
;;;268    snmp_mains_power_frequency=net_F;
;;;269    #endif
;;;270    snmp_mains_power_voltage_phaseA=net_Ua;
;;;271    snmp_mains_power_voltage_phaseB=net_Ub;
;;;272    snmp_mains_power_voltage_phaseC=net_Uc;
;;;273    
;;;274    /*
;;;275    snmp_mains_power_status=0; 
;;;276    #if(UKU_VERSION==900)
;;;277    snmp_mains_power_status=2;
;;;278    #endif
;;;279    if(St&0x01)snmp_mains_power_status|=0x01;
;;;280    if(St&0x01)snmp_mains_power_alarm=1;
;;;281    
;;;282    
;;;283    
;;;284    
;;;285    
;;;286    
;;;287    for(i=0;i<snmp_numofevents;i++)event2snmp(i);
;;;288    //snmp_bpsnumber[0]=1;
;;;289    //snmp_bpsnumber[1]=2;
;;;290    
;;;291    snmp_sernum=AUSW_MAIN_NUMBER;
;;;292    snmp_sernum_lsb=0x1122;
;;;293    snmp_sernum_msb=0x3344;
;;;294    snmp_device_code=AUSW_MAIN;
;;;295    
;;;296    //memcpy(snmp_location,"lkhg;la",);
;;;297    
;;;298    
;;;299    snmp_numofbat=1;
;;;300    
;;;301    */
;;;302    
;;;303    snmp_load_voltage=load_U;
;;;304    snmp_load_current=load_I;
;;;305    snmp_numofbat=NUMBAT;
;;;306    snmp_numofbps=NUMIST;
;;;307    snmp_numofinv=NUMINV;
;;;308    snmp_numofavt=NUMAVT;
;;;309    snmp_numofdt=NUMDT;
;;;310    snmp_numofsk=NUMSK;
;;;311    snmp_numofevents=lc640_read_int(CNT_EVENT_LOG);
;;;312    
;;;313    snmp_energy_vvod_phase_a=Uvv_eb2[0];
;;;314    snmp_energy_vvod_phase_b=Uvv_eb2[1];
;;;315    snmp_energy_vvod_phase_c=Uvv_eb2[2];
;;;316    snmp_energy_pes_phase_a=Upes_eb2[0];
;;;317    snmp_energy_pes_phase_b=Upes_eb2[1];
;;;318    snmp_energy_pes_phase_c=Upes_eb2[2];
;;;319    
;;;320    #ifdef UKU_KONTUR
;;;321    snmp_energy_vvod_phase_a=Uvv0;
;;;322    snmp_energy_pes_phase_a=Uvv[1];
;;;323    #endif
;;;324    
;;;325    snmp_energy_total_energy=power_summary;
;;;326    snmp_energy_current_energy=power_current;
;;;327    snmp_energy_input_voltage=net_U;
;;;328    
;;;329    snmp_bat_number[0]=1;
;;;330    snmp_bat_voltage[0]=bat[0]._Ub;
;;;331    snmp_bat_part_voltage[0]=bat[0]._Ubm;
;;;332    snmp_bat_current[0]=bat[0]._Ib;
;;;333    
;;;334    #ifdef UKU_220_IPS_TERMOKOMPENSAT
;;;335    if(((AUSW_MAIN==22063)||(AUSW_MAIN==22023))&&(bps[8]._device==dIBAT_METR))
;;;336    	{
;;;337    	snmp_bat_current[0]=Ib_ips_termokompensat;
;;;338    	}
;;;339    #endif
;;;340    
;;;341    snmp_bat_temperature[0]=bat[0]._Tb;
;;;342    if(BAT_C_REAL[0]==0x5555)snmp_bat_capacity[0]=BAT_C_NOM[0];
;;;343    else snmp_bat_capacity[0]=BAT_C_REAL[0];
;;;344    snmp_bat_charge[0]=bat[0]._zar;
;;;345    snmp_bat_status[0]=bat[0]._av;
;;;346    if(BAT_IS_ON[0]!=bisON)snmp_bat_status[0]=0xff;
;;;347    
;;;348    snmp_bat_number[1]=2;
;;;349    snmp_bat_voltage[1]=bat[1]._Ub;
;;;350    snmp_bat_part_voltage[1]=bat[1]._Ubm;
;;;351    snmp_bat_current[1]=bat[1]._Ib;
;;;352    snmp_bat_temperature[1]=bat[1]._Tb;
;;;353    if(BAT_C_REAL[1]==0x5555)snmp_bat_capacity[1]=BAT_C_NOM[1];
;;;354    else snmp_bat_capacity[1]=BAT_C_REAL[1];
;;;355    snmp_bat_charge[1]=bat[1]._zar;
;;;356    snmp_bat_status[1]=bat[1]._av;
;;;357    if(BAT_IS_ON[1]!=bisON)snmp_bat_status[1]=0xff;
;;;358    
;;;359    
;;;360    
;;;361    snmp_bps_number[0]=1;
;;;362    snmp_bps_voltage[0]=bps[0]._Uii;
;;;363    snmp_bps_current[0]=bps[0]._Ii;
;;;364    snmp_bps_temperature[0]=bps[0]._Ti;
;;;365    snmp_bps_stat[0]=bps[0]._av;
;;;366    if(!(NUMIST>0))snmp_bps_stat[0]=0xff;												//Байт состояния БПСа.
;;;367    
;;;368    /*if(St_[0]&(1<<2))snmp_bps_stat[0]=(1<<3); 							//авария по Umin
;;;369    else if(St_[0]&(1<<3))snmp_bps_stat[0]=(1<<2); 						//авария по Umax
;;;370    else if(bps[0]._av&(1<<0))snmp_bps_stat[0]=(1<<1); 						//авария по Tmax
;;;371    else if(St_[0]&(1<<5))snmp_bps_stat[0]=(1<<5); 						//заблокирован
;;;372    else if((!(St_[0]&0x3c))&&(!St&0x01)&&(!OFFBP1))snmp_bps_stat[0]=1; 		//Работает
;;;373    */
;;;374    
;;;375    snmp_bps_number[1]=2;
;;;376    snmp_bps_voltage[1]=bps[1]._Uii;
;;;377    snmp_bps_current[1]=bps[1]._Ii;
;;;378    snmp_bps_temperature[1]=bps[1]._Ti;
;;;379    snmp_bps_stat[1]=bps[1]._av;
;;;380    if(!(NUMIST>1))snmp_bps_stat[1]=0xff;												//Байт состояния БПСа.
;;;381    /*if(St_[1]&(1<<2))snmp_bps_stat[1]=(1<<3); 							//авария по Umin
;;;382    else if(St_[1]&(1<<3))snmp_bps_stat[1]=(1<<2); 						//авария по Umax
;;;383    else if(St_[1]&(1<<4))snmp_bps_stat[1]=(1<<1); 						//авария по Tmax
;;;384    else if(St_[1]&(1<<5))snmp_bps_stat[1]=(1<<5); 						//заблокирован
;;;385    else if((!(St_[1]&0x3c))&&(!St&0x01)&&(!OFFBP2))snmp_bps_stat[1]=1; 		//Работает
;;;386    */
;;;387    
;;;388    snmp_bps_number[2]=3;
;;;389    snmp_bps_voltage[2]=bps[2]._Uii;
;;;390    snmp_bps_current[2]=bps[2]._Ii;
;;;391    snmp_bps_temperature[2]=bps[2]._Ti;
;;;392    snmp_bps_stat[2]=bps[2]._av;
;;;393    if(!(NUMIST>2))snmp_bps_stat[2]=0xff;
;;;394    
;;;395    snmp_bps_number[3]=4;
;;;396    snmp_bps_voltage[3]=bps[3]._Uii;
;;;397    snmp_bps_current[3]=bps[3]._Ii;
;;;398    snmp_bps_temperature[3]=bps[3]._Ti;
;;;399    snmp_bps_stat[3]=bps[3]._av;
;;;400    if(!(NUMIST>3))snmp_bps_stat[3]=0xff;
;;;401    
;;;402    snmp_bps_number[4]=5;
;;;403    snmp_bps_voltage[4]=bps[4]._Uii;
;;;404    snmp_bps_current[4]=bps[4]._Ii;
;;;405    snmp_bps_temperature[4]=bps[4]._Ti;
;;;406    snmp_bps_stat[4]=bps[4]._av;
;;;407    if(!(NUMIST>4))snmp_bps_stat[4]=0xff;
;;;408    
;;;409    snmp_bps_number[5]=6;
;;;410    snmp_bps_voltage[5]=bps[5]._Uii;
;;;411    snmp_bps_current[5]=bps[5]._Ii;
;;;412    snmp_bps_temperature[5]=bps[5]._Ti;
;;;413    snmp_bps_stat[5]=bps[5]._av;
;;;414    if(!(NUMIST>5))snmp_bps_stat[5]=0xff;
;;;415    
;;;416    snmp_bps_number[6]=7;
;;;417    snmp_bps_voltage[6]=bps[6]._Uii;
;;;418    snmp_bps_current[6]=bps[6]._Ii;
;;;419    snmp_bps_temperature[6]=bps[6]._Ti;
;;;420    snmp_bps_stat[6]=bps[6]._av;
;;;421    if(!(NUMIST>6))snmp_bps_stat[6]=0xff;
;;;422    
;;;423    snmp_bps_number[7]=8;
;;;424    snmp_bps_voltage[7]=bps[7]._Uii;
;;;425    snmp_bps_current[7]=bps[7]._Ii;
;;;426    snmp_bps_temperature[7]=bps[7]._Ti;
;;;427    snmp_bps_stat[7]=bps[7]._av;
;;;428    if(!(NUMIST>7))snmp_bps_stat[7]=0xff;
;;;429    
;;;430    
;;;431    
;;;432    snmp_inv_number[0]=1;
;;;433    snmp_inv_voltage[0]=inv[0]._Uio;
;;;434    snmp_inv_current[0]=inv[0]._Ii;
;;;435    snmp_inv_temperature[0]=inv[0]._Ti;
;;;436    snmp_inv_stat[0]=inv[0]._flags_tm;
;;;437    
;;;438    snmp_inv_number[1]=2;
;;;439    snmp_inv_voltage[1]=inv[1]._Uio;
;;;440    snmp_inv_current[1]=inv[1]._Ii;
;;;441    snmp_inv_temperature[1]=inv[1]._Ti;
;;;442    snmp_inv_stat[1]=inv[1]._flags_tm;
;;;443    
;;;444    snmp_inv_number[2]=3;
;;;445    snmp_inv_voltage[2]=inv[2]._Uio;
;;;446    snmp_inv_current[2]=inv[2]._Ii;
;;;447    snmp_inv_temperature[2]=inv[2]._Ti;
;;;448    snmp_inv_stat[2]=inv[2]._flags_tm;
;;;449    
;;;450    
;;;451    
;;;452    
;;;453    					  
;;;454    snmp_sk_number[0]=1;
;;;455    memcpy(&snmp_sk_name[0][0],"Door",10);
;;;456    if(sk_stat[0]==ssON) snmp_sk_aktiv[0]=1;
;;;457    else snmp_sk_aktiv[0]=0;
;;;458    if(!SK_SIGN[0])snmp_sk_alarm_aktiv[0]=1;
;;;459    else snmp_sk_alarm_aktiv[0]=0;
;;;460    if(sk_av_stat[0]==sasON)	snmp_sk_alarm[0]=1;
;;;461    else                     snmp_sk_alarm[0]=0;
;;;462    
;;;463    
;;;464    snmp_sk_number[1]=2;
;;;465    memcpy(&snmp_sk_name[1][0],"Smoke",10);
;;;466    if(sk_stat[1]==ssON) snmp_sk_aktiv[1]=1;
;;;467    else snmp_sk_aktiv[1]=0;
;;;468    if(!SK_SIGN[1])snmp_sk_alarm_aktiv[1]=1;
;;;469    else snmp_sk_alarm_aktiv[1]=0;
;;;470    if(sk_av_stat[1]==sasON)	snmp_sk_alarm[1]=1;
;;;471    else                     snmp_sk_alarm[1]=0;
;;;472    
;;;473    snmp_sk_number[2]=3;
;;;474    memcpy(&snmp_sk_name[2][0],"Shock",10);
;;;475    if(sk_stat[2]==ssON) snmp_sk_aktiv[2]=1;
;;;476    else snmp_sk_aktiv[2]=0;
;;;477    if(!SK_SIGN[2])snmp_sk_alarm_aktiv[2]=1;
;;;478    else snmp_sk_alarm_aktiv[2]=0;
;;;479    if(sk_av_stat[2]==sasON)	snmp_sk_alarm[2]=1;
;;;480    else                     snmp_sk_alarm[2]=0;
;;;481    
;;;482    snmp_sk_number[3]=4;
;;;483    memcpy(&snmp_sk_name[3][0],"     ",10);
;;;484    if(sk_stat[3]==ssON) snmp_sk_aktiv[3]=1;
;;;485    else snmp_sk_aktiv[3]=0;
;;;486    if(!SK_SIGN[3])snmp_sk_alarm_aktiv[3]=1;
;;;487    else snmp_sk_alarm_aktiv[3]=0;
;;;488    if(sk_av_stat[3]==sasON)	snmp_sk_alarm[3]=1;
;;;489    else                     snmp_sk_alarm[3]=0;
;;;490    
;;;491    
;;;492    if(makb[0]._cnt>8) snmp_makb_connect_status[0]=1;
;;;493    else if(makb[0]._cnt<2) snmp_makb_connect_status[0]=0;
;;;494    if(makb[1]._cnt>8) snmp_makb_connect_status[1]=1;
;;;495    else if(makb[1]._cnt<2) snmp_makb_connect_status[1]=0;
;;;496    if(makb[2]._cnt>8) snmp_makb_connect_status[2]=1;
;;;497    else if(makb[2]._cnt<2) snmp_makb_connect_status[2]=0;
;;;498    if(makb[3]._cnt>8) snmp_makb_connect_status[3]=1;
;;;499    else if(makb[3]._cnt<2) snmp_makb_connect_status[3]=0;
;;;500    
;;;501    snmp_makb_voltage0[0]=makb[0]._Ub[0];
;;;502    snmp_makb_voltage1[0]=makb[0]._Ub[1];
;;;503    snmp_makb_voltage2[0]=makb[0]._Ub[2];
;;;504    snmp_makb_voltage3[0]=makb[0]._Ub[3];
;;;505    snmp_makb_voltage4[0]=makb[0]._Ub[4];
;;;506    snmp_makb_voltage0[1]=makb[1]._Ub[0];
;;;507    snmp_makb_voltage1[1]=makb[1]._Ub[1];
;;;508    snmp_makb_voltage2[1]=makb[1]._Ub[2];
;;;509    snmp_makb_voltage3[1]=makb[1]._Ub[3];
;;;510    snmp_makb_voltage4[1]=makb[1]._Ub[4];
;;;511    snmp_makb_voltage0[2]=makb[2]._Ub[0];
;;;512    snmp_makb_voltage1[2]=makb[2]._Ub[1];
;;;513    snmp_makb_voltage2[2]=makb[2]._Ub[2];
;;;514    snmp_makb_voltage3[2]=makb[2]._Ub[3];
;;;515    snmp_makb_voltage4[2]=makb[2]._Ub[4];
;;;516    snmp_makb_voltage0[3]=makb[3]._Ub[0];
;;;517    snmp_makb_voltage1[3]=makb[3]._Ub[1];
;;;518    snmp_makb_voltage2[3]=makb[3]._Ub[2];
;;;519    snmp_makb_voltage3[3]=makb[3]._Ub[3];
;;;520    snmp_makb_voltage4[3]=makb[3]._Ub[4];
;;;521    
;;;522    snmp_makb_temper0[0]=makb[0]._T[0];
;;;523    snmp_makb_temper1[0]=makb[0]._T[1];
;;;524    snmp_makb_temper2[0]=makb[0]._T[2];
;;;525    snmp_makb_temper3[0]=makb[0]._T[3];
;;;526    snmp_makb_temper4[0]=makb[0]._T[4];
;;;527    snmp_makb_temper0[1]=makb[1]._T[0];
;;;528    snmp_makb_temper1[1]=makb[1]._T[1];
;;;529    snmp_makb_temper2[1]=makb[1]._T[2];
;;;530    snmp_makb_temper3[1]=makb[1]._T[3];
;;;531    snmp_makb_temper4[1]=makb[1]._T[4];
;;;532    snmp_makb_temper0[2]=makb[2]._T[0];
;;;533    snmp_makb_temper1[2]=makb[2]._T[1];
;;;534    snmp_makb_temper2[2]=makb[2]._T[2];
;;;535    snmp_makb_temper3[2]=makb[2]._T[3];
;;;536    snmp_makb_temper4[2]=makb[2]._T[4];
;;;537    snmp_makb_temper0[3]=makb[3]._T[0];
;;;538    snmp_makb_temper1[3]=makb[3]._T[1];
;;;539    snmp_makb_temper2[3]=makb[3]._T[2];
;;;540    snmp_makb_temper3[3]=makb[3]._T[3];
;;;541    snmp_makb_temper4[3]=makb[3]._T[4];
;;;542    
;;;543    snmp_makb_temper0_stat[0]=makb[0]._T_nd[0];
;;;544    snmp_makb_temper1_stat[0]=makb[0]._T_nd[1];
;;;545    snmp_makb_temper2_stat[0]=makb[0]._T_nd[2];
;;;546    snmp_makb_temper3_stat[0]=makb[0]._T_nd[3];
;;;547    snmp_makb_temper4_stat[0]=makb[0]._T_nd[4];
;;;548    snmp_makb_temper0_stat[1]=makb[1]._T_nd[0];
;;;549    snmp_makb_temper1_stat[1]=makb[1]._T_nd[1];
;;;550    snmp_makb_temper2_stat[1]=makb[1]._T_nd[2];
;;;551    snmp_makb_temper3_stat[1]=makb[1]._T_nd[3];
;;;552    snmp_makb_temper4_stat[1]=makb[1]._T_nd[4];
;;;553    snmp_makb_temper0_stat[2]=makb[2]._T_nd[0];
;;;554    snmp_makb_temper1_stat[2]=makb[2]._T_nd[1];
;;;555    snmp_makb_temper2_stat[2]=makb[2]._T_nd[2];
;;;556    snmp_makb_temper3_stat[2]=makb[2]._T_nd[3];
;;;557    snmp_makb_temper4_stat[2]=makb[2]._T_nd[4];
;;;558    snmp_makb_temper0_stat[3]=makb[3]._T_nd[0];
;;;559    snmp_makb_temper1_stat[3]=makb[3]._T_nd[1];
;;;560    snmp_makb_temper2_stat[3]=makb[3]._T_nd[2];
;;;561    snmp_makb_temper3_stat[3]=makb[3]._T_nd[3];
;;;562    snmp_makb_temper4_stat[3]=makb[3]._T_nd[4];
;;;563    
;;;564    
;;;565    snmp_klimat_box_temper=t_box;
;;;566    snmp_klimat_settings_box_alarm=TBOXMAX;
;;;567    snmp_klimat_settings_vent_on=TBOXVENTON;
;;;568    snmp_klimat_settings_vent_off=TBOXVENTOFF;
;;;569    snmp_klimat_settings_warm_on=TBOXWARMON;
;;;570    snmp_klimat_settings_warm_off=TBOXWARMOFF;
;;;571    snmp_klimat_settings_load_on=TLOADENABLE;
;;;572    snmp_klimat_settings_load_off=TLOADDISABLE;
;;;573    snmp_klimat_settings_batt_on=TBATENABLE;
;;;574    snmp_klimat_settings_batt_off=TBATDISABLE;
;;;575    
;;;576    snmp_dt_ext=t_ext[0];
;;;577    snmp_dt_msan=t_ext[1];
;;;578    snmp_dt_epu=t_ext[2];
;;;579    
;;;580    /*
;;;581    snmp_bat_voltage=Ubat;
;;;582    snmp_bat_current=Ibat;
;;;583    snmp_bat_temperature=t_b;
;;;584    if(BAT_C_REAL==0x5555)
;;;585    	{
;;;586    	snmp_bat_capacity=BAT_C_NOM*10;												    11
;;;587    	}
;;;588    else
;;;589    	{
;;;590    	snmp_bat_capacity=BAT_C_REAL;
;;;591    	}
;;;592    snmp_bat_charge=zar_percent;
;;;593    snmp_bat_status=0;
;;;594    if(St&0x02)snmp_bat_status|=0x01;
;;;595    if(Ibat>0)snmp_bat_status|=0x02;
;;;596    
;;;597    
;;;598    if(spc_stat==spc_OFF) snmp_spc_stat=0;
;;;599    else if(spc_stat==spc_KE) snmp_spc_stat=1;
;;;600    else if(spc_stat==spc_VZ) snmp_spc_stat=10;
;;;601    
;;;602    
;;;603    snmp_main_bps=MAIN_IST+1;
;;;604    */
;;;605    snmp_zv_en=ZV_ON;
;;;606    snmp_alarm_auto_disable=AV_OFF_AVT;
;;;607    snmp_bat_test_time=TBAT;
;;;608    snmp_u_max=UMAX;
;;;609    //snmp_u_min=UB20-DU;
;;;610    //snmp_u_0_grad=UB0;
;;;611    //snmp_u_20_grad=UB20;
;;;612    snmp_u_sign=USIGN;
;;;613    snmp_u_min_power=UMN;
;;;614    snmp_u_withouth_bat=U0B;
;;;615    snmp_control_current=IKB;
;;;616    snmp_max_charge_current=IZMAX;
;;;617    snmp_max_current=IMAX;
;;;618    snmp_min_current=IMIN;
;;;619    //snmp_max_current_koef=KIMAX;
;;;620    //snmp_uvz=UVZ;
;;;621    snmp_powerup_psu_timeout=TZAS;
;;;622    snmp_max_temperature=TMAX;
;;;623    snmp_tsign_bat=TBATSIGN; 
;;;624    snmp_tmax_bat=TBATMAX;
;;;625    snmp_tsign_bps=TSIGN;
;;;626    snmp_tmax_bps=TMAX;
;;;627    snmp_bat_part_alarm=UBM_AV; 
;;;628    snmp_power_cnt_adress=POWER_CNT_ADRESS;
;;;629    
;;;630    for(i=0;i<12;i++)
;;;631    	{
;;;632    	snmp_avt_number[i]=i+1;
;;;633    	if(avt_stat[i]==avtOFF)snmp_avt_stat[i]=0;
;;;634    	else snmp_avt_stat[i]=1;
;;;635    	}
;;;636    
;;;637    snmp_dt_number[0]=1;
;;;638    snmp_dt_number[1]=2;
;;;639    snmp_dt_number[2]=3;
;;;640    //snmp_dt_number[3]=4;
;;;641    snmp_dt_temper[0]=t_ext[0];
;;;642    snmp_dt_temper[1]=t_ext[1];
;;;643    snmp_dt_temper[2]=t_ext[2];
;;;644    //snmp_dt_temper[3]=t_ext[3];
;;;645    snmp_dt_error[0]=ND_EXT[0];
;;;646    if(NUMDT<1)snmp_dt_error[0]=0xff;
;;;647    snmp_dt_error[1]=ND_EXT[1];
;;;648    if(NUMDT<2)snmp_dt_error[0]=0xff;
;;;649    snmp_dt_error[2]=ND_EXT[2];
;;;650    if(NUMDT<3)snmp_dt_error[0]=0xff;
;;;651    //snmp_dt_error[3]=ND_EXT[3];
;;;652    if(NUMDT<4)snmp_dt_error[0]=0xff;
;;;653    
;;;654    /*
;;;655    //Литиевые батареи
;;;656    snmp_lakb_number[0]=1;								//Номер ЛАКБ
;;;657    snmp_lakb_number[1]=2;								//Номер ЛАКБ
;;;658    snmp_lakb_voltage[0]=lakb[0]._tot_bat_volt;				//Напряжение ЛАКБ
;;;659    snmp_lakb_voltage[1]=lakb[1]._tot_bat_volt;				//Напряжение ЛАКБ
;;;660    snmp_lakb_max_cell_voltage[0]=lakb[0]._max_cell_volt;		//Максимальное напряжение ячейки ЛАКБ
;;;661    snmp_lakb_max_cell_voltage[1]=lakb[1]._max_cell_volt;		//Максимальное напряжение ячейки ЛАКБ
;;;662    snmp_lakb_min_cell_voltage[0]=lakb[0]._min_cell_volt;		//Минимальное напряжение ячейки ЛАКБ
;;;663    snmp_lakb_min_cell_voltage[1]=lakb[1]._min_cell_volt;		//Минимальное напряжение ячейки ЛАКБ
;;;664    snmp_lakb_max_cell_temperature[0]=lakb[0]._max_cell_temp;	//Максимальная температура ячейки ЛАКБ
;;;665    snmp_lakb_max_cell_temperature[1]=lakb[1]._max_cell_temp;	//Максимальная температура ячейки ЛАКБ
;;;666    snmp_lakb_min_cell_temperature[0]=lakb[0]._min_cell_temp;	//Минимальная температура ячейки ЛАКБ
;;;667    snmp_lakb_min_cell_temperature[1]=lakb[1]._min_cell_temp;	//Минимальная температура ячейки ЛАКБ
;;;668    snmp_lakb_ch_curr[0]=lakb[0]._ch_curr;					//Ток заряда ЛАКБ
;;;669    snmp_lakb_ch_curr[1]=lakb[1]._ch_curr;					//Ток заряда ЛАКБ
;;;670    snmp_lakb_dsch_curr[0]=lakb[0]._dsch_curr;				//Ток разряда ЛАКБ
;;;671    snmp_lakb_dsch_curr[1]=lakb[1]._dsch_curr;				//Ток разряда ЛАКБ
;;;672    snmp_lakb_rat_cap[0]=lakb[0]._rat_cap;					//Номинальная емкость ЛАКБ
;;;673    snmp_lakb_rat_cap[1]=lakb[1]._rat_cap;					//Номинальная емкость ЛАКБ
;;;674    snmp_lakb_soh[0]=lakb[0]._s_o_h;						//Остаточная емкость ЛАКБ
;;;675    snmp_lakb_soh[1]=lakb[1]._s_o_h;						//Остаточная емкость ЛАКБ
;;;676    snmp_lakb_soc[0]=lakb[0]._s_o_c;						//Заряд ЛАКБ
;;;677    snmp_lakb_soc[1]=lakb[1]._s_o_c;						//Заряд ЛАКБ
;;;678    snmp_lakb_cclv[0]=lakb[0]._c_c_l_v;  					//Максимальный ток заряда ЛАКБ
;;;679    snmp_lakb_cclv[1]=lakb[1]._c_c_l_v;  					//Максимальный ток заряда ЛАКБ
;;;680    snmp_lakb_rbt[0]=lakb[0]._r_b_t;						//Оцениваемое время работы ЛАКБ
;;;681    snmp_lakb_rbt[1]=lakb[1]._r_b_t;						//Оцениваемое время работы ЛАКБ
;;;682    snmp_lakb_flags1[0]=lakb[0]._flags1;					//Первый флаг состояния ЛАКБ
;;;683    snmp_lakb_flags1[1]=lakb[1]._flags1;					//Первый флаг состояния ЛАКБ
;;;684    snmp_lakb_flags2[0]=lakb[0]._flags2;					//Второй флаг состояния ЛАКБ
;;;685    snmp_lakb_flags2[1]=lakb[1]._flags2;					//Второй флаг состояния ЛАКБ */
;;;686    
;;;687    //Литиевые батареи
;;;688    snmp_lakb_number[0]=1;								//Номер ЛАКБ
;;;689    snmp_lakb_number[1]=2;								//Номер ЛАКБ
;;;690    snmp_lakb_number[2]=3;								//Номер ЛАКБ
;;;691    snmp_lakb_number[3]=4;								//Номер ЛАКБ
;;;692    snmp_lakb_number[4]=5;								//Номер ЛАКБ
;;;693    snmp_lakb_number[5]=6;								//Номер ЛАКБ
;;;694    snmp_lakb_number[6]=7;								//Номер ЛАКБ
;;;695    
;;;696    for (i=0;i<3;i++)
;;;697    	{
;;;698    	snmp_lakb_voltage[i]=lakb[i]._tot_bat_volt;				//Напряжение ЛАКБ
;;;699    	snmp_lakb_max_cell_voltage[i]=lakb[i]._max_cell_volt;		//Максимальное напряжение ячейки ЛАКБ
;;;700    	snmp_lakb_min_cell_voltage[i]=lakb[i]._min_cell_volt;		//Минимальное напряжение ячейки ЛАКБ
;;;701    	snmp_lakb_max_cell_temperature[i]=lakb[i]._max_cell_temp;	//Максимальная температура ячейки ЛАКБ
;;;702    	//snmp_lakb_max_cell_temperature[1]=lakb[1]._max_cell_temp;	//Максимальная температура ячейки ЛАКБ
;;;703    	snmp_lakb_min_cell_temperature[i]=lakb[i]._min_cell_temp;	//Минимальная температура ячейки ЛАКБ
;;;704    	//snmp_lakb_min_cell_temperature[1]=lakb[1]._min_cell_temp;	//Минимальная температура ячейки ЛАКБ
;;;705    	snmp_lakb_ch_curr[i]=lakb[i]._ch_curr;					//Ток заряда ЛАКБ
;;;706    	//snmp_lakb_ch_curr[1]=lakb[1]._ch_curr;					//Ток заряда ЛАКБ
;;;707    	snmp_lakb_dsch_curr[i]=lakb[i]._dsch_curr;				//Ток разряда ЛАКБ
;;;708    	//snmp_lakb_dsch_curr[1]=lakb[1]._dsch_curr;				//Ток разряда ЛАКБ
;;;709    	snmp_lakb_rat_cap[i]=lakb[i]._rat_cap;					//Номинальная емкость ЛАКБ
;;;710    	//snmp_lakb_rat_cap[1]=lakb[1]._rat_cap;					//Номинальная емкость ЛАКБ
;;;711    	snmp_lakb_soh[i]=lakb[i]._s_o_h;						//Остаточная емкость ЛАКБ
;;;712    	//snmp_lakb_soh[1]=lakb[1]._s_o_h;						//Остаточная емкость ЛАКБ
;;;713    	snmp_lakb_soc[i]=lakb[i]._s_o_c;						//Заряд ЛАКБ
;;;714    	//snmp_lakb_soc[1]=lakb[1]._s_o_c;						//Заряд ЛАКБ
;;;715    	snmp_lakb_cclv[i]=lakb[i]._c_c_l_v;  					//Максимальный ток заряда ЛАКБ
;;;716    	//snmp_lakb_cclv[1]=lakb[1]._c_c_l_v;  					//Максимальный ток заряда ЛАКБ
;;;717    	snmp_lakb_rbt[i]=lakb[i]._r_b_t;						//Оцениваемое время работы ЛАКБ
;;;718    	//snmp_lakb_rbt[1]=lakb[1]._r_b_t;						//Оцениваемое время работы ЛАКБ
;;;719    	snmp_lakb_flags1[i]=lakb[i]._flags1;					//Первый флаг состояния ЛАКБ
;;;720    	//snmp_lakb_flags1[1]=lakb[1]._flags1;					//Первый флаг состояния ЛАКБ
;;;721    	snmp_lakb_flags2[i]=lakb[i]._flags2;					//Второй флаг состояния ЛАКБ
;;;722    	//snmp_lakb_flags2[1]=lakb[1]._flags2;					//Второй флаг состояния ЛАКБ
;;;723    
;;;724    	snmp_lakb_cell_temperature_1[i]= lakb[i]._cell_temp_1;
;;;725    	snmp_lakb_cell_temperature_2[i]= lakb[i]._cell_temp_2;
;;;726    	snmp_lakb_cell_temperature_3[i]= lakb[i]._cell_temp_3;
;;;727    	snmp_lakb_cell_temperature_4[i]= lakb[i]._cell_temp_4;
;;;728    	snmp_lakb_cell_temperature_ambient[i]=lakb[i]._cell_temp_ambient;
;;;729    	snmp_lakb_cell_temperature_power[i]=lakb[i]._cell_temp_power;
;;;730    	}
;;;731    
;;;732    for (i=0;i<7;i++)
;;;733    {
;;;734    /*
;;;735    snmp_lakb_damp1[i][0]=ABCDEF[(lakb_damp[i][0])>>4];			//Дамп
;;;736    snmp_lakb_damp1[i][1]=ABCDEF[(lakb_damp[i][0])&0x0f];			//Дамп
;;;737    snmp_lakb_damp1[i][2]=' ';
;;;738    snmp_lakb_damp1[i][3]=ABCDEF[(lakb_damp[i][1])>>4];			//Дамп
;;;739    snmp_lakb_damp1[i][4]=ABCDEF[(lakb_damp[i][1])&0x0f];			//Дамп
;;;740    snmp_lakb_damp1[i][5]=' ';
;;;741    snmp_lakb_damp1[i][6]=ABCDEF[(lakb_damp[i][2])>>4];			//Дамп
;;;742    snmp_lakb_damp1[i][7]=ABCDEF[(lakb_damp[i][2])&0x0f];			//Дамп
;;;743    snmp_lakb_damp1[i][8]=' ';
;;;744    snmp_lakb_damp1[i][9]=ABCDEF[(lakb_damp[i][3])>>4];			//Дамп
;;;745    snmp_lakb_damp1[i][10]=ABCDEF[(lakb_damp[i][3])&0x0f];			//Дамп
;;;746    snmp_lakb_damp1[i][11]=' ';
;;;747    snmp_lakb_damp1[i][12]=ABCDEF[(lakb_damp[i][4])>>4];			//Дамп
;;;748    snmp_lakb_damp1[i][13]=ABCDEF[(lakb_damp[i][4])&0x0f];			//Дамп
;;;749    snmp_lakb_damp1[i][14]=' '; 
;;;750    snmp_lakb_damp1[i][15]=ABCDEF[(lakb_damp[i][5])>>4];			//Дамп
;;;751    snmp_lakb_damp1[i][16]=ABCDEF[(lakb_damp[i][5])&0x0f];			//Дамп
;;;752    snmp_lakb_damp1[i][17]=' ';
;;;753    snmp_lakb_damp1[i][18]=ABCDEF[(lakb_damp[i][6])>>4];			//Дамп
;;;754    snmp_lakb_damp1[i][19]=ABCDEF[(lakb_damp[i][6])&0x0f];			//Дамп
;;;755    snmp_lakb_damp1[i][20]=' ';
;;;756    snmp_lakb_damp1[i][21]=ABCDEF[(lakb_damp[i][7])>>4];			//Дамп
;;;757    snmp_lakb_damp1[i][22]=ABCDEF[(lakb_damp[i][7])&0x0f];			//Дамп
;;;758    snmp_lakb_damp1[i][23]=' ';
;;;759    snmp_lakb_damp1[i][24]=ABCDEF[(lakb_damp[i][8])>>4];			//Дамп
;;;760    snmp_lakb_damp1[i][25]=ABCDEF[(lakb_damp[i][8])&0x0f];			//Дамп
;;;761    snmp_lakb_damp1[i][26]=' ';
;;;762    snmp_lakb_damp1[i][27]=ABCDEF[(lakb_damp[i][9])>>4];			//Дамп
;;;763    snmp_lakb_damp1[i][28]=ABCDEF[(lakb_damp[i][9])&0x0f];			//Дамп
;;;764    snmp_lakb_damp1[i][29]=0; 
;;;765    
;;;766    snmp_lakb_damp1[i][30]=ABCDEF[(lakb_damp[i][10])>>4];			//Дамп
;;;767    snmp_lakb_damp1[i][31]=ABCDEF[(lakb_damp[i][10])&0x0f];			//Дамп
;;;768    snmp_lakb_damp1[i][32]=' ';
;;;769    snmp_lakb_damp1[i][33]=ABCDEF[(lakb_damp[i][11])>>4];			//Дамп
;;;770    snmp_lakb_damp1[i][34]=ABCDEF[(lakb_damp[i][11])&0x0f];			//Дамп
;;;771    snmp_lakb_damp1[i][35]=' ';
;;;772    snmp_lakb_damp1[i][36]=ABCDEF[(lakb_damp[i][12])>>4];			//Дамп
;;;773    snmp_lakb_damp1[i][37]=ABCDEF[(lakb_damp[i][12])&0x0f];			//Дамп
;;;774    snmp_lakb_damp1[i][38]=' ';
;;;775    snmp_lakb_damp1[i][39]=ABCDEF[(lakb_damp[i][13])>>4];			//Дамп
;;;776    snmp_lakb_damp1[i][40]=ABCDEF[(lakb_damp[i][13])&0x0f];			//Дамп
;;;777    snmp_lakb_damp1[i][41]=' ';
;;;778    snmp_lakb_damp1[i][42]=ABCDEF[(lakb_damp[i][14])>>4];			//Дамп
;;;779    snmp_lakb_damp1[i][43]=ABCDEF[(lakb_damp[i][14])&0x0f];			//Дамп
;;;780    snmp_lakb_damp1[i][44]=' '; 
;;;781    snmp_lakb_damp1[i][45]=ABCDEF[(lakb_damp[i][15])>>4];			//Дамп
;;;782    snmp_lakb_damp1[i][46]=ABCDEF[(lakb_damp[i][15])&0x0f];			//Дамп
;;;783    snmp_lakb_damp1[i][47]=' ';
;;;784    snmp_lakb_damp1[i][48]=ABCDEF[(lakb_damp[i][16])>>4];			//Дамп
;;;785    snmp_lakb_damp1[i][49]=ABCDEF[(lakb_damp[i][16])&0x0f];			//Дамп
;;;786    snmp_lakb_damp1[i][50]=' ';
;;;787    snmp_lakb_damp1[i][51]=ABCDEF[(lakb_damp[i][17])>>4];			//Дамп
;;;788    snmp_lakb_damp1[i][52]=ABCDEF[(lakb_damp[i][17])&0x0f];			//Дамп
;;;789    snmp_lakb_damp1[i][53]=' ';
;;;790    snmp_lakb_damp1[i][54]=ABCDEF[(lakb_damp[i][18])>>4];			//Дамп
;;;791    snmp_lakb_damp1[i][55]=ABCDEF[(lakb_damp[i][18])&0x0f];			//Дамп
;;;792    snmp_lakb_damp1[i][56]=' ';
;;;793    snmp_lakb_damp1[i][57]=ABCDEF[(lakb_damp[i][19])>>4];			//Дамп
;;;794    snmp_lakb_damp1[i][58]=ABCDEF[(lakb_damp[i][19])&0x0f];			//Дамп
;;;795    snmp_lakb_damp1[i][59]=0; 
;;;796    
;;;797    
;;;798    snmp_lakb_damp1[i][60]=ABCDEF[(lakb_damp[i][20])>>4];			//Дамп
;;;799    snmp_lakb_damp1[i][61]=ABCDEF[(lakb_damp[i][20])&0x0f];			//Дамп
;;;800    snmp_lakb_damp1[i][62]=' ';
;;;801    snmp_lakb_damp1[i][63]=ABCDEF[(lakb_damp[i][21])>>4];			//Дамп
;;;802    snmp_lakb_damp1[i][64]=ABCDEF[(lakb_damp[i][21])&0x0f];			//Дамп
;;;803    snmp_lakb_damp1[i][65]=' ';
;;;804    snmp_lakb_damp1[i][66]=ABCDEF[(lakb_damp[i][22])>>4];			//Дамп
;;;805    snmp_lakb_damp1[i][67]=ABCDEF[(lakb_damp[i][22])&0x0f];			//Дамп
;;;806    snmp_lakb_damp1[i][68]=' ';
;;;807    snmp_lakb_damp1[i][69]=ABCDEF[(lakb_damp[i][23])>>4];			//Дамп
;;;808    snmp_lakb_damp1[i][70]=ABCDEF[(lakb_damp[i][23])&0x0f];			//Дамп
;;;809    snmp_lakb_damp1[i][71]=' ';
;;;810    snmp_lakb_damp1[i][72]=ABCDEF[(lakb_damp[i][24])>>4];			//Дамп
;;;811    snmp_lakb_damp1[i][73]=ABCDEF[(lakb_damp[i][24])&0x0f];			//Дамп
;;;812    snmp_lakb_damp1[i][74]=' '; 
;;;813    snmp_lakb_damp1[i][75]=ABCDEF[(lakb_damp[i][25])>>4];			//Дамп
;;;814    snmp_lakb_damp1[i][76]=ABCDEF[(lakb_damp[i][25])&0x0f];			//Дамп
;;;815    snmp_lakb_damp1[i][77]=' ';
;;;816    snmp_lakb_damp1[i][78]=ABCDEF[(lakb_damp[i][26])>>4];			//Дамп
;;;817    snmp_lakb_damp1[i][79]=ABCDEF[(lakb_damp[i][26])&0x0f];			//Дамп
;;;818    snmp_lakb_damp1[i][80]=' ';
;;;819    snmp_lakb_damp1[i][81]=ABCDEF[(lakb_damp[i][27])>>4];			//Дамп
;;;820    snmp_lakb_damp1[i][82]=ABCDEF[(lakb_damp[i][27])&0x0f];			//Дамп
;;;821    snmp_lakb_damp1[i][83]=' ';
;;;822    snmp_lakb_damp1[i][84]=ABCDEF[(lakb_damp[i][28])>>4];			//Дамп
;;;823    snmp_lakb_damp1[i][85]=ABCDEF[(lakb_damp[i][28])&0x0f];			//Дамп
;;;824    snmp_lakb_damp1[i][86]=' ';
;;;825    snmp_lakb_damp1[i][87]=ABCDEF[(lakb_damp[i][29])>>4];			//Дамп
;;;826    snmp_lakb_damp1[i][88]=ABCDEF[(lakb_damp[i][29])&0x0f];			//Дамп
;;;827    snmp_lakb_damp1[i][89]=0;
;;;828    
;;;829    
;;;830    snmp_lakb_damp1[i][90]=ABCDEF[(lakb_damp[i][30])>>4];			//Дамп
;;;831    snmp_lakb_damp1[i][91]=ABCDEF[(lakb_damp[i][30])&0x0f];			//Дамп
;;;832    snmp_lakb_damp1[i][92]=' ';
;;;833    snmp_lakb_damp1[i][93]=ABCDEF[(lakb_damp[i][31])>>4];			//Дамп
;;;834    snmp_lakb_damp1[i][94]=ABCDEF[(lakb_damp[i][31])&0x0f];			//Дамп
;;;835    snmp_lakb_damp1[i][95]=' ';
;;;836    snmp_lakb_damp1[i][96]=ABCDEF[(lakb_damp[i][32])>>4];			//Дамп
;;;837    snmp_lakb_damp1[i][97]=ABCDEF[(lakb_damp[i][32])&0x0f];			//Дамп
;;;838    snmp_lakb_damp1[i][98]=' ';
;;;839    snmp_lakb_damp1[i][99]=ABCDEF[(lakb_damp[i][33])>>4];			//Дамп
;;;840    snmp_lakb_damp1[i][100]=ABCDEF[(lakb_damp[i][33])&0x0f];			//Дамп
;;;841    snmp_lakb_damp1[i][101]=' ';
;;;842    snmp_lakb_damp1[i][102]=ABCDEF[(lakb_damp[i][34])>>4];			//Дамп
;;;843    snmp_lakb_damp1[i][103]=ABCDEF[(lakb_damp[i][34])&0x0f];			//Дамп
;;;844    snmp_lakb_damp1[i][104]=' '; 
;;;845    snmp_lakb_damp1[i][105]=ABCDEF[(lakb_damp[i][35])>>4];			//Дамп
;;;846    snmp_lakb_damp1[i][106]=ABCDEF[(lakb_damp[i][35])&0x0f];			//Дамп
;;;847    snmp_lakb_damp1[i][107]=' ';
;;;848    snmp_lakb_damp1[i][108]=ABCDEF[(lakb_damp[i][36])>>4];			//Дамп
;;;849    snmp_lakb_damp1[i][109]=ABCDEF[(lakb_damp[i][36])&0x0f];			//Дамп
;;;850    snmp_lakb_damp1[i][110]=' ';
;;;851    snmp_lakb_damp1[i][111]=ABCDEF[(lakb_damp[i][37])>>4];			//Дамп
;;;852    snmp_lakb_damp1[i][112]=ABCDEF[(lakb_damp[i][37])&0x0f];			//Дамп
;;;853    snmp_lakb_damp1[i][113]=' ';
;;;854    snmp_lakb_damp1[i][114]=ABCDEF[(lakb_damp[i][38])>>4];			//Дамп
;;;855    snmp_lakb_damp1[i][115]=ABCDEF[(lakb_damp[i][38])&0x0f];			//Дамп
;;;856    snmp_lakb_damp1[i][116]=' ';
;;;857    snmp_lakb_damp1[i][117]=ABCDEF[(lakb_damp[i][39])>>4];			//Дамп
;;;858    snmp_lakb_damp1[i][118]=ABCDEF[(lakb_damp[i][39])&0x0f];			//Дамп
;;;859    snmp_lakb_damp1[i][119]=0; 
;;;860     
;;;861    
;;;862    snmp_lakb_damp1[i][120]=ABCDEF[(lakb_damp[i][40])>>4];			//Дамп
;;;863    snmp_lakb_damp1[i][121]=ABCDEF[(lakb_damp[i][40])&0x0f];			//Дамп
;;;864    snmp_lakb_damp1[i][122]=' ';
;;;865    snmp_lakb_damp1[i][123]=ABCDEF[(lakb_damp[i][41])>>4];			//Дамп
;;;866    snmp_lakb_damp1[i][124]=ABCDEF[(lakb_damp[i][41])&0x0f];			//Дамп
;;;867    snmp_lakb_damp1[i][125]=' ';
;;;868    snmp_lakb_damp1[i][126]=ABCDEF[(lakb_damp[i][42])>>4];			//Дамп
;;;869    snmp_lakb_damp1[i][127]=ABCDEF[(lakb_damp[i][42])&0x0f];			//Дамп
;;;870    snmp_lakb_damp1[i][128]=' ';
;;;871    snmp_lakb_damp1[i][129]=ABCDEF[(lakb_damp[i][43])>>4];			//Дамп
;;;872    snmp_lakb_damp1[i][130]=ABCDEF[(lakb_damp[i][43])&0x0f];			//Дамп
;;;873    snmp_lakb_damp1[i][131]=' ';
;;;874    snmp_lakb_damp1[i][132]=ABCDEF[(lakb_damp[i][44])>>4];			//Дамп
;;;875    snmp_lakb_damp1[i][133]=ABCDEF[(lakb_damp[i][44])&0x0f];			//Дамп
;;;876    snmp_lakb_damp1[i][134]=' '; 
;;;877    snmp_lakb_damp1[i][135]=ABCDEF[(lakb_damp[i][45])>>4];			//Дамп
;;;878    snmp_lakb_damp1[i][136]=ABCDEF[(lakb_damp[i][45])&0x0f];			//Дамп
;;;879    snmp_lakb_damp1[i][137]=' ';
;;;880    snmp_lakb_damp1[i][138]=ABCDEF[(lakb_damp[i][46])>>4];			//Дамп
;;;881    snmp_lakb_damp1[i][139]=ABCDEF[(lakb_damp[i][46])&0x0f];			//Дамп
;;;882    snmp_lakb_damp1[i][140]=' ';
;;;883    snmp_lakb_damp1[i][141]=ABCDEF[(lakb_damp[i][47])>>4];			//Дамп
;;;884    snmp_lakb_damp1[i][142]=ABCDEF[(lakb_damp[i][47])&0x0f];			//Дамп
;;;885    snmp_lakb_damp1[i][143]=' ';
;;;886    snmp_lakb_damp1[i][144]=ABCDEF[(lakb_damp[i][48])>>4];			//Дамп
;;;887    snmp_lakb_damp1[i][145]=ABCDEF[(lakb_damp[i][48])&0x0f];			//Дамп
;;;888    snmp_lakb_damp1[i][146]=' ';
;;;889    snmp_lakb_damp1[i][147]=ABCDEF[(lakb_damp[i][49])>>4];			//Дамп
;;;890    snmp_lakb_damp1[i][148]=ABCDEF[(lakb_damp[i][49])&0x0f];			//Дамп
;;;891    snmp_lakb_damp1[i][149]=0;  */
;;;892    }
;;;893    
;;;894    #ifdef UKU_TELECORE2017
;;;895    snmp_warm_sign=0;
;;;896    if(TELECORE2017_KLIMAT_WARM_SIGNAL==0) snmp_warm_sign=2;
;;;897    else if(TELECORE2017_KLIMAT_WARM_SIGNAL==1) snmp_warm_sign=1;
;;;898    snmp_cool_sign=0;
;;;899    if(TELECORE2017_KLIMAT_VENT_SIGNAL==0) snmp_cool_sign=2;
;;;900    else if(TELECORE2017_KLIMAT_VENT_SIGNAL==1) snmp_cool_sign=1;
;;;901    snmp_warm_on_temper=(signed char)TELECORE2017_KLIMAT_WARM_ON; 
;;;902    snmp_warm_off_temper=(signed char)TELECORE2017_KLIMAT_WARM_OFF;
;;;903    snmp_warm_q=(signed char)TELECORE2017_KLIMAT_CAP;	
;;;904    snmp_cool_20_temper=(signed char)TELECORE2017_KLIMAT_VENT_ON20;
;;;905    snmp_cool_40_temper=(signed char)TELECORE2017_KLIMAT_VENT_ON40;
;;;906    snmp_cool_60_temper=(signed char)TELECORE2017_KLIMAT_VENT_ON60;
;;;907    snmp_cool_80_temper=(signed char)TELECORE2017_KLIMAT_VENT_ON80;
;;;908    snmp_cool_100_temper=(signed char)TELECORE2017_KLIMAT_VENT_ON100;
;;;909    snmp_cool_20_dtemper=(signed char)TELECORE2017_KLIMAT_DVENT_ON20;
;;;910    snmp_cool_40_dtemper=(signed char)TELECORE2017_KLIMAT_DVENT_ON40;
;;;911    snmp_cool_60_dtemper=(signed char)TELECORE2017_KLIMAT_DVENT_ON60;
;;;912    snmp_cool_80_dtemper=(signed char)TELECORE2017_KLIMAT_DVENT_ON80;
;;;913    snmp_cool_100_dtemper=(signed char)TELECORE2017_KLIMAT_DVENT_ON100;
;;;914    snmp_warm_stat=0;
;;;915    if(warm_stat_k==wsON) snmp_warm_stat=1;
;;;916    #endif
;;;917    }
;;;918    //-----------------------------------------------
                          ENDP

000012  0000              DCW      0x0000
                  |L14.20|
                          DCD      ||.data||

                          AREA ||area_number.15||, CODE, READONLY, ALIGN=2

                          EXPORTAS ||area_number.15||, ||.text||
                  snmp_klimat_settings_load_off_write PROC
;;;259    //-----------------------------------------------
;;;260    void snmp_data (void) 
000000  2801              CMP      r0,#1
;;;261    {
000002  d105              BNE      |L15.16|
;;;262    char i;
;;;263    
;;;264    snmp_mains_power_voltage=net_U;
000004  4803              LDR      r0,|L15.20|
000006  f9b01078          LDRSH    r1,[r0,#0x78]  ; snmp_klimat_settings_load_off
00000a  20d6              MOVS     r0,#0xd6
;;;265    #ifdef UKU_220_IPS_TERMOKOMPENSAT
;;;266    snmp_mains_power_frequency=net_F3;
00000c  f7ffbffe          B.W      lc640_write_int
                  |L15.16|
000010  4770              BX       lr
;;;267    #else
;;;268    snmp_mains_power_frequency=net_F;
;;;269    #endif
;;;270    snmp_mains_power_voltage_phaseA=net_Ua;
;;;271    snmp_mains_power_voltage_phaseB=net_Ub;
;;;272    snmp_mains_power_voltage_phaseC=net_Uc;
;;;273    
;;;274    /*
;;;275    snmp_mains_power_status=0; 
;;;276    #if(UKU_VERSION==900)
;;;277    snmp_mains_power_status=2;
;;;278    #endif
;;;279    if(St&0x01)snmp_mains_power_status|=0x01;
;;;280    if(St&0x01)snmp_mains_power_alarm=1;
;;;281    
;;;282    
;;;283    
;;;284    
;;;285    
;;;286    
;;;287    for(i=0;i<snmp_numofevents;i++)event2snmp(i);
;;;288    //snmp_bpsnumber[0]=1;
;;;289    //snmp_bpsnumber[1]=2;
;;;290    
;;;291    snmp_sernum=AUSW_MAIN_NUMBER;
;;;292    snmp_sernum_lsb=0x1122;
;;;293    snmp_sernum_msb=0x3344;
;;;294    snmp_device_code=AUSW_MAIN;
;;;295    
;;;296    //memcpy(snmp_location,"lkhg;la",);
;;;297    
;;;298    
;;;299    snmp_numofbat=1;
;;;300    
;;;301    */
;;;302    
;;;303    snmp_load_voltage=load_U;
;;;304    snmp_load_current=load_I;
;;;305    snmp_numofbat=NUMBAT;
;;;306    snmp_numofbps=NUMIST;
;;;307    snmp_numofinv=NUMINV;
;;;308    snmp_numofavt=NUMAVT;
;;;309    snmp_numofdt=NUMDT;
;;;310    snmp_numofsk=NUMSK;
;;;311    snmp_numofevents=lc640_read_int(CNT_EVENT_LOG);
;;;312    
;;;313    snmp_energy_vvod_phase_a=Uvv_eb2[0];
;;;314    snmp_energy_vvod_phase_b=Uvv_eb2[1];
;;;315    snmp_energy_vvod_phase_c=Uvv_eb2[2];
;;;316    snmp_energy_pes_phase_a=Upes_eb2[0];
;;;317    snmp_energy_pes_phase_b=Upes_eb2[1];
;;;318    snmp_energy_pes_phase_c=Upes_eb2[2];
;;;319    
;;;320    #ifdef UKU_KONTUR
;;;321    snmp_energy_vvod_phase_a=Uvv0;
;;;322    snmp_energy_pes_phase_a=Uvv[1];
;;;323    #endif
;;;324    
;;;325    snmp_energy_total_energy=power_summary;
;;;326    snmp_energy_current_energy=power_current;
;;;327    snmp_energy_input_voltage=net_U;
;;;328    
;;;329    snmp_bat_number[0]=1;
;;;330    snmp_bat_voltage[0]=bat[0]._Ub;
;;;331    snmp_bat_part_voltage[0]=bat[0]._Ubm;
;;;332    snmp_bat_current[0]=bat[0]._Ib;
;;;333    
;;;334    #ifdef UKU_220_IPS_TERMOKOMPENSAT
;;;335    if(((AUSW_MAIN==22063)||(AUSW_MAIN==22023))&&(bps[8]._device==dIBAT_METR))
;;;336    	{
;;;337    	snmp_bat_current[0]=Ib_ips_termokompensat;
;;;338    	}
;;;339    #endif
;;;340    
;;;341    snmp_bat_temperature[0]=bat[0]._Tb;
;;;342    if(BAT_C_REAL[0]==0x5555)snmp_bat_capacity[0]=BAT_C_NOM[0];
;;;343    else snmp_bat_capacity[0]=BAT_C_REAL[0];
;;;344    snmp_bat_charge[0]=bat[0]._zar;
;;;345    snmp_bat_status[0]=bat[0]._av;
;;;346    if(BAT_IS_ON[0]!=bisON)snmp_bat_status[0]=0xff;
;;;347    
;;;348    snmp_bat_number[1]=2;
;;;349    snmp_bat_voltage[1]=bat[1]._Ub;
;;;350    snmp_bat_part_voltage[1]=bat[1]._Ubm;
;;;351    snmp_bat_current[1]=bat[1]._Ib;
;;;352    snmp_bat_temperature[1]=bat[1]._Tb;
;;;353    if(BAT_C_REAL[1]==0x5555)snmp_bat_capacity[1]=BAT_C_NOM[1];
;;;354    else snmp_bat_capacity[1]=BAT_C_REAL[1];
;;;355    snmp_bat_charge[1]=bat[1]._zar;
;;;356    snmp_bat_status[1]=bat[1]._av;
;;;357    if(BAT_IS_ON[1]!=bisON)snmp_bat_status[1]=0xff;
;;;358    
;;;359    
;;;360    
;;;361    snmp_bps_number[0]=1;
;;;362    snmp_bps_voltage[0]=bps[0]._Uii;
;;;363    snmp_bps_current[0]=bps[0]._Ii;
;;;364    snmp_bps_temperature[0]=bps[0]._Ti;
;;;365    snmp_bps_stat[0]=bps[0]._av;
;;;366    if(!(NUMIST>0))snmp_bps_stat[0]=0xff;												//Байт состояния БПСа.
;;;367    
;;;368    /*if(St_[0]&(1<<2))snmp_bps_stat[0]=(1<<3); 							//авария по Umin
;;;369    else if(St_[0]&(1<<3))snmp_bps_stat[0]=(1<<2); 						//авария по Umax
;;;370    else if(bps[0]._av&(1<<0))snmp_bps_stat[0]=(1<<1); 						//авария по Tmax
;;;371    else if(St_[0]&(1<<5))snmp_bps_stat[0]=(1<<5); 						//заблокирован
;;;372    else if((!(St_[0]&0x3c))&&(!St&0x01)&&(!OFFBP1))snmp_bps_stat[0]=1; 		//Работает
;;;373    */
;;;374    
;;;375    snmp_bps_number[1]=2;
;;;376    snmp_bps_voltage[1]=bps[1]._Uii;
;;;377    snmp_bps_current[1]=bps[1]._Ii;
;;;378    snmp_bps_temperature[1]=bps[1]._Ti;
;;;379    snmp_bps_stat[1]=bps[1]._av;
;;;380    if(!(NUMIST>1))snmp_bps_stat[1]=0xff;												//Байт состояния БПСа.
;;;381    /*if(St_[1]&(1<<2))snmp_bps_stat[1]=(1<<3); 							//авария по Umin
;;;382    else if(St_[1]&(1<<3))snmp_bps_stat[1]=(1<<2); 						//авария по Umax
;;;383    else if(St_[1]&(1<<4))snmp_bps_stat[1]=(1<<1); 						//авария по Tmax
;;;384    else if(St_[1]&(1<<5))snmp_bps_stat[1]=(1<<5); 						//заблокирован
;;;385    else if((!(St_[1]&0x3c))&&(!St&0x01)&&(!OFFBP2))snmp_bps_stat[1]=1; 		//Работает
;;;386    */
;;;387    
;;;388    snmp_bps_number[2]=3;
;;;389    snmp_bps_voltage[2]=bps[2]._Uii;
;;;390    snmp_bps_current[2]=bps[2]._Ii;
;;;391    snmp_bps_temperature[2]=bps[2]._Ti;
;;;392    snmp_bps_stat[2]=bps[2]._av;
;;;393    if(!(NUMIST>2))snmp_bps_stat[2]=0xff;
;;;394    
;;;395    snmp_bps_number[3]=4;
;;;396    snmp_bps_voltage[3]=bps[3]._Uii;
;;;397    snmp_bps_current[3]=bps[3]._Ii;
;;;398    snmp_bps_temperature[3]=bps[3]._Ti;
;;;399    snmp_bps_stat[3]=bps[3]._av;
;;;400    if(!(NUMIST>3))snmp_bps_stat[3]=0xff;
;;;401    
;;;402    snmp_bps_number[4]=5;
;;;403    snmp_bps_voltage[4]=bps[4]._Uii;
;;;404    snmp_bps_current[4]=bps[4]._Ii;
;;;405    snmp_bps_temperature[4]=bps[4]._Ti;
;;;406    snmp_bps_stat[4]=bps[4]._av;
;;;407    if(!(NUMIST>4))snmp_bps_stat[4]=0xff;
;;;408    
;;;409    snmp_bps_number[5]=6;
;;;410    snmp_bps_voltage[5]=bps[5]._Uii;
;;;411    snmp_bps_current[5]=bps[5]._Ii;
;;;412    snmp_bps_temperature[5]=bps[5]._Ti;
;;;413    snmp_bps_stat[5]=bps[5]._av;
;;;414    if(!(NUMIST>5))snmp_bps_stat[5]=0xff;
;;;415    
;;;416    snmp_bps_number[6]=7;
;;;417    snmp_bps_voltage[6]=bps[6]._Uii;
;;;418    snmp_bps_current[6]=bps[6]._Ii;
;;;419    snmp_bps_temperature[6]=bps[6]._Ti;
;;;420    snmp_bps_stat[6]=bps[6]._av;
;;;421    if(!(NUMIST>6))snmp_bps_stat[6]=0xff;
;;;422    
;;;423    snmp_bps_number[7]=8;
;;;424    snmp_bps_voltage[7]=bps[7]._Uii;
;;;425    snmp_bps_current[7]=bps[7]._Ii;
;;;426    snmp_bps_temperature[7]=bps[7]._Ti;
;;;427    snmp_bps_stat[7]=bps[7]._av;
;;;428    if(!(NUMIST>7))snmp_bps_stat[7]=0xff;
;;;429    
;;;430    
;;;431    
;;;432    snmp_inv_number[0]=1;
;;;433    snmp_inv_voltage[0]=inv[0]._Uio;
;;;434    snmp_inv_current[0]=inv[0]._Ii;
;;;435    snmp_inv_temperature[0]=inv[0]._Ti;
;;;436    snmp_inv_stat[0]=inv[0]._flags_tm;
;;;437    
;;;438    snmp_inv_number[1]=2;
;;;439    snmp_inv_voltage[1]=inv[1]._Uio;
;;;440    snmp_inv_current[1]=inv[1]._Ii;
;;;441    snmp_inv_temperature[1]=inv[1]._Ti;
;;;442    snmp_inv_stat[1]=inv[1]._flags_tm;
;;;443    
;;;444    snmp_inv_number[2]=3;
;;;445    snmp_inv_voltage[2]=inv[2]._Uio;
;;;446    snmp_inv_current[2]=inv[2]._Ii;
;;;447    snmp_inv_temperature[2]=inv[2]._Ti;
;;;448    snmp_inv_stat[2]=inv[2]._flags_tm;
;;;449    
;;;450    
;;;451    
;;;452    
;;;453    					  
;;;454    snmp_sk_number[0]=1;
;;;455    memcpy(&snmp_sk_name[0][0],"Door",10);
;;;456    if(sk_stat[0]==ssON) snmp_sk_aktiv[0]=1;
;;;457    else snmp_sk_aktiv[0]=0;
;;;458    if(!SK_SIGN[0])snmp_sk_alarm_aktiv[0]=1;
;;;459    else snmp_sk_alarm_aktiv[0]=0;
;;;460    if(sk_av_stat[0]==sasON)	snmp_sk_alarm[0]=1;
;;;461    else                     snmp_sk_alarm[0]=0;
;;;462    
;;;463    
;;;464    snmp_sk_number[1]=2;
;;;465    memcpy(&snmp_sk_name[1][0],"Smoke",10);
;;;466    if(sk_stat[1]==ssON) snmp_sk_aktiv[1]=1;
;;;467    else snmp_sk_aktiv[1]=0;
;;;468    if(!SK_SIGN[1])snmp_sk_alarm_aktiv[1]=1;
;;;469    else snmp_sk_alarm_aktiv[1]=0;
;;;470    if(sk_av_stat[1]==sasON)	snmp_sk_alarm[1]=1;
;;;471    else                     snmp_sk_alarm[1]=0;
;;;472    
;;;473    snmp_sk_number[2]=3;
;;;474    memcpy(&snmp_sk_name[2][0],"Shock",10);
;;;475    if(sk_stat[2]==ssON) snmp_sk_aktiv[2]=1;
;;;476    else snmp_sk_aktiv[2]=0;
;;;477    if(!SK_SIGN[2])snmp_sk_alarm_aktiv[2]=1;
;;;478    else snmp_sk_alarm_aktiv[2]=0;
;;;479    if(sk_av_stat[2]==sasON)	snmp_sk_alarm[2]=1;
;;;480    else                     snmp_sk_alarm[2]=0;
;;;481    
;;;482    snmp_sk_number[3]=4;
;;;483    memcpy(&snmp_sk_name[3][0],"     ",10);
;;;484    if(sk_stat[3]==ssON) snmp_sk_aktiv[3]=1;
;;;485    else snmp_sk_aktiv[3]=0;
;;;486    if(!SK_SIGN[3])snmp_sk_alarm_aktiv[3]=1;
;;;487    else snmp_sk_alarm_aktiv[3]=0;
;;;488    if(sk_av_stat[3]==sasON)	snmp_sk_alarm[3]=1;
;;;489    else                     snmp_sk_alarm[3]=0;
;;;490    
;;;491    
;;;492    if(makb[0]._cnt>8) snmp_makb_connect_status[0]=1;
;;;493    else if(makb[0]._cnt<2) snmp_makb_connect_status[0]=0;
;;;494    if(makb[1]._cnt>8) snmp_makb_connect_status[1]=1;
;;;495    else if(makb[1]._cnt<2) snmp_makb_connect_status[1]=0;
;;;496    if(makb[2]._cnt>8) snmp_makb_connect_status[2]=1;
;;;497    else if(makb[2]._cnt<2) snmp_makb_connect_status[2]=0;
;;;498    if(makb[3]._cnt>8) snmp_makb_connect_status[3]=1;
;;;499    else if(makb[3]._cnt<2) snmp_makb_connect_status[3]=0;
;;;500    
;;;501    snmp_makb_voltage0[0]=makb[0]._Ub[0];
;;;502    snmp_makb_voltage1[0]=makb[0]._Ub[1];
;;;503    snmp_makb_voltage2[0]=makb[0]._Ub[2];
;;;504    snmp_makb_voltage3[0]=makb[0]._Ub[3];
;;;505    snmp_makb_voltage4[0]=makb[0]._Ub[4];
;;;506    snmp_makb_voltage0[1]=makb[1]._Ub[0];
;;;507    snmp_makb_voltage1[1]=makb[1]._Ub[1];
;;;508    snmp_makb_voltage2[1]=makb[1]._Ub[2];
;;;509    snmp_makb_voltage3[1]=makb[1]._Ub[3];
;;;510    snmp_makb_voltage4[1]=makb[1]._Ub[4];
;;;511    snmp_makb_voltage0[2]=makb[2]._Ub[0];
;;;512    snmp_makb_voltage1[2]=makb[2]._Ub[1];
;;;513    snmp_makb_voltage2[2]=makb[2]._Ub[2];
;;;514    snmp_makb_voltage3[2]=makb[2]._Ub[3];
;;;515    snmp_makb_voltage4[2]=makb[2]._Ub[4];
;;;516    snmp_makb_voltage0[3]=makb[3]._Ub[0];
;;;517    snmp_makb_voltage1[3]=makb[3]._Ub[1];
;;;518    snmp_makb_voltage2[3]=makb[3]._Ub[2];
;;;519    snmp_makb_voltage3[3]=makb[3]._Ub[3];
;;;520    snmp_makb_voltage4[3]=makb[3]._Ub[4];
;;;521    
;;;522    snmp_makb_temper0[0]=makb[0]._T[0];
;;;523    snmp_makb_temper1[0]=makb[0]._T[1];
;;;524    snmp_makb_temper2[0]=makb[0]._T[2];
;;;525    snmp_makb_temper3[0]=makb[0]._T[3];
;;;526    snmp_makb_temper4[0]=makb[0]._T[4];
;;;527    snmp_makb_temper0[1]=makb[1]._T[0];
;;;528    snmp_makb_temper1[1]=makb[1]._T[1];
;;;529    snmp_makb_temper2[1]=makb[1]._T[2];
;;;530    snmp_makb_temper3[1]=makb[1]._T[3];
;;;531    snmp_makb_temper4[1]=makb[1]._T[4];
;;;532    snmp_makb_temper0[2]=makb[2]._T[0];
;;;533    snmp_makb_temper1[2]=makb[2]._T[1];
;;;534    snmp_makb_temper2[2]=makb[2]._T[2];
;;;535    snmp_makb_temper3[2]=makb[2]._T[3];
;;;536    snmp_makb_temper4[2]=makb[2]._T[4];
;;;537    snmp_makb_temper0[3]=makb[3]._T[0];
;;;538    snmp_makb_temper1[3]=makb[3]._T[1];
;;;539    snmp_makb_temper2[3]=makb[3]._T[2];
;;;540    snmp_makb_temper3[3]=makb[3]._T[3];
;;;541    snmp_makb_temper4[3]=makb[3]._T[4];
;;;542    
;;;543    snmp_makb_temper0_stat[0]=makb[0]._T_nd[0];
;;;544    snmp_makb_temper1_stat[0]=makb[0]._T_nd[1];
;;;545    snmp_makb_temper2_stat[0]=makb[0]._T_nd[2];
;;;546    snmp_makb_temper3_stat[0]=makb[0]._T_nd[3];
;;;547    snmp_makb_temper4_stat[0]=makb[0]._T_nd[4];
;;;548    snmp_makb_temper0_stat[1]=makb[1]._T_nd[0];
;;;549    snmp_makb_temper1_stat[1]=makb[1]._T_nd[1];
;;;550    snmp_makb_temper2_stat[1]=makb[1]._T_nd[2];
;;;551    snmp_makb_temper3_stat[1]=makb[1]._T_nd[3];
;;;552    snmp_makb_temper4_stat[1]=makb[1]._T_nd[4];
;;;553    snmp_makb_temper0_stat[2]=makb[2]._T_nd[0];
;;;554    snmp_makb_temper1_stat[2]=makb[2]._T_nd[1];
;;;555    snmp_makb_temper2_stat[2]=makb[2]._T_nd[2];
;;;556    snmp_makb_temper3_stat[2]=makb[2]._T_nd[3];
;;;557    snmp_makb_temper4_stat[2]=makb[2]._T_nd[4];
;;;558    snmp_makb_temper0_stat[3]=makb[3]._T_nd[0];
;;;559    snmp_makb_temper1_stat[3]=makb[3]._T_nd[1];
;;;560    snmp_makb_temper2_stat[3]=makb[3]._T_nd[2];
;;;561    snmp_makb_temper3_stat[3]=makb[3]._T_nd[3];
;;;562    snmp_makb_temper4_stat[3]=makb[3]._T_nd[4];
;;;563    
;;;564    
;;;565    snmp_klimat_box_temper=t_box;
;;;566    snmp_klimat_settings_box_alarm=TBOXMAX;
;;;567    snmp_klimat_settings_vent_on=TBOXVENTON;
;;;568    snmp_klimat_settings_vent_off=TBOXVENTOFF;
;;;569    snmp_klimat_settings_warm_on=TBOXWARMON;
;;;570    snmp_klimat_settings_warm_off=TBOXWARMOFF;
;;;571    snmp_klimat_settings_load_on=TLOADENABLE;
;;;572    snmp_klimat_settings_load_off=TLOADDISABLE;
;;;573    snmp_klimat_settings_batt_on=TBATENABLE;
;;;574    snmp_klimat_settings_batt_off=TBATDISABLE;
;;;575    
;;;576    snmp_dt_ext=t_ext[0];
;;;577    snmp_dt_msan=t_ext[1];
;;;578    snmp_dt_epu=t_ext[2];
;;;579    
;;;580    /*
;;;581    snmp_bat_voltage=Ubat;
;;;582    snmp_bat_current=Ibat;
;;;583    snmp_bat_temperature=t_b;
;;;584    if(BAT_C_REAL==0x5555)
;;;585    	{
;;;586    	snmp_bat_capacity=BAT_C_NOM*10;												    11
;;;587    	}
;;;588    else
;;;589    	{
;;;590    	snmp_bat_capacity=BAT_C_REAL;
;;;591    	}
;;;592    snmp_bat_charge=zar_percent;
;;;593    snmp_bat_status=0;
;;;594    if(St&0x02)snmp_bat_status|=0x01;
;;;595    if(Ibat>0)snmp_bat_status|=0x02;
;;;596    
;;;597    
;;;598    if(spc_stat==spc_OFF) snmp_spc_stat=0;
;;;599    else if(spc_stat==spc_KE) snmp_spc_stat=1;
;;;600    else if(spc_stat==spc_VZ) snmp_spc_stat=10;
;;;601    
;;;602    
;;;603    snmp_main_bps=MAIN_IST+1;
;;;604    */
;;;605    snmp_zv_en=ZV_ON;
;;;606    snmp_alarm_auto_disable=AV_OFF_AVT;
;;;607    snmp_bat_test_time=TBAT;
;;;608    snmp_u_max=UMAX;
;;;609    //snmp_u_min=UB20-DU;
;;;610    //snmp_u_0_grad=UB0;
;;;611    //snmp_u_20_grad=UB20;
;;;612    snmp_u_sign=USIGN;
;;;613    snmp_u_min_power=UMN;
;;;614    snmp_u_withouth_bat=U0B;
;;;615    snmp_control_current=IKB;
;;;616    snmp_max_charge_current=IZMAX;
;;;617    snmp_max_current=IMAX;
;;;618    snmp_min_current=IMIN;
;;;619    //snmp_max_current_koef=KIMAX;
;;;620    //snmp_uvz=UVZ;
;;;621    snmp_powerup_psu_timeout=TZAS;
;;;622    snmp_max_temperature=TMAX;
;;;623    snmp_tsign_bat=TBATSIGN; 
;;;624    snmp_tmax_bat=TBATMAX;
;;;625    snmp_tsign_bps=TSIGN;
;;;626    snmp_tmax_bps=TMAX;
;;;627    snmp_bat_part_alarm=UBM_AV; 
;;;628    snmp_power_cnt_adress=POWER_CNT_ADRESS;
;;;629    
;;;630    for(i=0;i<12;i++)
;;;631    	{
;;;632    	snmp_avt_number[i]=i+1;
;;;633    	if(avt_stat[i]==avtOFF)snmp_avt_stat[i]=0;
;;;634    	else snmp_avt_stat[i]=1;
;;;635    	}
;;;636    
;;;637    snmp_dt_number[0]=1;
;;;638    snmp_dt_number[1]=2;
;;;639    snmp_dt_number[2]=3;
;;;640    //snmp_dt_number[3]=4;
;;;641    snmp_dt_temper[0]=t_ext[0];
;;;642    snmp_dt_temper[1]=t_ext[1];
;;;643    snmp_dt_temper[2]=t_ext[2];
;;;644    //snmp_dt_temper[3]=t_ext[3];
;;;645    snmp_dt_error[0]=ND_EXT[0];
;;;646    if(NUMDT<1)snmp_dt_error[0]=0xff;
;;;647    snmp_dt_error[1]=ND_EXT[1];
;;;648    if(NUMDT<2)snmp_dt_error[0]=0xff;
;;;649    snmp_dt_error[2]=ND_EXT[2];
;;;650    if(NUMDT<3)snmp_dt_error[0]=0xff;
;;;651    //snmp_dt_error[3]=ND_EXT[3];
;;;652    if(NUMDT<4)snmp_dt_error[0]=0xff;
;;;653    
;;;654    /*
;;;655    //Литиевые батареи
;;;656    snmp_lakb_number[0]=1;								//Номер ЛАКБ
;;;657    snmp_lakb_number[1]=2;								//Номер ЛАКБ
;;;658    snmp_lakb_voltage[0]=lakb[0]._tot_bat_volt;				//Напряжение ЛАКБ
;;;659    snmp_lakb_voltage[1]=lakb[1]._tot_bat_volt;				//Напряжение ЛАКБ
;;;660    snmp_lakb_max_cell_voltage[0]=lakb[0]._max_cell_volt;		//Максимальное напряжение ячейки ЛАКБ
;;;661    snmp_lakb_max_cell_voltage[1]=lakb[1]._max_cell_volt;		//Максимальное напряжение ячейки ЛАКБ
;;;662    snmp_lakb_min_cell_voltage[0]=lakb[0]._min_cell_volt;		//Минимальное напряжение ячейки ЛАКБ
;;;663    snmp_lakb_min_cell_voltage[1]=lakb[1]._min_cell_volt;		//Минимальное напряжение ячейки ЛАКБ
;;;664    snmp_lakb_max_cell_temperature[0]=lakb[0]._max_cell_temp;	//Максимальная температура ячейки ЛАКБ
;;;665    snmp_lakb_max_cell_temperature[1]=lakb[1]._max_cell_temp;	//Максимальная температура ячейки ЛАКБ
;;;666    snmp_lakb_min_cell_temperature[0]=lakb[0]._min_cell_temp;	//Минимальная температура ячейки ЛАКБ
;;;667    snmp_lakb_min_cell_temperature[1]=lakb[1]._min_cell_temp;	//Минимальная температура ячейки ЛАКБ
;;;668    snmp_lakb_ch_curr[0]=lakb[0]._ch_curr;					//Ток заряда ЛАКБ
;;;669    snmp_lakb_ch_curr[1]=lakb[1]._ch_curr;					//Ток заряда ЛАКБ
;;;670    snmp_lakb_dsch_curr[0]=lakb[0]._dsch_curr;				//Ток разряда ЛАКБ
;;;671    snmp_lakb_dsch_curr[1]=lakb[1]._dsch_curr;				//Ток разряда ЛАКБ
;;;672    snmp_lakb_rat_cap[0]=lakb[0]._rat_cap;					//Номинальная емкость ЛАКБ
;;;673    snmp_lakb_rat_cap[1]=lakb[1]._rat_cap;					//Номинальная емкость ЛАКБ
;;;674    snmp_lakb_soh[0]=lakb[0]._s_o_h;						//Остаточная емкость ЛАКБ
;;;675    snmp_lakb_soh[1]=lakb[1]._s_o_h;						//Остаточная емкость ЛАКБ
;;;676    snmp_lakb_soc[0]=lakb[0]._s_o_c;						//Заряд ЛАКБ
;;;677    snmp_lakb_soc[1]=lakb[1]._s_o_c;						//Заряд ЛАКБ
;;;678    snmp_lakb_cclv[0]=lakb[0]._c_c_l_v;  					//Максимальный ток заряда ЛАКБ
;;;679    snmp_lakb_cclv[1]=lakb[1]._c_c_l_v;  					//Максимальный ток заряда ЛАКБ
;;;680    snmp_lakb_rbt[0]=lakb[0]._r_b_t;						//Оцениваемое время работы ЛАКБ
;;;681    snmp_lakb_rbt[1]=lakb[1]._r_b_t;						//Оцениваемое время работы ЛАКБ
;;;682    snmp_lakb_flags1[0]=lakb[0]._flags1;					//Первый флаг состояния ЛАКБ
;;;683    snmp_lakb_flags1[1]=lakb[1]._flags1;					//Первый флаг состояния ЛАКБ
;;;684    snmp_lakb_flags2[0]=lakb[0]._flags2;					//Второй флаг состояния ЛАКБ
;;;685    snmp_lakb_flags2[1]=lakb[1]._flags2;					//Второй флаг состояния ЛАКБ */
;;;686    
;;;687    //Литиевые батареи
;;;688    snmp_lakb_number[0]=1;								//Номер ЛАКБ
;;;689    snmp_lakb_number[1]=2;								//Номер ЛАКБ
;;;690    snmp_lakb_number[2]=3;								//Номер ЛАКБ
;;;691    snmp_lakb_number[3]=4;								//Номер ЛАКБ
;;;692    snmp_lakb_number[4]=5;								//Номер ЛАКБ
;;;693    snmp_lakb_number[5]=6;								//Номер ЛАКБ
;;;694    snmp_lakb_number[6]=7;								//Номер ЛАКБ
;;;695    
;;;696    for (i=0;i<3;i++)
;;;697    	{
;;;698    	snmp_lakb_voltage[i]=lakb[i]._tot_bat_volt;				//Напряжение ЛАКБ
;;;699    	snmp_lakb_max_cell_voltage[i]=lakb[i]._max_cell_volt;		//Максимальное напряжение ячейки ЛАКБ
;;;700    	snmp_lakb_min_cell_voltage[i]=lakb[i]._min_cell_volt;		//Минимальное напряжение ячейки ЛАКБ
;;;701    	snmp_lakb_max_cell_temperature[i]=lakb[i]._max_cell_temp;	//Максимальная температура ячейки ЛАКБ
;;;702    	//snmp_lakb_max_cell_temperature[1]=lakb[1]._max_cell_temp;	//Максимальная температура ячейки ЛАКБ
;;;703    	snmp_lakb_min_cell_temperature[i]=lakb[i]._min_cell_temp;	//Минимальная температура ячейки ЛАКБ
;;;704    	//snmp_lakb_min_cell_temperature[1]=lakb[1]._min_cell_temp;	//Минимальная температура ячейки ЛАКБ
;;;705    	snmp_lakb_ch_curr[i]=lakb[i]._ch_curr;					//Ток заряда ЛАКБ
;;;706    	//snmp_lakb_ch_curr[1]=lakb[1]._ch_curr;					//Ток заряда ЛАКБ
;;;707    	snmp_lakb_dsch_curr[i]=lakb[i]._dsch_curr;				//Ток разряда ЛАКБ
;;;708    	//snmp_lakb_dsch_curr[1]=lakb[1]._dsch_curr;				//Ток разряда ЛАКБ
;;;709    	snmp_lakb_rat_cap[i]=lakb[i]._rat_cap;					//Номинальная емкость ЛАКБ
;;;710    	//snmp_lakb_rat_cap[1]=lakb[1]._rat_cap;					//Номинальная емкость ЛАКБ
;;;711    	snmp_lakb_soh[i]=lakb[i]._s_o_h;						//Остаточная емкость ЛАКБ
;;;712    	//snmp_lakb_soh[1]=lakb[1]._s_o_h;						//Остаточная емкость ЛАКБ
;;;713    	snmp_lakb_soc[i]=lakb[i]._s_o_c;						//Заряд ЛАКБ
;;;714    	//snmp_lakb_soc[1]=lakb[1]._s_o_c;						//Заряд ЛАКБ
;;;715    	snmp_lakb_cclv[i]=lakb[i]._c_c_l_v;  					//Максимальный ток заряда ЛАКБ
;;;716    	//snmp_lakb_cclv[1]=lakb[1]._c_c_l_v;  					//Максимальный ток заряда ЛАКБ
;;;717    	snmp_lakb_rbt[i]=lakb[i]._r_b_t;						//Оцениваемое время работы ЛАКБ
;;;718    	//snmp_lakb_rbt[1]=lakb[1]._r_b_t;						//Оцениваемое время работы ЛАКБ
;;;719    	snmp_lakb_flags1[i]=lakb[i]._flags1;					//Первый флаг состояния ЛАКБ
;;;720    	//snmp_lakb_flags1[1]=lakb[1]._flags1;					//Первый флаг состояния ЛАКБ
;;;721    	snmp_lakb_flags2[i]=lakb[i]._flags2;					//Второй флаг состояния ЛАКБ
;;;722    	//snmp_lakb_flags2[1]=lakb[1]._flags2;					//Второй флаг состояния ЛАКБ
;;;723    
;;;724    	snmp_lakb_cell_temperature_1[i]= lakb[i]._cell_temp_1;
;;;725    	snmp_lakb_cell_temperature_2[i]= lakb[i]._cell_temp_2;
;;;726    	snmp_lakb_cell_temperature_3[i]= lakb[i]._cell_temp_3;
;;;727    	snmp_lakb_cell_temperature_4[i]= lakb[i]._cell_temp_4;
;;;728    	snmp_lakb_cell_temperature_ambient[i]=lakb[i]._cell_temp_ambient;
;;;729    	snmp_lakb_cell_temperature_power[i]=lakb[i]._cell_temp_power;
;;;730    	}
;;;731    
;;;732    for (i=0;i<7;i++)
;;;733    {
;;;734    /*
;;;735    snmp_lakb_damp1[i][0]=ABCDEF[(lakb_damp[i][0])>>4];			//Дамп
;;;736    snmp_lakb_damp1[i][1]=ABCDEF[(lakb_damp[i][0])&0x0f];			//Дамп
;;;737    snmp_lakb_damp1[i][2]=' ';
;;;738    snmp_lakb_damp1[i][3]=ABCDEF[(lakb_damp[i][1])>>4];			//Дамп
;;;739    snmp_lakb_damp1[i][4]=ABCDEF[(lakb_damp[i][1])&0x0f];			//Дамп
;;;740    snmp_lakb_damp1[i][5]=' ';
;;;741    snmp_lakb_damp1[i][6]=ABCDEF[(lakb_damp[i][2])>>4];			//Дамп
;;;742    snmp_lakb_damp1[i][7]=ABCDEF[(lakb_damp[i][2])&0x0f];			//Дамп
;;;743    snmp_lakb_damp1[i][8]=' ';
;;;744    snmp_lakb_damp1[i][9]=ABCDEF[(lakb_damp[i][3])>>4];			//Дамп
;;;745    snmp_lakb_damp1[i][10]=ABCDEF[(lakb_damp[i][3])&0x0f];			//Дамп
;;;746    snmp_lakb_damp1[i][11]=' ';
;;;747    snmp_lakb_damp1[i][12]=ABCDEF[(lakb_damp[i][4])>>4];			//Дамп
;;;748    snmp_lakb_damp1[i][13]=ABCDEF[(lakb_damp[i][4])&0x0f];			//Дамп
;;;749    snmp_lakb_damp1[i][14]=' '; 
;;;750    snmp_lakb_damp1[i][15]=ABCDEF[(lakb_damp[i][5])>>4];			//Дамп
;;;751    snmp_lakb_damp1[i][16]=ABCDEF[(lakb_damp[i][5])&0x0f];			//Дамп
;;;752    snmp_lakb_damp1[i][17]=' ';
;;;753    snmp_lakb_damp1[i][18]=ABCDEF[(lakb_damp[i][6])>>4];			//Дамп
;;;754    snmp_lakb_damp1[i][19]=ABCDEF[(lakb_damp[i][6])&0x0f];			//Дамп
;;;755    snmp_lakb_damp1[i][20]=' ';
;;;756    snmp_lakb_damp1[i][21]=ABCDEF[(lakb_damp[i][7])>>4];			//Дамп
;;;757    snmp_lakb_damp1[i][22]=ABCDEF[(lakb_damp[i][7])&0x0f];			//Дамп
;;;758    snmp_lakb_damp1[i][23]=' ';
;;;759    snmp_lakb_damp1[i][24]=ABCDEF[(lakb_damp[i][8])>>4];			//Дамп
;;;760    snmp_lakb_damp1[i][25]=ABCDEF[(lakb_damp[i][8])&0x0f];			//Дамп
;;;761    snmp_lakb_damp1[i][26]=' ';
;;;762    snmp_lakb_damp1[i][27]=ABCDEF[(lakb_damp[i][9])>>4];			//Дамп
;;;763    snmp_lakb_damp1[i][28]=ABCDEF[(lakb_damp[i][9])&0x0f];			//Дамп
;;;764    snmp_lakb_damp1[i][29]=0; 
;;;765    
;;;766    snmp_lakb_damp1[i][30]=ABCDEF[(lakb_damp[i][10])>>4];			//Дамп
;;;767    snmp_lakb_damp1[i][31]=ABCDEF[(lakb_damp[i][10])&0x0f];			//Дамп
;;;768    snmp_lakb_damp1[i][32]=' ';
;;;769    snmp_lakb_damp1[i][33]=ABCDEF[(lakb_damp[i][11])>>4];			//Дамп
;;;770    snmp_lakb_damp1[i][34]=ABCDEF[(lakb_damp[i][11])&0x0f];			//Дамп
;;;771    snmp_lakb_damp1[i][35]=' ';
;;;772    snmp_lakb_damp1[i][36]=ABCDEF[(lakb_damp[i][12])>>4];			//Дамп
;;;773    snmp_lakb_damp1[i][37]=ABCDEF[(lakb_damp[i][12])&0x0f];			//Дамп
;;;774    snmp_lakb_damp1[i][38]=' ';
;;;775    snmp_lakb_damp1[i][39]=ABCDEF[(lakb_damp[i][13])>>4];			//Дамп
;;;776    snmp_lakb_damp1[i][40]=ABCDEF[(lakb_damp[i][13])&0x0f];			//Дамп
;;;777    snmp_lakb_damp1[i][41]=' ';
;;;778    snmp_lakb_damp1[i][42]=ABCDEF[(lakb_damp[i][14])>>4];			//Дамп
;;;779    snmp_lakb_damp1[i][43]=ABCDEF[(lakb_damp[i][14])&0x0f];			//Дамп
;;;780    snmp_lakb_damp1[i][44]=' '; 
;;;781    snmp_lakb_damp1[i][45]=ABCDEF[(lakb_damp[i][15])>>4];			//Дамп
;;;782    snmp_lakb_damp1[i][46]=ABCDEF[(lakb_damp[i][15])&0x0f];			//Дамп
;;;783    snmp_lakb_damp1[i][47]=' ';
;;;784    snmp_lakb_damp1[i][48]=ABCDEF[(lakb_damp[i][16])>>4];			//Дамп
;;;785    snmp_lakb_damp1[i][49]=ABCDEF[(lakb_damp[i][16])&0x0f];			//Дамп
;;;786    snmp_lakb_damp1[i][50]=' ';
;;;787    snmp_lakb_damp1[i][51]=ABCDEF[(lakb_damp[i][17])>>4];			//Дамп
;;;788    snmp_lakb_damp1[i][52]=ABCDEF[(lakb_damp[i][17])&0x0f];			//Дамп
;;;789    snmp_lakb_damp1[i][53]=' ';
;;;790    snmp_lakb_damp1[i][54]=ABCDEF[(lakb_damp[i][18])>>4];			//Дамп
;;;791    snmp_lakb_damp1[i][55]=ABCDEF[(lakb_damp[i][18])&0x0f];			//Дамп
;;;792    snmp_lakb_damp1[i][56]=' ';
;;;793    snmp_lakb_damp1[i][57]=ABCDEF[(lakb_damp[i][19])>>4];			//Дамп
;;;794    snmp_lakb_damp1[i][58]=ABCDEF[(lakb_damp[i][19])&0x0f];			//Дамп
;;;795    snmp_lakb_damp1[i][59]=0; 
;;;796    
;;;797    
;;;798    snmp_lakb_damp1[i][60]=ABCDEF[(lakb_damp[i][20])>>4];			//Дамп
;;;799    snmp_lakb_damp1[i][61]=ABCDEF[(lakb_damp[i][20])&0x0f];			//Дамп
;;;800    snmp_lakb_damp1[i][62]=' ';
;;;801    snmp_lakb_damp1[i][63]=ABCDEF[(lakb_damp[i][21])>>4];			//Дамп
;;;802    snmp_lakb_damp1[i][64]=ABCDEF[(lakb_damp[i][21])&0x0f];			//Дамп
;;;803    snmp_lakb_damp1[i][65]=' ';
;;;804    snmp_lakb_damp1[i][66]=ABCDEF[(lakb_damp[i][22])>>4];			//Дамп
;;;805    snmp_lakb_damp1[i][67]=ABCDEF[(lakb_damp[i][22])&0x0f];			//Дамп
;;;806    snmp_lakb_damp1[i][68]=' ';
;;;807    snmp_lakb_damp1[i][69]=ABCDEF[(lakb_damp[i][23])>>4];			//Дамп
;;;808    snmp_lakb_damp1[i][70]=ABCDEF[(lakb_damp[i][23])&0x0f];			//Дамп
;;;809    snmp_lakb_damp1[i][71]=' ';
;;;810    snmp_lakb_damp1[i][72]=ABCDEF[(lakb_damp[i][24])>>4];			//Дамп
;;;811    snmp_lakb_damp1[i][73]=ABCDEF[(lakb_damp[i][24])&0x0f];			//Дамп
;;;812    snmp_lakb_damp1[i][74]=' '; 
;;;813    snmp_lakb_damp1[i][75]=ABCDEF[(lakb_damp[i][25])>>4];			//Дамп
;;;814    snmp_lakb_damp1[i][76]=ABCDEF[(lakb_damp[i][25])&0x0f];			//Дамп
;;;815    snmp_lakb_damp1[i][77]=' ';
;;;816    snmp_lakb_damp1[i][78]=ABCDEF[(lakb_damp[i][26])>>4];			//Дамп
;;;817    snmp_lakb_damp1[i][79]=ABCDEF[(lakb_damp[i][26])&0x0f];			//Дамп
;;;818    snmp_lakb_damp1[i][80]=' ';
;;;819    snmp_lakb_damp1[i][81]=ABCDEF[(lakb_damp[i][27])>>4];			//Дамп
;;;820    snmp_lakb_damp1[i][82]=ABCDEF[(lakb_damp[i][27])&0x0f];			//Дамп
;;;821    snmp_lakb_damp1[i][83]=' ';
;;;822    snmp_lakb_damp1[i][84]=ABCDEF[(lakb_damp[i][28])>>4];			//Дамп
;;;823    snmp_lakb_damp1[i][85]=ABCDEF[(lakb_damp[i][28])&0x0f];			//Дамп
;;;824    snmp_lakb_damp1[i][86]=' ';
;;;825    snmp_lakb_damp1[i][87]=ABCDEF[(lakb_damp[i][29])>>4];			//Дамп
;;;826    snmp_lakb_damp1[i][88]=ABCDEF[(lakb_damp[i][29])&0x0f];			//Дамп
;;;827    snmp_lakb_damp1[i][89]=0;
;;;828    
;;;829    
;;;830    snmp_lakb_damp1[i][90]=ABCDEF[(lakb_damp[i][30])>>4];			//Дамп
;;;831    snmp_lakb_damp1[i][91]=ABCDEF[(lakb_damp[i][30])&0x0f];			//Дамп
;;;832    snmp_lakb_damp1[i][92]=' ';
;;;833    snmp_lakb_damp1[i][93]=ABCDEF[(lakb_damp[i][31])>>4];			//Дамп
;;;834    snmp_lakb_damp1[i][94]=ABCDEF[(lakb_damp[i][31])&0x0f];			//Дамп
;;;835    snmp_lakb_damp1[i][95]=' ';
;;;836    snmp_lakb_damp1[i][96]=ABCDEF[(lakb_damp[i][32])>>4];			//Дамп
;;;837    snmp_lakb_damp1[i][97]=ABCDEF[(lakb_damp[i][32])&0x0f];			//Дамп
;;;838    snmp_lakb_damp1[i][98]=' ';
;;;839    snmp_lakb_damp1[i][99]=ABCDEF[(lakb_damp[i][33])>>4];			//Дамп
;;;840    snmp_lakb_damp1[i][100]=ABCDEF[(lakb_damp[i][33])&0x0f];			//Дамп
;;;841    snmp_lakb_damp1[i][101]=' ';
;;;842    snmp_lakb_damp1[i][102]=ABCDEF[(lakb_damp[i][34])>>4];			//Дамп
;;;843    snmp_lakb_damp1[i][103]=ABCDEF[(lakb_damp[i][34])&0x0f];			//Дамп
;;;844    snmp_lakb_damp1[i][104]=' '; 
;;;845    snmp_lakb_damp1[i][105]=ABCDEF[(lakb_damp[i][35])>>4];			//Дамп
;;;846    snmp_lakb_damp1[i][106]=ABCDEF[(lakb_damp[i][35])&0x0f];			//Дамп
;;;847    snmp_lakb_damp1[i][107]=' ';
;;;848    snmp_lakb_damp1[i][108]=ABCDEF[(lakb_damp[i][36])>>4];			//Дамп
;;;849    snmp_lakb_damp1[i][109]=ABCDEF[(lakb_damp[i][36])&0x0f];			//Дамп
;;;850    snmp_lakb_damp1[i][110]=' ';
;;;851    snmp_lakb_damp1[i][111]=ABCDEF[(lakb_damp[i][37])>>4];			//Дамп
;;;852    snmp_lakb_damp1[i][112]=ABCDEF[(lakb_damp[i][37])&0x0f];			//Дамп
;;;853    snmp_lakb_damp1[i][113]=' ';
;;;854    snmp_lakb_damp1[i][114]=ABCDEF[(lakb_damp[i][38])>>4];			//Дамп
;;;855    snmp_lakb_damp1[i][115]=ABCDEF[(lakb_damp[i][38])&0x0f];			//Дамп
;;;856    snmp_lakb_damp1[i][116]=' ';
;;;857    snmp_lakb_damp1[i][117]=ABCDEF[(lakb_damp[i][39])>>4];			//Дамп
;;;858    snmp_lakb_damp1[i][118]=ABCDEF[(lakb_damp[i][39])&0x0f];			//Дамп
;;;859    snmp_lakb_damp1[i][119]=0; 
;;;860     
;;;861    
;;;862    snmp_lakb_damp1[i][120]=ABCDEF[(lakb_damp[i][40])>>4];			//Дамп
;;;863    snmp_lakb_damp1[i][121]=ABCDEF[(lakb_damp[i][40])&0x0f];			//Дамп
;;;864    snmp_lakb_damp1[i][122]=' ';
;;;865    snmp_lakb_damp1[i][123]=ABCDEF[(lakb_damp[i][41])>>4];			//Дамп
;;;866    snmp_lakb_damp1[i][124]=ABCDEF[(lakb_damp[i][41])&0x0f];			//Дамп
;;;867    snmp_lakb_damp1[i][125]=' ';
;;;868    snmp_lakb_damp1[i][126]=ABCDEF[(lakb_damp[i][42])>>4];			//Дамп
;;;869    snmp_lakb_damp1[i][127]=ABCDEF[(lakb_damp[i][42])&0x0f];			//Дамп
;;;870    snmp_lakb_damp1[i][128]=' ';
;;;871    snmp_lakb_damp1[i][129]=ABCDEF[(lakb_damp[i][43])>>4];			//Дамп
;;;872    snmp_lakb_damp1[i][130]=ABCDEF[(lakb_damp[i][43])&0x0f];			//Дамп
;;;873    snmp_lakb_damp1[i][131]=' ';
;;;874    snmp_lakb_damp1[i][132]=ABCDEF[(lakb_damp[i][44])>>4];			//Дамп
;;;875    snmp_lakb_damp1[i][133]=ABCDEF[(lakb_damp[i][44])&0x0f];			//Дамп
;;;876    snmp_lakb_damp1[i][134]=' '; 
;;;877    snmp_lakb_damp1[i][135]=ABCDEF[(lakb_damp[i][45])>>4];			//Дамп
;;;878    snmp_lakb_damp1[i][136]=ABCDEF[(lakb_damp[i][45])&0x0f];			//Дамп
;;;879    snmp_lakb_damp1[i][137]=' ';
;;;880    snmp_lakb_damp1[i][138]=ABCDEF[(lakb_damp[i][46])>>4];			//Дамп
;;;881    snmp_lakb_damp1[i][139]=ABCDEF[(lakb_damp[i][46])&0x0f];			//Дамп
;;;882    snmp_lakb_damp1[i][140]=' ';
;;;883    snmp_lakb_damp1[i][141]=ABCDEF[(lakb_damp[i][47])>>4];			//Дамп
;;;884    snmp_lakb_damp1[i][142]=ABCDEF[(lakb_damp[i][47])&0x0f];			//Дамп
;;;885    snmp_lakb_damp1[i][143]=' ';
;;;886    snmp_lakb_damp1[i][144]=ABCDEF[(lakb_damp[i][48])>>4];			//Дамп
;;;887    snmp_lakb_damp1[i][145]=ABCDEF[(lakb_damp[i][48])&0x0f];			//Дамп
;;;888    snmp_lakb_damp1[i][146]=' ';
;;;889    snmp_lakb_damp1[i][147]=ABCDEF[(lakb_damp[i][49])>>4];			//Дамп
;;;890    snmp_lakb_damp1[i][148]=ABCDEF[(lakb_damp[i][49])&0x0f];			//Дамп
;;;891    snmp_lakb_damp1[i][149]=0;  */
;;;892    }
;;;893    
;;;894    #ifdef UKU_TELECORE2017
;;;895    snmp_warm_sign=0;
;;;896    if(TELECORE2017_KLIMAT_WARM_SIGNAL==0) snmp_warm_sign=2;
;;;897    else if(TELECORE2017_KLIMAT_WARM_SIGNAL==1) snmp_warm_sign=1;
;;;898    snmp_cool_sign=0;
;;;899    if(TELECORE2017_KLIMAT_VENT_SIGNAL==0) snmp_cool_sign=2;
;;;900    else if(TELECORE2017_KLIMAT_VENT_SIGNAL==1) snmp_cool_sign=1;
;;;901    snmp_warm_on_temper=(signed char)TELECORE2017_KLIMAT_WARM_ON; 
;;;902    snmp_warm_off_temper=(signed char)TELECORE2017_KLIMAT_WARM_OFF;
;;;903    snmp_warm_q=(signed char)TELECORE2017_KLIMAT_CAP;	
;;;904    snmp_cool_20_temper=(signed char)TELECORE2017_KLIMAT_VENT_ON20;
;;;905    snmp_cool_40_temper=(signed char)TELECORE2017_KLIMAT_VENT_ON40;
;;;906    snmp_cool_60_temper=(signed char)TELECORE2017_KLIMAT_VENT_ON60;
;;;907    snmp_cool_80_temper=(signed char)TELECORE2017_KLIMAT_VENT_ON80;
;;;908    snmp_cool_100_temper=(signed char)TELECORE2017_KLIMAT_VENT_ON100;
;;;909    snmp_cool_20_dtemper=(signed char)TELECORE2017_KLIMAT_DVENT_ON20;
;;;910    snmp_cool_40_dtemper=(signed char)TELECORE2017_KLIMAT_DVENT_ON40;
;;;911    snmp_cool_60_dtemper=(signed char)TELECORE2017_KLIMAT_DVENT_ON60;
;;;912    snmp_cool_80_dtemper=(signed char)TELECORE2017_KLIMAT_DVENT_ON80;
;;;913    snmp_cool_100_dtemper=(signed char)TELECORE2017_KLIMAT_DVENT_ON100;
;;;914    snmp_warm_stat=0;
;;;915    if(warm_stat_k==wsON) snmp_warm_stat=1;
;;;916    #endif
;;;917    }
;;;918    //-----------------------------------------------
                          ENDP

000012  0000              DCW      0x0000
                  |L15.20|
                          DCD      ||.data||

                          AREA ||area_number.16||, CODE, READONLY, ALIGN=2

                          EXPORTAS ||area_number.16||, ||.text||
                  snmp_klimat_settings_batt_on_write PROC
;;;259    //-----------------------------------------------
;;;260    void snmp_data (void) 
000000  2801              CMP      r0,#1
;;;261    {
000002  d105              BNE      |L16.16|
;;;262    char i;
;;;263    
;;;264    snmp_mains_power_voltage=net_U;
000004  4803              LDR      r0,|L16.20|
000006  f9b0107a          LDRSH    r1,[r0,#0x7a]  ; snmp_klimat_settings_batt_on
00000a  20dc              MOVS     r0,#0xdc
;;;265    #ifdef UKU_220_IPS_TERMOKOMPENSAT
;;;266    snmp_mains_power_frequency=net_F3;
00000c  f7ffbffe          B.W      lc640_write_int
                  |L16.16|
000010  4770              BX       lr
;;;267    #else
;;;268    snmp_mains_power_frequency=net_F;
;;;269    #endif
;;;270    snmp_mains_power_voltage_phaseA=net_Ua;
;;;271    snmp_mains_power_voltage_phaseB=net_Ub;
;;;272    snmp_mains_power_voltage_phaseC=net_Uc;
;;;273    
;;;274    /*
;;;275    snmp_mains_power_status=0; 
;;;276    #if(UKU_VERSION==900)
;;;277    snmp_mains_power_status=2;
;;;278    #endif
;;;279    if(St&0x01)snmp_mains_power_status|=0x01;
;;;280    if(St&0x01)snmp_mains_power_alarm=1;
;;;281    
;;;282    
;;;283    
;;;284    
;;;285    
;;;286    
;;;287    for(i=0;i<snmp_numofevents;i++)event2snmp(i);
;;;288    //snmp_bpsnumber[0]=1;
;;;289    //snmp_bpsnumber[1]=2;
;;;290    
;;;291    snmp_sernum=AUSW_MAIN_NUMBER;
;;;292    snmp_sernum_lsb=0x1122;
;;;293    snmp_sernum_msb=0x3344;
;;;294    snmp_device_code=AUSW_MAIN;
;;;295    
;;;296    //memcpy(snmp_location,"lkhg;la",);
;;;297    
;;;298    
;;;299    snmp_numofbat=1;
;;;300    
;;;301    */
;;;302    
;;;303    snmp_load_voltage=load_U;
;;;304    snmp_load_current=load_I;
;;;305    snmp_numofbat=NUMBAT;
;;;306    snmp_numofbps=NUMIST;
;;;307    snmp_numofinv=NUMINV;
;;;308    snmp_numofavt=NUMAVT;
;;;309    snmp_numofdt=NUMDT;
;;;310    snmp_numofsk=NUMSK;
;;;311    snmp_numofevents=lc640_read_int(CNT_EVENT_LOG);
;;;312    
;;;313    snmp_energy_vvod_phase_a=Uvv_eb2[0];
;;;314    snmp_energy_vvod_phase_b=Uvv_eb2[1];
;;;315    snmp_energy_vvod_phase_c=Uvv_eb2[2];
;;;316    snmp_energy_pes_phase_a=Upes_eb2[0];
;;;317    snmp_energy_pes_phase_b=Upes_eb2[1];
;;;318    snmp_energy_pes_phase_c=Upes_eb2[2];
;;;319    
;;;320    #ifdef UKU_KONTUR
;;;321    snmp_energy_vvod_phase_a=Uvv0;
;;;322    snmp_energy_pes_phase_a=Uvv[1];
;;;323    #endif
;;;324    
;;;325    snmp_energy_total_energy=power_summary;
;;;326    snmp_energy_current_energy=power_current;
;;;327    snmp_energy_input_voltage=net_U;
;;;328    
;;;329    snmp_bat_number[0]=1;
;;;330    snmp_bat_voltage[0]=bat[0]._Ub;
;;;331    snmp_bat_part_voltage[0]=bat[0]._Ubm;
;;;332    snmp_bat_current[0]=bat[0]._Ib;
;;;333    
;;;334    #ifdef UKU_220_IPS_TERMOKOMPENSAT
;;;335    if(((AUSW_MAIN==22063)||(AUSW_MAIN==22023))&&(bps[8]._device==dIBAT_METR))
;;;336    	{
;;;337    	snmp_bat_current[0]=Ib_ips_termokompensat;
;;;338    	}
;;;339    #endif
;;;340    
;;;341    snmp_bat_temperature[0]=bat[0]._Tb;
;;;342    if(BAT_C_REAL[0]==0x5555)snmp_bat_capacity[0]=BAT_C_NOM[0];
;;;343    else snmp_bat_capacity[0]=BAT_C_REAL[0];
;;;344    snmp_bat_charge[0]=bat[0]._zar;
;;;345    snmp_bat_status[0]=bat[0]._av;
;;;346    if(BAT_IS_ON[0]!=bisON)snmp_bat_status[0]=0xff;
;;;347    
;;;348    snmp_bat_number[1]=2;
;;;349    snmp_bat_voltage[1]=bat[1]._Ub;
;;;350    snmp_bat_part_voltage[1]=bat[1]._Ubm;
;;;351    snmp_bat_current[1]=bat[1]._Ib;
;;;352    snmp_bat_temperature[1]=bat[1]._Tb;
;;;353    if(BAT_C_REAL[1]==0x5555)snmp_bat_capacity[1]=BAT_C_NOM[1];
;;;354    else snmp_bat_capacity[1]=BAT_C_REAL[1];
;;;355    snmp_bat_charge[1]=bat[1]._zar;
;;;356    snmp_bat_status[1]=bat[1]._av;
;;;357    if(BAT_IS_ON[1]!=bisON)snmp_bat_status[1]=0xff;
;;;358    
;;;359    
;;;360    
;;;361    snmp_bps_number[0]=1;
;;;362    snmp_bps_voltage[0]=bps[0]._Uii;
;;;363    snmp_bps_current[0]=bps[0]._Ii;
;;;364    snmp_bps_temperature[0]=bps[0]._Ti;
;;;365    snmp_bps_stat[0]=bps[0]._av;
;;;366    if(!(NUMIST>0))snmp_bps_stat[0]=0xff;												//Байт состояния БПСа.
;;;367    
;;;368    /*if(St_[0]&(1<<2))snmp_bps_stat[0]=(1<<3); 							//авария по Umin
;;;369    else if(St_[0]&(1<<3))snmp_bps_stat[0]=(1<<2); 						//авария по Umax
;;;370    else if(bps[0]._av&(1<<0))snmp_bps_stat[0]=(1<<1); 						//авария по Tmax
;;;371    else if(St_[0]&(1<<5))snmp_bps_stat[0]=(1<<5); 						//заблокирован
;;;372    else if((!(St_[0]&0x3c))&&(!St&0x01)&&(!OFFBP1))snmp_bps_stat[0]=1; 		//Работает
;;;373    */
;;;374    
;;;375    snmp_bps_number[1]=2;
;;;376    snmp_bps_voltage[1]=bps[1]._Uii;
;;;377    snmp_bps_current[1]=bps[1]._Ii;
;;;378    snmp_bps_temperature[1]=bps[1]._Ti;
;;;379    snmp_bps_stat[1]=bps[1]._av;
;;;380    if(!(NUMIST>1))snmp_bps_stat[1]=0xff;												//Байт состояния БПСа.
;;;381    /*if(St_[1]&(1<<2))snmp_bps_stat[1]=(1<<3); 							//авария по Umin
;;;382    else if(St_[1]&(1<<3))snmp_bps_stat[1]=(1<<2); 						//авария по Umax
;;;383    else if(St_[1]&(1<<4))snmp_bps_stat[1]=(1<<1); 						//авария по Tmax
;;;384    else if(St_[1]&(1<<5))snmp_bps_stat[1]=(1<<5); 						//заблокирован
;;;385    else if((!(St_[1]&0x3c))&&(!St&0x01)&&(!OFFBP2))snmp_bps_stat[1]=1; 		//Работает
;;;386    */
;;;387    
;;;388    snmp_bps_number[2]=3;
;;;389    snmp_bps_voltage[2]=bps[2]._Uii;
;;;390    snmp_bps_current[2]=bps[2]._Ii;
;;;391    snmp_bps_temperature[2]=bps[2]._Ti;
;;;392    snmp_bps_stat[2]=bps[2]._av;
;;;393    if(!(NUMIST>2))snmp_bps_stat[2]=0xff;
;;;394    
;;;395    snmp_bps_number[3]=4;
;;;396    snmp_bps_voltage[3]=bps[3]._Uii;
;;;397    snmp_bps_current[3]=bps[3]._Ii;
;;;398    snmp_bps_temperature[3]=bps[3]._Ti;
;;;399    snmp_bps_stat[3]=bps[3]._av;
;;;400    if(!(NUMIST>3))snmp_bps_stat[3]=0xff;
;;;401    
;;;402    snmp_bps_number[4]=5;
;;;403    snmp_bps_voltage[4]=bps[4]._Uii;
;;;404    snmp_bps_current[4]=bps[4]._Ii;
;;;405    snmp_bps_temperature[4]=bps[4]._Ti;
;;;406    snmp_bps_stat[4]=bps[4]._av;
;;;407    if(!(NUMIST>4))snmp_bps_stat[4]=0xff;
;;;408    
;;;409    snmp_bps_number[5]=6;
;;;410    snmp_bps_voltage[5]=bps[5]._Uii;
;;;411    snmp_bps_current[5]=bps[5]._Ii;
;;;412    snmp_bps_temperature[5]=bps[5]._Ti;
;;;413    snmp_bps_stat[5]=bps[5]._av;
;;;414    if(!(NUMIST>5))snmp_bps_stat[5]=0xff;
;;;415    
;;;416    snmp_bps_number[6]=7;
;;;417    snmp_bps_voltage[6]=bps[6]._Uii;
;;;418    snmp_bps_current[6]=bps[6]._Ii;
;;;419    snmp_bps_temperature[6]=bps[6]._Ti;
;;;420    snmp_bps_stat[6]=bps[6]._av;
;;;421    if(!(NUMIST>6))snmp_bps_stat[6]=0xff;
;;;422    
;;;423    snmp_bps_number[7]=8;
;;;424    snmp_bps_voltage[7]=bps[7]._Uii;
;;;425    snmp_bps_current[7]=bps[7]._Ii;
;;;426    snmp_bps_temperature[7]=bps[7]._Ti;
;;;427    snmp_bps_stat[7]=bps[7]._av;
;;;428    if(!(NUMIST>7))snmp_bps_stat[7]=0xff;
;;;429    
;;;430    
;;;431    
;;;432    snmp_inv_number[0]=1;
;;;433    snmp_inv_voltage[0]=inv[0]._Uio;
;;;434    snmp_inv_current[0]=inv[0]._Ii;
;;;435    snmp_inv_temperature[0]=inv[0]._Ti;
;;;436    snmp_inv_stat[0]=inv[0]._flags_tm;
;;;437    
;;;438    snmp_inv_number[1]=2;
;;;439    snmp_inv_voltage[1]=inv[1]._Uio;
;;;440    snmp_inv_current[1]=inv[1]._Ii;
;;;441    snmp_inv_temperature[1]=inv[1]._Ti;
;;;442    snmp_inv_stat[1]=inv[1]._flags_tm;
;;;443    
;;;444    snmp_inv_number[2]=3;
;;;445    snmp_inv_voltage[2]=inv[2]._Uio;
;;;446    snmp_inv_current[2]=inv[2]._Ii;
;;;447    snmp_inv_temperature[2]=inv[2]._Ti;
;;;448    snmp_inv_stat[2]=inv[2]._flags_tm;
;;;449    
;;;450    
;;;451    
;;;452    
;;;453    					  
;;;454    snmp_sk_number[0]=1;
;;;455    memcpy(&snmp_sk_name[0][0],"Door",10);
;;;456    if(sk_stat[0]==ssON) snmp_sk_aktiv[0]=1;
;;;457    else snmp_sk_aktiv[0]=0;
;;;458    if(!SK_SIGN[0])snmp_sk_alarm_aktiv[0]=1;
;;;459    else snmp_sk_alarm_aktiv[0]=0;
;;;460    if(sk_av_stat[0]==sasON)	snmp_sk_alarm[0]=1;
;;;461    else                     snmp_sk_alarm[0]=0;
;;;462    
;;;463    
;;;464    snmp_sk_number[1]=2;
;;;465    memcpy(&snmp_sk_name[1][0],"Smoke",10);
;;;466    if(sk_stat[1]==ssON) snmp_sk_aktiv[1]=1;
;;;467    else snmp_sk_aktiv[1]=0;
;;;468    if(!SK_SIGN[1])snmp_sk_alarm_aktiv[1]=1;
;;;469    else snmp_sk_alarm_aktiv[1]=0;
;;;470    if(sk_av_stat[1]==sasON)	snmp_sk_alarm[1]=1;
;;;471    else                     snmp_sk_alarm[1]=0;
;;;472    
;;;473    snmp_sk_number[2]=3;
;;;474    memcpy(&snmp_sk_name[2][0],"Shock",10);
;;;475    if(sk_stat[2]==ssON) snmp_sk_aktiv[2]=1;
;;;476    else snmp_sk_aktiv[2]=0;
;;;477    if(!SK_SIGN[2])snmp_sk_alarm_aktiv[2]=1;
;;;478    else snmp_sk_alarm_aktiv[2]=0;
;;;479    if(sk_av_stat[2]==sasON)	snmp_sk_alarm[2]=1;
;;;480    else                     snmp_sk_alarm[2]=0;
;;;481    
;;;482    snmp_sk_number[3]=4;
;;;483    memcpy(&snmp_sk_name[3][0],"     ",10);
;;;484    if(sk_stat[3]==ssON) snmp_sk_aktiv[3]=1;
;;;485    else snmp_sk_aktiv[3]=0;
;;;486    if(!SK_SIGN[3])snmp_sk_alarm_aktiv[3]=1;
;;;487    else snmp_sk_alarm_aktiv[3]=0;
;;;488    if(sk_av_stat[3]==sasON)	snmp_sk_alarm[3]=1;
;;;489    else                     snmp_sk_alarm[3]=0;
;;;490    
;;;491    
;;;492    if(makb[0]._cnt>8) snmp_makb_connect_status[0]=1;
;;;493    else if(makb[0]._cnt<2) snmp_makb_connect_status[0]=0;
;;;494    if(makb[1]._cnt>8) snmp_makb_connect_status[1]=1;
;;;495    else if(makb[1]._cnt<2) snmp_makb_connect_status[1]=0;
;;;496    if(makb[2]._cnt>8) snmp_makb_connect_status[2]=1;
;;;497    else if(makb[2]._cnt<2) snmp_makb_connect_status[2]=0;
;;;498    if(makb[3]._cnt>8) snmp_makb_connect_status[3]=1;
;;;499    else if(makb[3]._cnt<2) snmp_makb_connect_status[3]=0;
;;;500    
;;;501    snmp_makb_voltage0[0]=makb[0]._Ub[0];
;;;502    snmp_makb_voltage1[0]=makb[0]._Ub[1];
;;;503    snmp_makb_voltage2[0]=makb[0]._Ub[2];
;;;504    snmp_makb_voltage3[0]=makb[0]._Ub[3];
;;;505    snmp_makb_voltage4[0]=makb[0]._Ub[4];
;;;506    snmp_makb_voltage0[1]=makb[1]._Ub[0];
;;;507    snmp_makb_voltage1[1]=makb[1]._Ub[1];
;;;508    snmp_makb_voltage2[1]=makb[1]._Ub[2];
;;;509    snmp_makb_voltage3[1]=makb[1]._Ub[3];
;;;510    snmp_makb_voltage4[1]=makb[1]._Ub[4];
;;;511    snmp_makb_voltage0[2]=makb[2]._Ub[0];
;;;512    snmp_makb_voltage1[2]=makb[2]._Ub[1];
;;;513    snmp_makb_voltage2[2]=makb[2]._Ub[2];
;;;514    snmp_makb_voltage3[2]=makb[2]._Ub[3];
;;;515    snmp_makb_voltage4[2]=makb[2]._Ub[4];
;;;516    snmp_makb_voltage0[3]=makb[3]._Ub[0];
;;;517    snmp_makb_voltage1[3]=makb[3]._Ub[1];
;;;518    snmp_makb_voltage2[3]=makb[3]._Ub[2];
;;;519    snmp_makb_voltage3[3]=makb[3]._Ub[3];
;;;520    snmp_makb_voltage4[3]=makb[3]._Ub[4];
;;;521    
;;;522    snmp_makb_temper0[0]=makb[0]._T[0];
;;;523    snmp_makb_temper1[0]=makb[0]._T[1];
;;;524    snmp_makb_temper2[0]=makb[0]._T[2];
;;;525    snmp_makb_temper3[0]=makb[0]._T[3];
;;;526    snmp_makb_temper4[0]=makb[0]._T[4];
;;;527    snmp_makb_temper0[1]=makb[1]._T[0];
;;;528    snmp_makb_temper1[1]=makb[1]._T[1];
;;;529    snmp_makb_temper2[1]=makb[1]._T[2];
;;;530    snmp_makb_temper3[1]=makb[1]._T[3];
;;;531    snmp_makb_temper4[1]=makb[1]._T[4];
;;;532    snmp_makb_temper0[2]=makb[2]._T[0];
;;;533    snmp_makb_temper1[2]=makb[2]._T[1];
;;;534    snmp_makb_temper2[2]=makb[2]._T[2];
;;;535    snmp_makb_temper3[2]=makb[2]._T[3];
;;;536    snmp_makb_temper4[2]=makb[2]._T[4];
;;;537    snmp_makb_temper0[3]=makb[3]._T[0];
;;;538    snmp_makb_temper1[3]=makb[3]._T[1];
;;;539    snmp_makb_temper2[3]=makb[3]._T[2];
;;;540    snmp_makb_temper3[3]=makb[3]._T[3];
;;;541    snmp_makb_temper4[3]=makb[3]._T[4];
;;;542    
;;;543    snmp_makb_temper0_stat[0]=makb[0]._T_nd[0];
;;;544    snmp_makb_temper1_stat[0]=makb[0]._T_nd[1];
;;;545    snmp_makb_temper2_stat[0]=makb[0]._T_nd[2];
;;;546    snmp_makb_temper3_stat[0]=makb[0]._T_nd[3];
;;;547    snmp_makb_temper4_stat[0]=makb[0]._T_nd[4];
;;;548    snmp_makb_temper0_stat[1]=makb[1]._T_nd[0];
;;;549    snmp_makb_temper1_stat[1]=makb[1]._T_nd[1];
;;;550    snmp_makb_temper2_stat[1]=makb[1]._T_nd[2];
;;;551    snmp_makb_temper3_stat[1]=makb[1]._T_nd[3];
;;;552    snmp_makb_temper4_stat[1]=makb[1]._T_nd[4];
;;;553    snmp_makb_temper0_stat[2]=makb[2]._T_nd[0];
;;;554    snmp_makb_temper1_stat[2]=makb[2]._T_nd[1];
;;;555    snmp_makb_temper2_stat[2]=makb[2]._T_nd[2];
;;;556    snmp_makb_temper3_stat[2]=makb[2]._T_nd[3];
;;;557    snmp_makb_temper4_stat[2]=makb[2]._T_nd[4];
;;;558    snmp_makb_temper0_stat[3]=makb[3]._T_nd[0];
;;;559    snmp_makb_temper1_stat[3]=makb[3]._T_nd[1];
;;;560    snmp_makb_temper2_stat[3]=makb[3]._T_nd[2];
;;;561    snmp_makb_temper3_stat[3]=makb[3]._T_nd[3];
;;;562    snmp_makb_temper4_stat[3]=makb[3]._T_nd[4];
;;;563    
;;;564    
;;;565    snmp_klimat_box_temper=t_box;
;;;566    snmp_klimat_settings_box_alarm=TBOXMAX;
;;;567    snmp_klimat_settings_vent_on=TBOXVENTON;
;;;568    snmp_klimat_settings_vent_off=TBOXVENTOFF;
;;;569    snmp_klimat_settings_warm_on=TBOXWARMON;
;;;570    snmp_klimat_settings_warm_off=TBOXWARMOFF;
;;;571    snmp_klimat_settings_load_on=TLOADENABLE;
;;;572    snmp_klimat_settings_load_off=TLOADDISABLE;
;;;573    snmp_klimat_settings_batt_on=TBATENABLE;
;;;574    snmp_klimat_settings_batt_off=TBATDISABLE;
;;;575    
;;;576    snmp_dt_ext=t_ext[0];
;;;577    snmp_dt_msan=t_ext[1];
;;;578    snmp_dt_epu=t_ext[2];
;;;579    
;;;580    /*
;;;581    snmp_bat_voltage=Ubat;
;;;582    snmp_bat_current=Ibat;
;;;583    snmp_bat_temperature=t_b;
;;;584    if(BAT_C_REAL==0x5555)
;;;585    	{
;;;586    	snmp_bat_capacity=BAT_C_NOM*10;												    11
;;;587    	}
;;;588    else
;;;589    	{
;;;590    	snmp_bat_capacity=BAT_C_REAL;
;;;591    	}
;;;592    snmp_bat_charge=zar_percent;
;;;593    snmp_bat_status=0;
;;;594    if(St&0x02)snmp_bat_status|=0x01;
;;;595    if(Ibat>0)snmp_bat_status|=0x02;
;;;596    
;;;597    
;;;598    if(spc_stat==spc_OFF) snmp_spc_stat=0;
;;;599    else if(spc_stat==spc_KE) snmp_spc_stat=1;
;;;600    else if(spc_stat==spc_VZ) snmp_spc_stat=10;
;;;601    
;;;602    
;;;603    snmp_main_bps=MAIN_IST+1;
;;;604    */
;;;605    snmp_zv_en=ZV_ON;
;;;606    snmp_alarm_auto_disable=AV_OFF_AVT;
;;;607    snmp_bat_test_time=TBAT;
;;;608    snmp_u_max=UMAX;
;;;609    //snmp_u_min=UB20-DU;
;;;610    //snmp_u_0_grad=UB0;
;;;611    //snmp_u_20_grad=UB20;
;;;612    snmp_u_sign=USIGN;
;;;613    snmp_u_min_power=UMN;
;;;614    snmp_u_withouth_bat=U0B;
;;;615    snmp_control_current=IKB;
;;;616    snmp_max_charge_current=IZMAX;
;;;617    snmp_max_current=IMAX;
;;;618    snmp_min_current=IMIN;
;;;619    //snmp_max_current_koef=KIMAX;
;;;620    //snmp_uvz=UVZ;
;;;621    snmp_powerup_psu_timeout=TZAS;
;;;622    snmp_max_temperature=TMAX;
;;;623    snmp_tsign_bat=TBATSIGN; 
;;;624    snmp_tmax_bat=TBATMAX;
;;;625    snmp_tsign_bps=TSIGN;
;;;626    snmp_tmax_bps=TMAX;
;;;627    snmp_bat_part_alarm=UBM_AV; 
;;;628    snmp_power_cnt_adress=POWER_CNT_ADRESS;
;;;629    
;;;630    for(i=0;i<12;i++)
;;;631    	{
;;;632    	snmp_avt_number[i]=i+1;
;;;633    	if(avt_stat[i]==avtOFF)snmp_avt_stat[i]=0;
;;;634    	else snmp_avt_stat[i]=1;
;;;635    	}
;;;636    
;;;637    snmp_dt_number[0]=1;
;;;638    snmp_dt_number[1]=2;
;;;639    snmp_dt_number[2]=3;
;;;640    //snmp_dt_number[3]=4;
;;;641    snmp_dt_temper[0]=t_ext[0];
;;;642    snmp_dt_temper[1]=t_ext[1];
;;;643    snmp_dt_temper[2]=t_ext[2];
;;;644    //snmp_dt_temper[3]=t_ext[3];
;;;645    snmp_dt_error[0]=ND_EXT[0];
;;;646    if(NUMDT<1)snmp_dt_error[0]=0xff;
;;;647    snmp_dt_error[1]=ND_EXT[1];
;;;648    if(NUMDT<2)snmp_dt_error[0]=0xff;
;;;649    snmp_dt_error[2]=ND_EXT[2];
;;;650    if(NUMDT<3)snmp_dt_error[0]=0xff;
;;;651    //snmp_dt_error[3]=ND_EXT[3];
;;;652    if(NUMDT<4)snmp_dt_error[0]=0xff;
;;;653    
;;;654    /*
;;;655    //Литиевые батареи
;;;656    snmp_lakb_number[0]=1;								//Номер ЛАКБ
;;;657    snmp_lakb_number[1]=2;								//Номер ЛАКБ
;;;658    snmp_lakb_voltage[0]=lakb[0]._tot_bat_volt;				//Напряжение ЛАКБ
;;;659    snmp_lakb_voltage[1]=lakb[1]._tot_bat_volt;				//Напряжение ЛАКБ
;;;660    snmp_lakb_max_cell_voltage[0]=lakb[0]._max_cell_volt;		//Максимальное напряжение ячейки ЛАКБ
;;;661    snmp_lakb_max_cell_voltage[1]=lakb[1]._max_cell_volt;		//Максимальное напряжение ячейки ЛАКБ
;;;662    snmp_lakb_min_cell_voltage[0]=lakb[0]._min_cell_volt;		//Минимальное напряжение ячейки ЛАКБ
;;;663    snmp_lakb_min_cell_voltage[1]=lakb[1]._min_cell_volt;		//Минимальное напряжение ячейки ЛАКБ
;;;664    snmp_lakb_max_cell_temperature[0]=lakb[0]._max_cell_temp;	//Максимальная температура ячейки ЛАКБ
;;;665    snmp_lakb_max_cell_temperature[1]=lakb[1]._max_cell_temp;	//Максимальная температура ячейки ЛАКБ
;;;666    snmp_lakb_min_cell_temperature[0]=lakb[0]._min_cell_temp;	//Минимальная температура ячейки ЛАКБ
;;;667    snmp_lakb_min_cell_temperature[1]=lakb[1]._min_cell_temp;	//Минимальная температура ячейки ЛАКБ
;;;668    snmp_lakb_ch_curr[0]=lakb[0]._ch_curr;					//Ток заряда ЛАКБ
;;;669    snmp_lakb_ch_curr[1]=lakb[1]._ch_curr;					//Ток заряда ЛАКБ
;;;670    snmp_lakb_dsch_curr[0]=lakb[0]._dsch_curr;				//Ток разряда ЛАКБ
;;;671    snmp_lakb_dsch_curr[1]=lakb[1]._dsch_curr;				//Ток разряда ЛАКБ
;;;672    snmp_lakb_rat_cap[0]=lakb[0]._rat_cap;					//Номинальная емкость ЛАКБ
;;;673    snmp_lakb_rat_cap[1]=lakb[1]._rat_cap;					//Номинальная емкость ЛАКБ
;;;674    snmp_lakb_soh[0]=lakb[0]._s_o_h;						//Остаточная емкость ЛАКБ
;;;675    snmp_lakb_soh[1]=lakb[1]._s_o_h;						//Остаточная емкость ЛАКБ
;;;676    snmp_lakb_soc[0]=lakb[0]._s_o_c;						//Заряд ЛАКБ
;;;677    snmp_lakb_soc[1]=lakb[1]._s_o_c;						//Заряд ЛАКБ
;;;678    snmp_lakb_cclv[0]=lakb[0]._c_c_l_v;  					//Максимальный ток заряда ЛАКБ
;;;679    snmp_lakb_cclv[1]=lakb[1]._c_c_l_v;  					//Максимальный ток заряда ЛАКБ
;;;680    snmp_lakb_rbt[0]=lakb[0]._r_b_t;						//Оцениваемое время работы ЛАКБ
;;;681    snmp_lakb_rbt[1]=lakb[1]._r_b_t;						//Оцениваемое время работы ЛАКБ
;;;682    snmp_lakb_flags1[0]=lakb[0]._flags1;					//Первый флаг состояния ЛАКБ
;;;683    snmp_lakb_flags1[1]=lakb[1]._flags1;					//Первый флаг состояния ЛАКБ
;;;684    snmp_lakb_flags2[0]=lakb[0]._flags2;					//Второй флаг состояния ЛАКБ
;;;685    snmp_lakb_flags2[1]=lakb[1]._flags2;					//Второй флаг состояния ЛАКБ */
;;;686    
;;;687    //Литиевые батареи
;;;688    snmp_lakb_number[0]=1;								//Номер ЛАКБ
;;;689    snmp_lakb_number[1]=2;								//Номер ЛАКБ
;;;690    snmp_lakb_number[2]=3;								//Номер ЛАКБ
;;;691    snmp_lakb_number[3]=4;								//Номер ЛАКБ
;;;692    snmp_lakb_number[4]=5;								//Номер ЛАКБ
;;;693    snmp_lakb_number[5]=6;								//Номер ЛАКБ
;;;694    snmp_lakb_number[6]=7;								//Номер ЛАКБ
;;;695    
;;;696    for (i=0;i<3;i++)
;;;697    	{
;;;698    	snmp_lakb_voltage[i]=lakb[i]._tot_bat_volt;				//Напряжение ЛАКБ
;;;699    	snmp_lakb_max_cell_voltage[i]=lakb[i]._max_cell_volt;		//Максимальное напряжение ячейки ЛАКБ
;;;700    	snmp_lakb_min_cell_voltage[i]=lakb[i]._min_cell_volt;		//Минимальное напряжение ячейки ЛАКБ
;;;701    	snmp_lakb_max_cell_temperature[i]=lakb[i]._max_cell_temp;	//Максимальная температура ячейки ЛАКБ
;;;702    	//snmp_lakb_max_cell_temperature[1]=lakb[1]._max_cell_temp;	//Максимальная температура ячейки ЛАКБ
;;;703    	snmp_lakb_min_cell_temperature[i]=lakb[i]._min_cell_temp;	//Минимальная температура ячейки ЛАКБ
;;;704    	//snmp_lakb_min_cell_temperature[1]=lakb[1]._min_cell_temp;	//Минимальная температура ячейки ЛАКБ
;;;705    	snmp_lakb_ch_curr[i]=lakb[i]._ch_curr;					//Ток заряда ЛАКБ
;;;706    	//snmp_lakb_ch_curr[1]=lakb[1]._ch_curr;					//Ток заряда ЛАКБ
;;;707    	snmp_lakb_dsch_curr[i]=lakb[i]._dsch_curr;				//Ток разряда ЛАКБ
;;;708    	//snmp_lakb_dsch_curr[1]=lakb[1]._dsch_curr;				//Ток разряда ЛАКБ
;;;709    	snmp_lakb_rat_cap[i]=lakb[i]._rat_cap;					//Номинальная емкость ЛАКБ
;;;710    	//snmp_lakb_rat_cap[1]=lakb[1]._rat_cap;					//Номинальная емкость ЛАКБ
;;;711    	snmp_lakb_soh[i]=lakb[i]._s_o_h;						//Остаточная емкость ЛАКБ
;;;712    	//snmp_lakb_soh[1]=lakb[1]._s_o_h;						//Остаточная емкость ЛАКБ
;;;713    	snmp_lakb_soc[i]=lakb[i]._s_o_c;						//Заряд ЛАКБ
;;;714    	//snmp_lakb_soc[1]=lakb[1]._s_o_c;						//Заряд ЛАКБ
;;;715    	snmp_lakb_cclv[i]=lakb[i]._c_c_l_v;  					//Максимальный ток заряда ЛАКБ
;;;716    	//snmp_lakb_cclv[1]=lakb[1]._c_c_l_v;  					//Максимальный ток заряда ЛАКБ
;;;717    	snmp_lakb_rbt[i]=lakb[i]._r_b_t;						//Оцениваемое время работы ЛАКБ
;;;718    	//snmp_lakb_rbt[1]=lakb[1]._r_b_t;						//Оцениваемое время работы ЛАКБ
;;;719    	snmp_lakb_flags1[i]=lakb[i]._flags1;					//Первый флаг состояния ЛАКБ
;;;720    	//snmp_lakb_flags1[1]=lakb[1]._flags1;					//Первый флаг состояния ЛАКБ
;;;721    	snmp_lakb_flags2[i]=lakb[i]._flags2;					//Второй флаг состояния ЛАКБ
;;;722    	//snmp_lakb_flags2[1]=lakb[1]._flags2;					//Второй флаг состояния ЛАКБ
;;;723    
;;;724    	snmp_lakb_cell_temperature_1[i]= lakb[i]._cell_temp_1;
;;;725    	snmp_lakb_cell_temperature_2[i]= lakb[i]._cell_temp_2;
;;;726    	snmp_lakb_cell_temperature_3[i]= lakb[i]._cell_temp_3;
;;;727    	snmp_lakb_cell_temperature_4[i]= lakb[i]._cell_temp_4;
;;;728    	snmp_lakb_cell_temperature_ambient[i]=lakb[i]._cell_temp_ambient;
;;;729    	snmp_lakb_cell_temperature_power[i]=lakb[i]._cell_temp_power;
;;;730    	}
;;;731    
;;;732    for (i=0;i<7;i++)
;;;733    {
;;;734    /*
;;;735    snmp_lakb_damp1[i][0]=ABCDEF[(lakb_damp[i][0])>>4];			//Дамп
;;;736    snmp_lakb_damp1[i][1]=ABCDEF[(lakb_damp[i][0])&0x0f];			//Дамп
;;;737    snmp_lakb_damp1[i][2]=' ';
;;;738    snmp_lakb_damp1[i][3]=ABCDEF[(lakb_damp[i][1])>>4];			//Дамп
;;;739    snmp_lakb_damp1[i][4]=ABCDEF[(lakb_damp[i][1])&0x0f];			//Дамп
;;;740    snmp_lakb_damp1[i][5]=' ';
;;;741    snmp_lakb_damp1[i][6]=ABCDEF[(lakb_damp[i][2])>>4];			//Дамп
;;;742    snmp_lakb_damp1[i][7]=ABCDEF[(lakb_damp[i][2])&0x0f];			//Дамп
;;;743    snmp_lakb_damp1[i][8]=' ';
;;;744    snmp_lakb_damp1[i][9]=ABCDEF[(lakb_damp[i][3])>>4];			//Дамп
;;;745    snmp_lakb_damp1[i][10]=ABCDEF[(lakb_damp[i][3])&0x0f];			//Дамп
;;;746    snmp_lakb_damp1[i][11]=' ';
;;;747    snmp_lakb_damp1[i][12]=ABCDEF[(lakb_damp[i][4])>>4];			//Дамп
;;;748    snmp_lakb_damp1[i][13]=ABCDEF[(lakb_damp[i][4])&0x0f];			//Дамп
;;;749    snmp_lakb_damp1[i][14]=' '; 
;;;750    snmp_lakb_damp1[i][15]=ABCDEF[(lakb_damp[i][5])>>4];			//Дамп
;;;751    snmp_lakb_damp1[i][16]=ABCDEF[(lakb_damp[i][5])&0x0f];			//Дамп
;;;752    snmp_lakb_damp1[i][17]=' ';
;;;753    snmp_lakb_damp1[i][18]=ABCDEF[(lakb_damp[i][6])>>4];			//Дамп
;;;754    snmp_lakb_damp1[i][19]=ABCDEF[(lakb_damp[i][6])&0x0f];			//Дамп
;;;755    snmp_lakb_damp1[i][20]=' ';
;;;756    snmp_lakb_damp1[i][21]=ABCDEF[(lakb_damp[i][7])>>4];			//Дамп
;;;757    snmp_lakb_damp1[i][22]=ABCDEF[(lakb_damp[i][7])&0x0f];			//Дамп
;;;758    snmp_lakb_damp1[i][23]=' ';
;;;759    snmp_lakb_damp1[i][24]=ABCDEF[(lakb_damp[i][8])>>4];			//Дамп
;;;760    snmp_lakb_damp1[i][25]=ABCDEF[(lakb_damp[i][8])&0x0f];			//Дамп
;;;761    snmp_lakb_damp1[i][26]=' ';
;;;762    snmp_lakb_damp1[i][27]=ABCDEF[(lakb_damp[i][9])>>4];			//Дамп
;;;763    snmp_lakb_damp1[i][28]=ABCDEF[(lakb_damp[i][9])&0x0f];			//Дамп
;;;764    snmp_lakb_damp1[i][29]=0; 
;;;765    
;;;766    snmp_lakb_damp1[i][30]=ABCDEF[(lakb_damp[i][10])>>4];			//Дамп
;;;767    snmp_lakb_damp1[i][31]=ABCDEF[(lakb_damp[i][10])&0x0f];			//Дамп
;;;768    snmp_lakb_damp1[i][32]=' ';
;;;769    snmp_lakb_damp1[i][33]=ABCDEF[(lakb_damp[i][11])>>4];			//Дамп
;;;770    snmp_lakb_damp1[i][34]=ABCDEF[(lakb_damp[i][11])&0x0f];			//Дамп
;;;771    snmp_lakb_damp1[i][35]=' ';
;;;772    snmp_lakb_damp1[i][36]=ABCDEF[(lakb_damp[i][12])>>4];			//Дамп
;;;773    snmp_lakb_damp1[i][37]=ABCDEF[(lakb_damp[i][12])&0x0f];			//Дамп
;;;774    snmp_lakb_damp1[i][38]=' ';
;;;775    snmp_lakb_damp1[i][39]=ABCDEF[(lakb_damp[i][13])>>4];			//Дамп
;;;776    snmp_lakb_damp1[i][40]=ABCDEF[(lakb_damp[i][13])&0x0f];			//Дамп
;;;777    snmp_lakb_damp1[i][41]=' ';
;;;778    snmp_lakb_damp1[i][42]=ABCDEF[(lakb_damp[i][14])>>4];			//Дамп
;;;779    snmp_lakb_damp1[i][43]=ABCDEF[(lakb_damp[i][14])&0x0f];			//Дамп
;;;780    snmp_lakb_damp1[i][44]=' '; 
;;;781    snmp_lakb_damp1[i][45]=ABCDEF[(lakb_damp[i][15])>>4];			//Дамп
;;;782    snmp_lakb_damp1[i][46]=ABCDEF[(lakb_damp[i][15])&0x0f];			//Дамп
;;;783    snmp_lakb_damp1[i][47]=' ';
;;;784    snmp_lakb_damp1[i][48]=ABCDEF[(lakb_damp[i][16])>>4];			//Дамп
;;;785    snmp_lakb_damp1[i][49]=ABCDEF[(lakb_damp[i][16])&0x0f];			//Дамп
;;;786    snmp_lakb_damp1[i][50]=' ';
;;;787    snmp_lakb_damp1[i][51]=ABCDEF[(lakb_damp[i][17])>>4];			//Дамп
;;;788    snmp_lakb_damp1[i][52]=ABCDEF[(lakb_damp[i][17])&0x0f];			//Дамп
;;;789    snmp_lakb_damp1[i][53]=' ';
;;;790    snmp_lakb_damp1[i][54]=ABCDEF[(lakb_damp[i][18])>>4];			//Дамп
;;;791    snmp_lakb_damp1[i][55]=ABCDEF[(lakb_damp[i][18])&0x0f];			//Дамп
;;;792    snmp_lakb_damp1[i][56]=' ';
;;;793    snmp_lakb_damp1[i][57]=ABCDEF[(lakb_damp[i][19])>>4];			//Дамп
;;;794    snmp_lakb_damp1[i][58]=ABCDEF[(lakb_damp[i][19])&0x0f];			//Дамп
;;;795    snmp_lakb_damp1[i][59]=0; 
;;;796    
;;;797    
;;;798    snmp_lakb_damp1[i][60]=ABCDEF[(lakb_damp[i][20])>>4];			//Дамп
;;;799    snmp_lakb_damp1[i][61]=ABCDEF[(lakb_damp[i][20])&0x0f];			//Дамп
;;;800    snmp_lakb_damp1[i][62]=' ';
;;;801    snmp_lakb_damp1[i][63]=ABCDEF[(lakb_damp[i][21])>>4];			//Дамп
;;;802    snmp_lakb_damp1[i][64]=ABCDEF[(lakb_damp[i][21])&0x0f];			//Дамп
;;;803    snmp_lakb_damp1[i][65]=' ';
;;;804    snmp_lakb_damp1[i][66]=ABCDEF[(lakb_damp[i][22])>>4];			//Дамп
;;;805    snmp_lakb_damp1[i][67]=ABCDEF[(lakb_damp[i][22])&0x0f];			//Дамп
;;;806    snmp_lakb_damp1[i][68]=' ';
;;;807    snmp_lakb_damp1[i][69]=ABCDEF[(lakb_damp[i][23])>>4];			//Дамп
;;;808    snmp_lakb_damp1[i][70]=ABCDEF[(lakb_damp[i][23])&0x0f];			//Дамп
;;;809    snmp_lakb_damp1[i][71]=' ';
;;;810    snmp_lakb_damp1[i][72]=ABCDEF[(lakb_damp[i][24])>>4];			//Дамп
;;;811    snmp_lakb_damp1[i][73]=ABCDEF[(lakb_damp[i][24])&0x0f];			//Дамп
;;;812    snmp_lakb_damp1[i][74]=' '; 
;;;813    snmp_lakb_damp1[i][75]=ABCDEF[(lakb_damp[i][25])>>4];			//Дамп
;;;814    snmp_lakb_damp1[i][76]=ABCDEF[(lakb_damp[i][25])&0x0f];			//Дамп
;;;815    snmp_lakb_damp1[i][77]=' ';
;;;816    snmp_lakb_damp1[i][78]=ABCDEF[(lakb_damp[i][26])>>4];			//Дамп
;;;817    snmp_lakb_damp1[i][79]=ABCDEF[(lakb_damp[i][26])&0x0f];			//Дамп
;;;818    snmp_lakb_damp1[i][80]=' ';
;;;819    snmp_lakb_damp1[i][81]=ABCDEF[(lakb_damp[i][27])>>4];			//Дамп
;;;820    snmp_lakb_damp1[i][82]=ABCDEF[(lakb_damp[i][27])&0x0f];			//Дамп
;;;821    snmp_lakb_damp1[i][83]=' ';
;;;822    snmp_lakb_damp1[i][84]=ABCDEF[(lakb_damp[i][28])>>4];			//Дамп
;;;823    snmp_lakb_damp1[i][85]=ABCDEF[(lakb_damp[i][28])&0x0f];			//Дамп
;;;824    snmp_lakb_damp1[i][86]=' ';
;;;825    snmp_lakb_damp1[i][87]=ABCDEF[(lakb_damp[i][29])>>4];			//Дамп
;;;826    snmp_lakb_damp1[i][88]=ABCDEF[(lakb_damp[i][29])&0x0f];			//Дамп
;;;827    snmp_lakb_damp1[i][89]=0;
;;;828    
;;;829    
;;;830    snmp_lakb_damp1[i][90]=ABCDEF[(lakb_damp[i][30])>>4];			//Дамп
;;;831    snmp_lakb_damp1[i][91]=ABCDEF[(lakb_damp[i][30])&0x0f];			//Дамп
;;;832    snmp_lakb_damp1[i][92]=' ';
;;;833    snmp_lakb_damp1[i][93]=ABCDEF[(lakb_damp[i][31])>>4];			//Дамп
;;;834    snmp_lakb_damp1[i][94]=ABCDEF[(lakb_damp[i][31])&0x0f];			//Дамп
;;;835    snmp_lakb_damp1[i][95]=' ';
;;;836    snmp_lakb_damp1[i][96]=ABCDEF[(lakb_damp[i][32])>>4];			//Дамп
;;;837    snmp_lakb_damp1[i][97]=ABCDEF[(lakb_damp[i][32])&0x0f];			//Дамп
;;;838    snmp_lakb_damp1[i][98]=' ';
;;;839    snmp_lakb_damp1[i][99]=ABCDEF[(lakb_damp[i][33])>>4];			//Дамп
;;;840    snmp_lakb_damp1[i][100]=ABCDEF[(lakb_damp[i][33])&0x0f];			//Дамп
;;;841    snmp_lakb_damp1[i][101]=' ';
;;;842    snmp_lakb_damp1[i][102]=ABCDEF[(lakb_damp[i][34])>>4];			//Дамп
;;;843    snmp_lakb_damp1[i][103]=ABCDEF[(lakb_damp[i][34])&0x0f];			//Дамп
;;;844    snmp_lakb_damp1[i][104]=' '; 
;;;845    snmp_lakb_damp1[i][105]=ABCDEF[(lakb_damp[i][35])>>4];			//Дамп
;;;846    snmp_lakb_damp1[i][106]=ABCDEF[(lakb_damp[i][35])&0x0f];			//Дамп
;;;847    snmp_lakb_damp1[i][107]=' ';
;;;848    snmp_lakb_damp1[i][108]=ABCDEF[(lakb_damp[i][36])>>4];			//Дамп
;;;849    snmp_lakb_damp1[i][109]=ABCDEF[(lakb_damp[i][36])&0x0f];			//Дамп
;;;850    snmp_lakb_damp1[i][110]=' ';
;;;851    snmp_lakb_damp1[i][111]=ABCDEF[(lakb_damp[i][37])>>4];			//Дамп
;;;852    snmp_lakb_damp1[i][112]=ABCDEF[(lakb_damp[i][37])&0x0f];			//Дамп
;;;853    snmp_lakb_damp1[i][113]=' ';
;;;854    snmp_lakb_damp1[i][114]=ABCDEF[(lakb_damp[i][38])>>4];			//Дамп
;;;855    snmp_lakb_damp1[i][115]=ABCDEF[(lakb_damp[i][38])&0x0f];			//Дамп
;;;856    snmp_lakb_damp1[i][116]=' ';
;;;857    snmp_lakb_damp1[i][117]=ABCDEF[(lakb_damp[i][39])>>4];			//Дамп
;;;858    snmp_lakb_damp1[i][118]=ABCDEF[(lakb_damp[i][39])&0x0f];			//Дамп
;;;859    snmp_lakb_damp1[i][119]=0; 
;;;860     
;;;861    
;;;862    snmp_lakb_damp1[i][120]=ABCDEF[(lakb_damp[i][40])>>4];			//Дамп
;;;863    snmp_lakb_damp1[i][121]=ABCDEF[(lakb_damp[i][40])&0x0f];			//Дамп
;;;864    snmp_lakb_damp1[i][122]=' ';
;;;865    snmp_lakb_damp1[i][123]=ABCDEF[(lakb_damp[i][41])>>4];			//Дамп
;;;866    snmp_lakb_damp1[i][124]=ABCDEF[(lakb_damp[i][41])&0x0f];			//Дамп
;;;867    snmp_lakb_damp1[i][125]=' ';
;;;868    snmp_lakb_damp1[i][126]=ABCDEF[(lakb_damp[i][42])>>4];			//Дамп
;;;869    snmp_lakb_damp1[i][127]=ABCDEF[(lakb_damp[i][42])&0x0f];			//Дамп
;;;870    snmp_lakb_damp1[i][128]=' ';
;;;871    snmp_lakb_damp1[i][129]=ABCDEF[(lakb_damp[i][43])>>4];			//Дамп
;;;872    snmp_lakb_damp1[i][130]=ABCDEF[(lakb_damp[i][43])&0x0f];			//Дамп
;;;873    snmp_lakb_damp1[i][131]=' ';
;;;874    snmp_lakb_damp1[i][132]=ABCDEF[(lakb_damp[i][44])>>4];			//Дамп
;;;875    snmp_lakb_damp1[i][133]=ABCDEF[(lakb_damp[i][44])&0x0f];			//Дамп
;;;876    snmp_lakb_damp1[i][134]=' '; 
;;;877    snmp_lakb_damp1[i][135]=ABCDEF[(lakb_damp[i][45])>>4];			//Дамп
;;;878    snmp_lakb_damp1[i][136]=ABCDEF[(lakb_damp[i][45])&0x0f];			//Дамп
;;;879    snmp_lakb_damp1[i][137]=' ';
;;;880    snmp_lakb_damp1[i][138]=ABCDEF[(lakb_damp[i][46])>>4];			//Дамп
;;;881    snmp_lakb_damp1[i][139]=ABCDEF[(lakb_damp[i][46])&0x0f];			//Дамп
;;;882    snmp_lakb_damp1[i][140]=' ';
;;;883    snmp_lakb_damp1[i][141]=ABCDEF[(lakb_damp[i][47])>>4];			//Дамп
;;;884    snmp_lakb_damp1[i][142]=ABCDEF[(lakb_damp[i][47])&0x0f];			//Дамп
;;;885    snmp_lakb_damp1[i][143]=' ';
;;;886    snmp_lakb_damp1[i][144]=ABCDEF[(lakb_damp[i][48])>>4];			//Дамп
;;;887    snmp_lakb_damp1[i][145]=ABCDEF[(lakb_damp[i][48])&0x0f];			//Дамп
;;;888    snmp_lakb_damp1[i][146]=' ';
;;;889    snmp_lakb_damp1[i][147]=ABCDEF[(lakb_damp[i][49])>>4];			//Дамп
;;;890    snmp_lakb_damp1[i][148]=ABCDEF[(lakb_damp[i][49])&0x0f];			//Дамп
;;;891    snmp_lakb_damp1[i][149]=0;  */
;;;892    }
;;;893    
;;;894    #ifdef UKU_TELECORE2017
;;;895    snmp_warm_sign=0;
;;;896    if(TELECORE2017_KLIMAT_WARM_SIGNAL==0) snmp_warm_sign=2;
;;;897    else if(TELECORE2017_KLIMAT_WARM_SIGNAL==1) snmp_warm_sign=1;
;;;898    snmp_cool_sign=0;
;;;899    if(TELECORE2017_KLIMAT_VENT_SIGNAL==0) snmp_cool_sign=2;
;;;900    else if(TELECORE2017_KLIMAT_VENT_SIGNAL==1) snmp_cool_sign=1;
;;;901    snmp_warm_on_temper=(signed char)TELECORE2017_KLIMAT_WARM_ON; 
;;;902    snmp_warm_off_temper=(signed char)TELECORE2017_KLIMAT_WARM_OFF;
;;;903    snmp_warm_q=(signed char)TELECORE2017_KLIMAT_CAP;	
;;;904    snmp_cool_20_temper=(signed char)TELECORE2017_KLIMAT_VENT_ON20;
;;;905    snmp_cool_40_temper=(signed char)TELECORE2017_KLIMAT_VENT_ON40;
;;;906    snmp_cool_60_temper=(signed char)TELECORE2017_KLIMAT_VENT_ON60;
;;;907    snmp_cool_80_temper=(signed char)TELECORE2017_KLIMAT_VENT_ON80;
;;;908    snmp_cool_100_temper=(signed char)TELECORE2017_KLIMAT_VENT_ON100;
;;;909    snmp_cool_20_dtemper=(signed char)TELECORE2017_KLIMAT_DVENT_ON20;
;;;910    snmp_cool_40_dtemper=(signed char)TELECORE2017_KLIMAT_DVENT_ON40;
;;;911    snmp_cool_60_dtemper=(signed char)TELECORE2017_KLIMAT_DVENT_ON60;
;;;912    snmp_cool_80_dtemper=(signed char)TELECORE2017_KLIMAT_DVENT_ON80;
;;;913    snmp_cool_100_dtemper=(signed char)TELECORE2017_KLIMAT_DVENT_ON100;
;;;914    snmp_warm_stat=0;
;;;915    if(warm_stat_k==wsON) snmp_warm_stat=1;
;;;916    #endif
;;;917    }
;;;918    //-----------------------------------------------
                          ENDP

000012  0000              DCW      0x0000
                  |L16.20|
                          DCD      ||.data||

                          AREA ||area_number.17||, CODE, READONLY, ALIGN=2

                          EXPORTAS ||area_number.17||, ||.text||
                  snmp_klimat_settings_batt_off_write PROC
;;;259    //-----------------------------------------------
;;;260    void snmp_data (void) 
000000  2801              CMP      r0,#1
;;;261    {
000002  d105              BNE      |L17.16|
;;;262    char i;
;;;263    
;;;264    snmp_mains_power_voltage=net_U;
000004  4803              LDR      r0,|L17.20|
000006  f9b0107c          LDRSH    r1,[r0,#0x7c]  ; snmp_klimat_settings_batt_off
00000a  20da              MOVS     r0,#0xda
;;;265    #ifdef UKU_220_IPS_TERMOKOMPENSAT
;;;266    snmp_mains_power_frequency=net_F3;
00000c  f7ffbffe          B.W      lc640_write_int
                  |L17.16|
000010  4770              BX       lr
;;;267    #else
;;;268    snmp_mains_power_frequency=net_F;
;;;269    #endif
;;;270    snmp_mains_power_voltage_phaseA=net_Ua;
;;;271    snmp_mains_power_voltage_phaseB=net_Ub;
;;;272    snmp_mains_power_voltage_phaseC=net_Uc;
;;;273    
;;;274    /*
;;;275    snmp_mains_power_status=0; 
;;;276    #if(UKU_VERSION==900)
;;;277    snmp_mains_power_status=2;
;;;278    #endif
;;;279    if(St&0x01)snmp_mains_power_status|=0x01;
;;;280    if(St&0x01)snmp_mains_power_alarm=1;
;;;281    
;;;282    
;;;283    
;;;284    
;;;285    
;;;286    
;;;287    for(i=0;i<snmp_numofevents;i++)event2snmp(i);
;;;288    //snmp_bpsnumber[0]=1;
;;;289    //snmp_bpsnumber[1]=2;
;;;290    
;;;291    snmp_sernum=AUSW_MAIN_NUMBER;
;;;292    snmp_sernum_lsb=0x1122;
;;;293    snmp_sernum_msb=0x3344;
;;;294    snmp_device_code=AUSW_MAIN;
;;;295    
;;;296    //memcpy(snmp_location,"lkhg;la",);
;;;297    
;;;298    
;;;299    snmp_numofbat=1;
;;;300    
;;;301    */
;;;302    
;;;303    snmp_load_voltage=load_U;
;;;304    snmp_load_current=load_I;
;;;305    snmp_numofbat=NUMBAT;
;;;306    snmp_numofbps=NUMIST;
;;;307    snmp_numofinv=NUMINV;
;;;308    snmp_numofavt=NUMAVT;
;;;309    snmp_numofdt=NUMDT;
;;;310    snmp_numofsk=NUMSK;
;;;311    snmp_numofevents=lc640_read_int(CNT_EVENT_LOG);
;;;312    
;;;313    snmp_energy_vvod_phase_a=Uvv_eb2[0];
;;;314    snmp_energy_vvod_phase_b=Uvv_eb2[1];
;;;315    snmp_energy_vvod_phase_c=Uvv_eb2[2];
;;;316    snmp_energy_pes_phase_a=Upes_eb2[0];
;;;317    snmp_energy_pes_phase_b=Upes_eb2[1];
;;;318    snmp_energy_pes_phase_c=Upes_eb2[2];
;;;319    
;;;320    #ifdef UKU_KONTUR
;;;321    snmp_energy_vvod_phase_a=Uvv0;
;;;322    snmp_energy_pes_phase_a=Uvv[1];
;;;323    #endif
;;;324    
;;;325    snmp_energy_total_energy=power_summary;
;;;326    snmp_energy_current_energy=power_current;
;;;327    snmp_energy_input_voltage=net_U;
;;;328    
;;;329    snmp_bat_number[0]=1;
;;;330    snmp_bat_voltage[0]=bat[0]._Ub;
;;;331    snmp_bat_part_voltage[0]=bat[0]._Ubm;
;;;332    snmp_bat_current[0]=bat[0]._Ib;
;;;333    
;;;334    #ifdef UKU_220_IPS_TERMOKOMPENSAT
;;;335    if(((AUSW_MAIN==22063)||(AUSW_MAIN==22023))&&(bps[8]._device==dIBAT_METR))
;;;336    	{
;;;337    	snmp_bat_current[0]=Ib_ips_termokompensat;
;;;338    	}
;;;339    #endif
;;;340    
;;;341    snmp_bat_temperature[0]=bat[0]._Tb;
;;;342    if(BAT_C_REAL[0]==0x5555)snmp_bat_capacity[0]=BAT_C_NOM[0];
;;;343    else snmp_bat_capacity[0]=BAT_C_REAL[0];
;;;344    snmp_bat_charge[0]=bat[0]._zar;
;;;345    snmp_bat_status[0]=bat[0]._av;
;;;346    if(BAT_IS_ON[0]!=bisON)snmp_bat_status[0]=0xff;
;;;347    
;;;348    snmp_bat_number[1]=2;
;;;349    snmp_bat_voltage[1]=bat[1]._Ub;
;;;350    snmp_bat_part_voltage[1]=bat[1]._Ubm;
;;;351    snmp_bat_current[1]=bat[1]._Ib;
;;;352    snmp_bat_temperature[1]=bat[1]._Tb;
;;;353    if(BAT_C_REAL[1]==0x5555)snmp_bat_capacity[1]=BAT_C_NOM[1];
;;;354    else snmp_bat_capacity[1]=BAT_C_REAL[1];
;;;355    snmp_bat_charge[1]=bat[1]._zar;
;;;356    snmp_bat_status[1]=bat[1]._av;
;;;357    if(BAT_IS_ON[1]!=bisON)snmp_bat_status[1]=0xff;
;;;358    
;;;359    
;;;360    
;;;361    snmp_bps_number[0]=1;
;;;362    snmp_bps_voltage[0]=bps[0]._Uii;
;;;363    snmp_bps_current[0]=bps[0]._Ii;
;;;364    snmp_bps_temperature[0]=bps[0]._Ti;
;;;365    snmp_bps_stat[0]=bps[0]._av;
;;;366    if(!(NUMIST>0))snmp_bps_stat[0]=0xff;												//Байт состояния БПСа.
;;;367    
;;;368    /*if(St_[0]&(1<<2))snmp_bps_stat[0]=(1<<3); 							//авария по Umin
;;;369    else if(St_[0]&(1<<3))snmp_bps_stat[0]=(1<<2); 						//авария по Umax
;;;370    else if(bps[0]._av&(1<<0))snmp_bps_stat[0]=(1<<1); 						//авария по Tmax
;;;371    else if(St_[0]&(1<<5))snmp_bps_stat[0]=(1<<5); 						//заблокирован
;;;372    else if((!(St_[0]&0x3c))&&(!St&0x01)&&(!OFFBP1))snmp_bps_stat[0]=1; 		//Работает
;;;373    */
;;;374    
;;;375    snmp_bps_number[1]=2;
;;;376    snmp_bps_voltage[1]=bps[1]._Uii;
;;;377    snmp_bps_current[1]=bps[1]._Ii;
;;;378    snmp_bps_temperature[1]=bps[1]._Ti;
;;;379    snmp_bps_stat[1]=bps[1]._av;
;;;380    if(!(NUMIST>1))snmp_bps_stat[1]=0xff;												//Байт состояния БПСа.
;;;381    /*if(St_[1]&(1<<2))snmp_bps_stat[1]=(1<<3); 							//авария по Umin
;;;382    else if(St_[1]&(1<<3))snmp_bps_stat[1]=(1<<2); 						//авария по Umax
;;;383    else if(St_[1]&(1<<4))snmp_bps_stat[1]=(1<<1); 						//авария по Tmax
;;;384    else if(St_[1]&(1<<5))snmp_bps_stat[1]=(1<<5); 						//заблокирован
;;;385    else if((!(St_[1]&0x3c))&&(!St&0x01)&&(!OFFBP2))snmp_bps_stat[1]=1; 		//Работает
;;;386    */
;;;387    
;;;388    snmp_bps_number[2]=3;
;;;389    snmp_bps_voltage[2]=bps[2]._Uii;
;;;390    snmp_bps_current[2]=bps[2]._Ii;
;;;391    snmp_bps_temperature[2]=bps[2]._Ti;
;;;392    snmp_bps_stat[2]=bps[2]._av;
;;;393    if(!(NUMIST>2))snmp_bps_stat[2]=0xff;
;;;394    
;;;395    snmp_bps_number[3]=4;
;;;396    snmp_bps_voltage[3]=bps[3]._Uii;
;;;397    snmp_bps_current[3]=bps[3]._Ii;
;;;398    snmp_bps_temperature[3]=bps[3]._Ti;
;;;399    snmp_bps_stat[3]=bps[3]._av;
;;;400    if(!(NUMIST>3))snmp_bps_stat[3]=0xff;
;;;401    
;;;402    snmp_bps_number[4]=5;
;;;403    snmp_bps_voltage[4]=bps[4]._Uii;
;;;404    snmp_bps_current[4]=bps[4]._Ii;
;;;405    snmp_bps_temperature[4]=bps[4]._Ti;
;;;406    snmp_bps_stat[4]=bps[4]._av;
;;;407    if(!(NUMIST>4))snmp_bps_stat[4]=0xff;
;;;408    
;;;409    snmp_bps_number[5]=6;
;;;410    snmp_bps_voltage[5]=bps[5]._Uii;
;;;411    snmp_bps_current[5]=bps[5]._Ii;
;;;412    snmp_bps_temperature[5]=bps[5]._Ti;
;;;413    snmp_bps_stat[5]=bps[5]._av;
;;;414    if(!(NUMIST>5))snmp_bps_stat[5]=0xff;
;;;415    
;;;416    snmp_bps_number[6]=7;
;;;417    snmp_bps_voltage[6]=bps[6]._Uii;
;;;418    snmp_bps_current[6]=bps[6]._Ii;
;;;419    snmp_bps_temperature[6]=bps[6]._Ti;
;;;420    snmp_bps_stat[6]=bps[6]._av;
;;;421    if(!(NUMIST>6))snmp_bps_stat[6]=0xff;
;;;422    
;;;423    snmp_bps_number[7]=8;
;;;424    snmp_bps_voltage[7]=bps[7]._Uii;
;;;425    snmp_bps_current[7]=bps[7]._Ii;
;;;426    snmp_bps_temperature[7]=bps[7]._Ti;
;;;427    snmp_bps_stat[7]=bps[7]._av;
;;;428    if(!(NUMIST>7))snmp_bps_stat[7]=0xff;
;;;429    
;;;430    
;;;431    
;;;432    snmp_inv_number[0]=1;
;;;433    snmp_inv_voltage[0]=inv[0]._Uio;
;;;434    snmp_inv_current[0]=inv[0]._Ii;
;;;435    snmp_inv_temperature[0]=inv[0]._Ti;
;;;436    snmp_inv_stat[0]=inv[0]._flags_tm;
;;;437    
;;;438    snmp_inv_number[1]=2;
;;;439    snmp_inv_voltage[1]=inv[1]._Uio;
;;;440    snmp_inv_current[1]=inv[1]._Ii;
;;;441    snmp_inv_temperature[1]=inv[1]._Ti;
;;;442    snmp_inv_stat[1]=inv[1]._flags_tm;
;;;443    
;;;444    snmp_inv_number[2]=3;
;;;445    snmp_inv_voltage[2]=inv[2]._Uio;
;;;446    snmp_inv_current[2]=inv[2]._Ii;
;;;447    snmp_inv_temperature[2]=inv[2]._Ti;
;;;448    snmp_inv_stat[2]=inv[2]._flags_tm;
;;;449    
;;;450    
;;;451    
;;;452    
;;;453    					  
;;;454    snmp_sk_number[0]=1;
;;;455    memcpy(&snmp_sk_name[0][0],"Door",10);
;;;456    if(sk_stat[0]==ssON) snmp_sk_aktiv[0]=1;
;;;457    else snmp_sk_aktiv[0]=0;
;;;458    if(!SK_SIGN[0])snmp_sk_alarm_aktiv[0]=1;
;;;459    else snmp_sk_alarm_aktiv[0]=0;
;;;460    if(sk_av_stat[0]==sasON)	snmp_sk_alarm[0]=1;
;;;461    else                     snmp_sk_alarm[0]=0;
;;;462    
;;;463    
;;;464    snmp_sk_number[1]=2;
;;;465    memcpy(&snmp_sk_name[1][0],"Smoke",10);
;;;466    if(sk_stat[1]==ssON) snmp_sk_aktiv[1]=1;
;;;467    else snmp_sk_aktiv[1]=0;
;;;468    if(!SK_SIGN[1])snmp_sk_alarm_aktiv[1]=1;
;;;469    else snmp_sk_alarm_aktiv[1]=0;
;;;470    if(sk_av_stat[1]==sasON)	snmp_sk_alarm[1]=1;
;;;471    else                     snmp_sk_alarm[1]=0;
;;;472    
;;;473    snmp_sk_number[2]=3;
;;;474    memcpy(&snmp_sk_name[2][0],"Shock",10);
;;;475    if(sk_stat[2]==ssON) snmp_sk_aktiv[2]=1;
;;;476    else snmp_sk_aktiv[2]=0;
;;;477    if(!SK_SIGN[2])snmp_sk_alarm_aktiv[2]=1;
;;;478    else snmp_sk_alarm_aktiv[2]=0;
;;;479    if(sk_av_stat[2]==sasON)	snmp_sk_alarm[2]=1;
;;;480    else                     snmp_sk_alarm[2]=0;
;;;481    
;;;482    snmp_sk_number[3]=4;
;;;483    memcpy(&snmp_sk_name[3][0],"     ",10);
;;;484    if(sk_stat[3]==ssON) snmp_sk_aktiv[3]=1;
;;;485    else snmp_sk_aktiv[3]=0;
;;;486    if(!SK_SIGN[3])snmp_sk_alarm_aktiv[3]=1;
;;;487    else snmp_sk_alarm_aktiv[3]=0;
;;;488    if(sk_av_stat[3]==sasON)	snmp_sk_alarm[3]=1;
;;;489    else                     snmp_sk_alarm[3]=0;
;;;490    
;;;491    
;;;492    if(makb[0]._cnt>8) snmp_makb_connect_status[0]=1;
;;;493    else if(makb[0]._cnt<2) snmp_makb_connect_status[0]=0;
;;;494    if(makb[1]._cnt>8) snmp_makb_connect_status[1]=1;
;;;495    else if(makb[1]._cnt<2) snmp_makb_connect_status[1]=0;
;;;496    if(makb[2]._cnt>8) snmp_makb_connect_status[2]=1;
;;;497    else if(makb[2]._cnt<2) snmp_makb_connect_status[2]=0;
;;;498    if(makb[3]._cnt>8) snmp_makb_connect_status[3]=1;
;;;499    else if(makb[3]._cnt<2) snmp_makb_connect_status[3]=0;
;;;500    
;;;501    snmp_makb_voltage0[0]=makb[0]._Ub[0];
;;;502    snmp_makb_voltage1[0]=makb[0]._Ub[1];
;;;503    snmp_makb_voltage2[0]=makb[0]._Ub[2];
;;;504    snmp_makb_voltage3[0]=makb[0]._Ub[3];
;;;505    snmp_makb_voltage4[0]=makb[0]._Ub[4];
;;;506    snmp_makb_voltage0[1]=makb[1]._Ub[0];
;;;507    snmp_makb_voltage1[1]=makb[1]._Ub[1];
;;;508    snmp_makb_voltage2[1]=makb[1]._Ub[2];
;;;509    snmp_makb_voltage3[1]=makb[1]._Ub[3];
;;;510    snmp_makb_voltage4[1]=makb[1]._Ub[4];
;;;511    snmp_makb_voltage0[2]=makb[2]._Ub[0];
;;;512    snmp_makb_voltage1[2]=makb[2]._Ub[1];
;;;513    snmp_makb_voltage2[2]=makb[2]._Ub[2];
;;;514    snmp_makb_voltage3[2]=makb[2]._Ub[3];
;;;515    snmp_makb_voltage4[2]=makb[2]._Ub[4];
;;;516    snmp_makb_voltage0[3]=makb[3]._Ub[0];
;;;517    snmp_makb_voltage1[3]=makb[3]._Ub[1];
;;;518    snmp_makb_voltage2[3]=makb[3]._Ub[2];
;;;519    snmp_makb_voltage3[3]=makb[3]._Ub[3];
;;;520    snmp_makb_voltage4[3]=makb[3]._Ub[4];
;;;521    
;;;522    snmp_makb_temper0[0]=makb[0]._T[0];
;;;523    snmp_makb_temper1[0]=makb[0]._T[1];
;;;524    snmp_makb_temper2[0]=makb[0]._T[2];
;;;525    snmp_makb_temper3[0]=makb[0]._T[3];
;;;526    snmp_makb_temper4[0]=makb[0]._T[4];
;;;527    snmp_makb_temper0[1]=makb[1]._T[0];
;;;528    snmp_makb_temper1[1]=makb[1]._T[1];
;;;529    snmp_makb_temper2[1]=makb[1]._T[2];
;;;530    snmp_makb_temper3[1]=makb[1]._T[3];
;;;531    snmp_makb_temper4[1]=makb[1]._T[4];
;;;532    snmp_makb_temper0[2]=makb[2]._T[0];
;;;533    snmp_makb_temper1[2]=makb[2]._T[1];
;;;534    snmp_makb_temper2[2]=makb[2]._T[2];
;;;535    snmp_makb_temper3[2]=makb[2]._T[3];
;;;536    snmp_makb_temper4[2]=makb[2]._T[4];
;;;537    snmp_makb_temper0[3]=makb[3]._T[0];
;;;538    snmp_makb_temper1[3]=makb[3]._T[1];
;;;539    snmp_makb_temper2[3]=makb[3]._T[2];
;;;540    snmp_makb_temper3[3]=makb[3]._T[3];
;;;541    snmp_makb_temper4[3]=makb[3]._T[4];
;;;542    
;;;543    snmp_makb_temper0_stat[0]=makb[0]._T_nd[0];
;;;544    snmp_makb_temper1_stat[0]=makb[0]._T_nd[1];
;;;545    snmp_makb_temper2_stat[0]=makb[0]._T_nd[2];
;;;546    snmp_makb_temper3_stat[0]=makb[0]._T_nd[3];
;;;547    snmp_makb_temper4_stat[0]=makb[0]._T_nd[4];
;;;548    snmp_makb_temper0_stat[1]=makb[1]._T_nd[0];
;;;549    snmp_makb_temper1_stat[1]=makb[1]._T_nd[1];
;;;550    snmp_makb_temper2_stat[1]=makb[1]._T_nd[2];
;;;551    snmp_makb_temper3_stat[1]=makb[1]._T_nd[3];
;;;552    snmp_makb_temper4_stat[1]=makb[1]._T_nd[4];
;;;553    snmp_makb_temper0_stat[2]=makb[2]._T_nd[0];
;;;554    snmp_makb_temper1_stat[2]=makb[2]._T_nd[1];
;;;555    snmp_makb_temper2_stat[2]=makb[2]._T_nd[2];
;;;556    snmp_makb_temper3_stat[2]=makb[2]._T_nd[3];
;;;557    snmp_makb_temper4_stat[2]=makb[2]._T_nd[4];
;;;558    snmp_makb_temper0_stat[3]=makb[3]._T_nd[0];
;;;559    snmp_makb_temper1_stat[3]=makb[3]._T_nd[1];
;;;560    snmp_makb_temper2_stat[3]=makb[3]._T_nd[2];
;;;561    snmp_makb_temper3_stat[3]=makb[3]._T_nd[3];
;;;562    snmp_makb_temper4_stat[3]=makb[3]._T_nd[4];
;;;563    
;;;564    
;;;565    snmp_klimat_box_temper=t_box;
;;;566    snmp_klimat_settings_box_alarm=TBOXMAX;
;;;567    snmp_klimat_settings_vent_on=TBOXVENTON;
;;;568    snmp_klimat_settings_vent_off=TBOXVENTOFF;
;;;569    snmp_klimat_settings_warm_on=TBOXWARMON;
;;;570    snmp_klimat_settings_warm_off=TBOXWARMOFF;
;;;571    snmp_klimat_settings_load_on=TLOADENABLE;
;;;572    snmp_klimat_settings_load_off=TLOADDISABLE;
;;;573    snmp_klimat_settings_batt_on=TBATENABLE;
;;;574    snmp_klimat_settings_batt_off=TBATDISABLE;
;;;575    
;;;576    snmp_dt_ext=t_ext[0];
;;;577    snmp_dt_msan=t_ext[1];
;;;578    snmp_dt_epu=t_ext[2];
;;;579    
;;;580    /*
;;;581    snmp_bat_voltage=Ubat;
;;;582    snmp_bat_current=Ibat;
;;;583    snmp_bat_temperature=t_b;
;;;584    if(BAT_C_REAL==0x5555)
;;;585    	{
;;;586    	snmp_bat_capacity=BAT_C_NOM*10;												    11
;;;587    	}
;;;588    else
;;;589    	{
;;;590    	snmp_bat_capacity=BAT_C_REAL;
;;;591    	}
;;;592    snmp_bat_charge=zar_percent;
;;;593    snmp_bat_status=0;
;;;594    if(St&0x02)snmp_bat_status|=0x01;
;;;595    if(Ibat>0)snmp_bat_status|=0x02;
;;;596    
;;;597    
;;;598    if(spc_stat==spc_OFF) snmp_spc_stat=0;
;;;599    else if(spc_stat==spc_KE) snmp_spc_stat=1;
;;;600    else if(spc_stat==spc_VZ) snmp_spc_stat=10;
;;;601    
;;;602    
;;;603    snmp_main_bps=MAIN_IST+1;
;;;604    */
;;;605    snmp_zv_en=ZV_ON;
;;;606    snmp_alarm_auto_disable=AV_OFF_AVT;
;;;607    snmp_bat_test_time=TBAT;
;;;608    snmp_u_max=UMAX;
;;;609    //snmp_u_min=UB20-DU;
;;;610    //snmp_u_0_grad=UB0;
;;;611    //snmp_u_20_grad=UB20;
;;;612    snmp_u_sign=USIGN;
;;;613    snmp_u_min_power=UMN;
;;;614    snmp_u_withouth_bat=U0B;
;;;615    snmp_control_current=IKB;
;;;616    snmp_max_charge_current=IZMAX;
;;;617    snmp_max_current=IMAX;
;;;618    snmp_min_current=IMIN;
;;;619    //snmp_max_current_koef=KIMAX;
;;;620    //snmp_uvz=UVZ;
;;;621    snmp_powerup_psu_timeout=TZAS;
;;;622    snmp_max_temperature=TMAX;
;;;623    snmp_tsign_bat=TBATSIGN; 
;;;624    snmp_tmax_bat=TBATMAX;
;;;625    snmp_tsign_bps=TSIGN;
;;;626    snmp_tmax_bps=TMAX;
;;;627    snmp_bat_part_alarm=UBM_AV; 
;;;628    snmp_power_cnt_adress=POWER_CNT_ADRESS;
;;;629    
;;;630    for(i=0;i<12;i++)
;;;631    	{
;;;632    	snmp_avt_number[i]=i+1;
;;;633    	if(avt_stat[i]==avtOFF)snmp_avt_stat[i]=0;
;;;634    	else snmp_avt_stat[i]=1;
;;;635    	}
;;;636    
;;;637    snmp_dt_number[0]=1;
;;;638    snmp_dt_number[1]=2;
;;;639    snmp_dt_number[2]=3;
;;;640    //snmp_dt_number[3]=4;
;;;641    snmp_dt_temper[0]=t_ext[0];
;;;642    snmp_dt_temper[1]=t_ext[1];
;;;643    snmp_dt_temper[2]=t_ext[2];
;;;644    //snmp_dt_temper[3]=t_ext[3];
;;;645    snmp_dt_error[0]=ND_EXT[0];
;;;646    if(NUMDT<1)snmp_dt_error[0]=0xff;
;;;647    snmp_dt_error[1]=ND_EXT[1];
;;;648    if(NUMDT<2)snmp_dt_error[0]=0xff;
;;;649    snmp_dt_error[2]=ND_EXT[2];
;;;650    if(NUMDT<3)snmp_dt_error[0]=0xff;
;;;651    //snmp_dt_error[3]=ND_EXT[3];
;;;652    if(NUMDT<4)snmp_dt_error[0]=0xff;
;;;653    
;;;654    /*
;;;655    //Литиевые батареи
;;;656    snmp_lakb_number[0]=1;								//Номер ЛАКБ
;;;657    snmp_lakb_number[1]=2;								//Номер ЛАКБ
;;;658    snmp_lakb_voltage[0]=lakb[0]._tot_bat_volt;				//Напряжение ЛАКБ
;;;659    snmp_lakb_voltage[1]=lakb[1]._tot_bat_volt;				//Напряжение ЛАКБ
;;;660    snmp_lakb_max_cell_voltage[0]=lakb[0]._max_cell_volt;		//Максимальное напряжение ячейки ЛАКБ
;;;661    snmp_lakb_max_cell_voltage[1]=lakb[1]._max_cell_volt;		//Максимальное напряжение ячейки ЛАКБ
;;;662    snmp_lakb_min_cell_voltage[0]=lakb[0]._min_cell_volt;		//Минимальное напряжение ячейки ЛАКБ
;;;663    snmp_lakb_min_cell_voltage[1]=lakb[1]._min_cell_volt;		//Минимальное напряжение ячейки ЛАКБ
;;;664    snmp_lakb_max_cell_temperature[0]=lakb[0]._max_cell_temp;	//Максимальная температура ячейки ЛАКБ
;;;665    snmp_lakb_max_cell_temperature[1]=lakb[1]._max_cell_temp;	//Максимальная температура ячейки ЛАКБ
;;;666    snmp_lakb_min_cell_temperature[0]=lakb[0]._min_cell_temp;	//Минимальная температура ячейки ЛАКБ
;;;667    snmp_lakb_min_cell_temperature[1]=lakb[1]._min_cell_temp;	//Минимальная температура ячейки ЛАКБ
;;;668    snmp_lakb_ch_curr[0]=lakb[0]._ch_curr;					//Ток заряда ЛАКБ
;;;669    snmp_lakb_ch_curr[1]=lakb[1]._ch_curr;					//Ток заряда ЛАКБ
;;;670    snmp_lakb_dsch_curr[0]=lakb[0]._dsch_curr;				//Ток разряда ЛАКБ
;;;671    snmp_lakb_dsch_curr[1]=lakb[1]._dsch_curr;				//Ток разряда ЛАКБ
;;;672    snmp_lakb_rat_cap[0]=lakb[0]._rat_cap;					//Номинальная емкость ЛАКБ
;;;673    snmp_lakb_rat_cap[1]=lakb[1]._rat_cap;					//Номинальная емкость ЛАКБ
;;;674    snmp_lakb_soh[0]=lakb[0]._s_o_h;						//Остаточная емкость ЛАКБ
;;;675    snmp_lakb_soh[1]=lakb[1]._s_o_h;						//Остаточная емкость ЛАКБ
;;;676    snmp_lakb_soc[0]=lakb[0]._s_o_c;						//Заряд ЛАКБ
;;;677    snmp_lakb_soc[1]=lakb[1]._s_o_c;						//Заряд ЛАКБ
;;;678    snmp_lakb_cclv[0]=lakb[0]._c_c_l_v;  					//Максимальный ток заряда ЛАКБ
;;;679    snmp_lakb_cclv[1]=lakb[1]._c_c_l_v;  					//Максимальный ток заряда ЛАКБ
;;;680    snmp_lakb_rbt[0]=lakb[0]._r_b_t;						//Оцениваемое время работы ЛАКБ
;;;681    snmp_lakb_rbt[1]=lakb[1]._r_b_t;						//Оцениваемое время работы ЛАКБ
;;;682    snmp_lakb_flags1[0]=lakb[0]._flags1;					//Первый флаг состояния ЛАКБ
;;;683    snmp_lakb_flags1[1]=lakb[1]._flags1;					//Первый флаг состояния ЛАКБ
;;;684    snmp_lakb_flags2[0]=lakb[0]._flags2;					//Второй флаг состояния ЛАКБ
;;;685    snmp_lakb_flags2[1]=lakb[1]._flags2;					//Второй флаг состояния ЛАКБ */
;;;686    
;;;687    //Литиевые батареи
;;;688    snmp_lakb_number[0]=1;								//Номер ЛАКБ
;;;689    snmp_lakb_number[1]=2;								//Номер ЛАКБ
;;;690    snmp_lakb_number[2]=3;								//Номер ЛАКБ
;;;691    snmp_lakb_number[3]=4;								//Номер ЛАКБ
;;;692    snmp_lakb_number[4]=5;								//Номер ЛАКБ
;;;693    snmp_lakb_number[5]=6;								//Номер ЛАКБ
;;;694    snmp_lakb_number[6]=7;								//Номер ЛАКБ
;;;695    
;;;696    for (i=0;i<3;i++)
;;;697    	{
;;;698    	snmp_lakb_voltage[i]=lakb[i]._tot_bat_volt;				//Напряжение ЛАКБ
;;;699    	snmp_lakb_max_cell_voltage[i]=lakb[i]._max_cell_volt;		//Максимальное напряжение ячейки ЛАКБ
;;;700    	snmp_lakb_min_cell_voltage[i]=lakb[i]._min_cell_volt;		//Минимальное напряжение ячейки ЛАКБ
;;;701    	snmp_lakb_max_cell_temperature[i]=lakb[i]._max_cell_temp;	//Максимальная температура ячейки ЛАКБ
;;;702    	//snmp_lakb_max_cell_temperature[1]=lakb[1]._max_cell_temp;	//Максимальная температура ячейки ЛАКБ
;;;703    	snmp_lakb_min_cell_temperature[i]=lakb[i]._min_cell_temp;	//Минимальная температура ячейки ЛАКБ
;;;704    	//snmp_lakb_min_cell_temperature[1]=lakb[1]._min_cell_temp;	//Минимальная температура ячейки ЛАКБ
;;;705    	snmp_lakb_ch_curr[i]=lakb[i]._ch_curr;					//Ток заряда ЛАКБ
;;;706    	//snmp_lakb_ch_curr[1]=lakb[1]._ch_curr;					//Ток заряда ЛАКБ
;;;707    	snmp_lakb_dsch_curr[i]=lakb[i]._dsch_curr;				//Ток разряда ЛАКБ
;;;708    	//snmp_lakb_dsch_curr[1]=lakb[1]._dsch_curr;				//Ток разряда ЛАКБ
;;;709    	snmp_lakb_rat_cap[i]=lakb[i]._rat_cap;					//Номинальная емкость ЛАКБ
;;;710    	//snmp_lakb_rat_cap[1]=lakb[1]._rat_cap;					//Номинальная емкость ЛАКБ
;;;711    	snmp_lakb_soh[i]=lakb[i]._s_o_h;						//Остаточная емкость ЛАКБ
;;;712    	//snmp_lakb_soh[1]=lakb[1]._s_o_h;						//Остаточная емкость ЛАКБ
;;;713    	snmp_lakb_soc[i]=lakb[i]._s_o_c;						//Заряд ЛАКБ
;;;714    	//snmp_lakb_soc[1]=lakb[1]._s_o_c;						//Заряд ЛАКБ
;;;715    	snmp_lakb_cclv[i]=lakb[i]._c_c_l_v;  					//Максимальный ток заряда ЛАКБ
;;;716    	//snmp_lakb_cclv[1]=lakb[1]._c_c_l_v;  					//Максимальный ток заряда ЛАКБ
;;;717    	snmp_lakb_rbt[i]=lakb[i]._r_b_t;						//Оцениваемое время работы ЛАКБ
;;;718    	//snmp_lakb_rbt[1]=lakb[1]._r_b_t;						//Оцениваемое время работы ЛАКБ
;;;719    	snmp_lakb_flags1[i]=lakb[i]._flags1;					//Первый флаг состояния ЛАКБ
;;;720    	//snmp_lakb_flags1[1]=lakb[1]._flags1;					//Первый флаг состояния ЛАКБ
;;;721    	snmp_lakb_flags2[i]=lakb[i]._flags2;					//Второй флаг состояния ЛАКБ
;;;722    	//snmp_lakb_flags2[1]=lakb[1]._flags2;					//Второй флаг состояния ЛАКБ
;;;723    
;;;724    	snmp_lakb_cell_temperature_1[i]= lakb[i]._cell_temp_1;
;;;725    	snmp_lakb_cell_temperature_2[i]= lakb[i]._cell_temp_2;
;;;726    	snmp_lakb_cell_temperature_3[i]= lakb[i]._cell_temp_3;
;;;727    	snmp_lakb_cell_temperature_4[i]= lakb[i]._cell_temp_4;
;;;728    	snmp_lakb_cell_temperature_ambient[i]=lakb[i]._cell_temp_ambient;
;;;729    	snmp_lakb_cell_temperature_power[i]=lakb[i]._cell_temp_power;
;;;730    	}
;;;731    
;;;732    for (i=0;i<7;i++)
;;;733    {
;;;734    /*
;;;735    snmp_lakb_damp1[i][0]=ABCDEF[(lakb_damp[i][0])>>4];			//Дамп
;;;736    snmp_lakb_damp1[i][1]=ABCDEF[(lakb_damp[i][0])&0x0f];			//Дамп
;;;737    snmp_lakb_damp1[i][2]=' ';
;;;738    snmp_lakb_damp1[i][3]=ABCDEF[(lakb_damp[i][1])>>4];			//Дамп
;;;739    snmp_lakb_damp1[i][4]=ABCDEF[(lakb_damp[i][1])&0x0f];			//Дамп
;;;740    snmp_lakb_damp1[i][5]=' ';
;;;741    snmp_lakb_damp1[i][6]=ABCDEF[(lakb_damp[i][2])>>4];			//Дамп
;;;742    snmp_lakb_damp1[i][7]=ABCDEF[(lakb_damp[i][2])&0x0f];			//Дамп
;;;743    snmp_lakb_damp1[i][8]=' ';
;;;744    snmp_lakb_damp1[i][9]=ABCDEF[(lakb_damp[i][3])>>4];			//Дамп
;;;745    snmp_lakb_damp1[i][10]=ABCDEF[(lakb_damp[i][3])&0x0f];			//Дамп
;;;746    snmp_lakb_damp1[i][11]=' ';
;;;747    snmp_lakb_damp1[i][12]=ABCDEF[(lakb_damp[i][4])>>4];			//Дамп
;;;748    snmp_lakb_damp1[i][13]=ABCDEF[(lakb_damp[i][4])&0x0f];			//Дамп
;;;749    snmp_lakb_damp1[i][14]=' '; 
;;;750    snmp_lakb_damp1[i][15]=ABCDEF[(lakb_damp[i][5])>>4];			//Дамп
;;;751    snmp_lakb_damp1[i][16]=ABCDEF[(lakb_damp[i][5])&0x0f];			//Дамп
;;;752    snmp_lakb_damp1[i][17]=' ';
;;;753    snmp_lakb_damp1[i][18]=ABCDEF[(lakb_damp[i][6])>>4];			//Дамп
;;;754    snmp_lakb_damp1[i][19]=ABCDEF[(lakb_damp[i][6])&0x0f];			//Дамп
;;;755    snmp_lakb_damp1[i][20]=' ';
;;;756    snmp_lakb_damp1[i][21]=ABCDEF[(lakb_damp[i][7])>>4];			//Дамп
;;;757    snmp_lakb_damp1[i][22]=ABCDEF[(lakb_damp[i][7])&0x0f];			//Дамп
;;;758    snmp_lakb_damp1[i][23]=' ';
;;;759    snmp_lakb_damp1[i][24]=ABCDEF[(lakb_damp[i][8])>>4];			//Дамп
;;;760    snmp_lakb_damp1[i][25]=ABCDEF[(lakb_damp[i][8])&0x0f];			//Дамп
;;;761    snmp_lakb_damp1[i][26]=' ';
;;;762    snmp_lakb_damp1[i][27]=ABCDEF[(lakb_damp[i][9])>>4];			//Дамп
;;;763    snmp_lakb_damp1[i][28]=ABCDEF[(lakb_damp[i][9])&0x0f];			//Дамп
;;;764    snmp_lakb_damp1[i][29]=0; 
;;;765    
;;;766    snmp_lakb_damp1[i][30]=ABCDEF[(lakb_damp[i][10])>>4];			//Дамп
;;;767    snmp_lakb_damp1[i][31]=ABCDEF[(lakb_damp[i][10])&0x0f];			//Дамп
;;;768    snmp_lakb_damp1[i][32]=' ';
;;;769    snmp_lakb_damp1[i][33]=ABCDEF[(lakb_damp[i][11])>>4];			//Дамп
;;;770    snmp_lakb_damp1[i][34]=ABCDEF[(lakb_damp[i][11])&0x0f];			//Дамп
;;;771    snmp_lakb_damp1[i][35]=' ';
;;;772    snmp_lakb_damp1[i][36]=ABCDEF[(lakb_damp[i][12])>>4];			//Дамп
;;;773    snmp_lakb_damp1[i][37]=ABCDEF[(lakb_damp[i][12])&0x0f];			//Дамп
;;;774    snmp_lakb_damp1[i][38]=' ';
;;;775    snmp_lakb_damp1[i][39]=ABCDEF[(lakb_damp[i][13])>>4];			//Дамп
;;;776    snmp_lakb_damp1[i][40]=ABCDEF[(lakb_damp[i][13])&0x0f];			//Дамп
;;;777    snmp_lakb_damp1[i][41]=' ';
;;;778    snmp_lakb_damp1[i][42]=ABCDEF[(lakb_damp[i][14])>>4];			//Дамп
;;;779    snmp_lakb_damp1[i][43]=ABCDEF[(lakb_damp[i][14])&0x0f];			//Дамп
;;;780    snmp_lakb_damp1[i][44]=' '; 
;;;781    snmp_lakb_damp1[i][45]=ABCDEF[(lakb_damp[i][15])>>4];			//Дамп
;;;782    snmp_lakb_damp1[i][46]=ABCDEF[(lakb_damp[i][15])&0x0f];			//Дамп
;;;783    snmp_lakb_damp1[i][47]=' ';
;;;784    snmp_lakb_damp1[i][48]=ABCDEF[(lakb_damp[i][16])>>4];			//Дамп
;;;785    snmp_lakb_damp1[i][49]=ABCDEF[(lakb_damp[i][16])&0x0f];			//Дамп
;;;786    snmp_lakb_damp1[i][50]=' ';
;;;787    snmp_lakb_damp1[i][51]=ABCDEF[(lakb_damp[i][17])>>4];			//Дамп
;;;788    snmp_lakb_damp1[i][52]=ABCDEF[(lakb_damp[i][17])&0x0f];			//Дамп
;;;789    snmp_lakb_damp1[i][53]=' ';
;;;790    snmp_lakb_damp1[i][54]=ABCDEF[(lakb_damp[i][18])>>4];			//Дамп
;;;791    snmp_lakb_damp1[i][55]=ABCDEF[(lakb_damp[i][18])&0x0f];			//Дамп
;;;792    snmp_lakb_damp1[i][56]=' ';
;;;793    snmp_lakb_damp1[i][57]=ABCDEF[(lakb_damp[i][19])>>4];			//Дамп
;;;794    snmp_lakb_damp1[i][58]=ABCDEF[(lakb_damp[i][19])&0x0f];			//Дамп
;;;795    snmp_lakb_damp1[i][59]=0; 
;;;796    
;;;797    
;;;798    snmp_lakb_damp1[i][60]=ABCDEF[(lakb_damp[i][20])>>4];			//Дамп
;;;799    snmp_lakb_damp1[i][61]=ABCDEF[(lakb_damp[i][20])&0x0f];			//Дамп
;;;800    snmp_lakb_damp1[i][62]=' ';
;;;801    snmp_lakb_damp1[i][63]=ABCDEF[(lakb_damp[i][21])>>4];			//Дамп
;;;802    snmp_lakb_damp1[i][64]=ABCDEF[(lakb_damp[i][21])&0x0f];			//Дамп
;;;803    snmp_lakb_damp1[i][65]=' ';
;;;804    snmp_lakb_damp1[i][66]=ABCDEF[(lakb_damp[i][22])>>4];			//Дамп
;;;805    snmp_lakb_damp1[i][67]=ABCDEF[(lakb_damp[i][22])&0x0f];			//Дамп
;;;806    snmp_lakb_damp1[i][68]=' ';
;;;807    snmp_lakb_damp1[i][69]=ABCDEF[(lakb_damp[i][23])>>4];			//Дамп
;;;808    snmp_lakb_damp1[i][70]=ABCDEF[(lakb_damp[i][23])&0x0f];			//Дамп
;;;809    snmp_lakb_damp1[i][71]=' ';
;;;810    snmp_lakb_damp1[i][72]=ABCDEF[(lakb_damp[i][24])>>4];			//Дамп
;;;811    snmp_lakb_damp1[i][73]=ABCDEF[(lakb_damp[i][24])&0x0f];			//Дамп
;;;812    snmp_lakb_damp1[i][74]=' '; 
;;;813    snmp_lakb_damp1[i][75]=ABCDEF[(lakb_damp[i][25])>>4];			//Дамп
;;;814    snmp_lakb_damp1[i][76]=ABCDEF[(lakb_damp[i][25])&0x0f];			//Дамп
;;;815    snmp_lakb_damp1[i][77]=' ';
;;;816    snmp_lakb_damp1[i][78]=ABCDEF[(lakb_damp[i][26])>>4];			//Дамп
;;;817    snmp_lakb_damp1[i][79]=ABCDEF[(lakb_damp[i][26])&0x0f];			//Дамп
;;;818    snmp_lakb_damp1[i][80]=' ';
;;;819    snmp_lakb_damp1[i][81]=ABCDEF[(lakb_damp[i][27])>>4];			//Дамп
;;;820    snmp_lakb_damp1[i][82]=ABCDEF[(lakb_damp[i][27])&0x0f];			//Дамп
;;;821    snmp_lakb_damp1[i][83]=' ';
;;;822    snmp_lakb_damp1[i][84]=ABCDEF[(lakb_damp[i][28])>>4];			//Дамп
;;;823    snmp_lakb_damp1[i][85]=ABCDEF[(lakb_damp[i][28])&0x0f];			//Дамп
;;;824    snmp_lakb_damp1[i][86]=' ';
;;;825    snmp_lakb_damp1[i][87]=ABCDEF[(lakb_damp[i][29])>>4];			//Дамп
;;;826    snmp_lakb_damp1[i][88]=ABCDEF[(lakb_damp[i][29])&0x0f];			//Дамп
;;;827    snmp_lakb_damp1[i][89]=0;
;;;828    
;;;829    
;;;830    snmp_lakb_damp1[i][90]=ABCDEF[(lakb_damp[i][30])>>4];			//Дамп
;;;831    snmp_lakb_damp1[i][91]=ABCDEF[(lakb_damp[i][30])&0x0f];			//Дамп
;;;832    snmp_lakb_damp1[i][92]=' ';
;;;833    snmp_lakb_damp1[i][93]=ABCDEF[(lakb_damp[i][31])>>4];			//Дамп
;;;834    snmp_lakb_damp1[i][94]=ABCDEF[(lakb_damp[i][31])&0x0f];			//Дамп
;;;835    snmp_lakb_damp1[i][95]=' ';
;;;836    snmp_lakb_damp1[i][96]=ABCDEF[(lakb_damp[i][32])>>4];			//Дамп
;;;837    snmp_lakb_damp1[i][97]=ABCDEF[(lakb_damp[i][32])&0x0f];			//Дамп
;;;838    snmp_lakb_damp1[i][98]=' ';
;;;839    snmp_lakb_damp1[i][99]=ABCDEF[(lakb_damp[i][33])>>4];			//Дамп
;;;840    snmp_lakb_damp1[i][100]=ABCDEF[(lakb_damp[i][33])&0x0f];			//Дамп
;;;841    snmp_lakb_damp1[i][101]=' ';
;;;842    snmp_lakb_damp1[i][102]=ABCDEF[(lakb_damp[i][34])>>4];			//Дамп
;;;843    snmp_lakb_damp1[i][103]=ABCDEF[(lakb_damp[i][34])&0x0f];			//Дамп
;;;844    snmp_lakb_damp1[i][104]=' '; 
;;;845    snmp_lakb_damp1[i][105]=ABCDEF[(lakb_damp[i][35])>>4];			//Дамп
;;;846    snmp_lakb_damp1[i][106]=ABCDEF[(lakb_damp[i][35])&0x0f];			//Дамп
;;;847    snmp_lakb_damp1[i][107]=' ';
;;;848    snmp_lakb_damp1[i][108]=ABCDEF[(lakb_damp[i][36])>>4];			//Дамп
;;;849    snmp_lakb_damp1[i][109]=ABCDEF[(lakb_damp[i][36])&0x0f];			//Дамп
;;;850    snmp_lakb_damp1[i][110]=' ';
;;;851    snmp_lakb_damp1[i][111]=ABCDEF[(lakb_damp[i][37])>>4];			//Дамп
;;;852    snmp_lakb_damp1[i][112]=ABCDEF[(lakb_damp[i][37])&0x0f];			//Дамп
;;;853    snmp_lakb_damp1[i][113]=' ';
;;;854    snmp_lakb_damp1[i][114]=ABCDEF[(lakb_damp[i][38])>>4];			//Дамп
;;;855    snmp_lakb_damp1[i][115]=ABCDEF[(lakb_damp[i][38])&0x0f];			//Дамп
;;;856    snmp_lakb_damp1[i][116]=' ';
;;;857    snmp_lakb_damp1[i][117]=ABCDEF[(lakb_damp[i][39])>>4];			//Дамп
;;;858    snmp_lakb_damp1[i][118]=ABCDEF[(lakb_damp[i][39])&0x0f];			//Дамп
;;;859    snmp_lakb_damp1[i][119]=0; 
;;;860     
;;;861    
;;;862    snmp_lakb_damp1[i][120]=ABCDEF[(lakb_damp[i][40])>>4];			//Дамп
;;;863    snmp_lakb_damp1[i][121]=ABCDEF[(lakb_damp[i][40])&0x0f];			//Дамп
;;;864    snmp_lakb_damp1[i][122]=' ';
;;;865    snmp_lakb_damp1[i][123]=ABCDEF[(lakb_damp[i][41])>>4];			//Дамп
;;;866    snmp_lakb_damp1[i][124]=ABCDEF[(lakb_damp[i][41])&0x0f];			//Дамп
;;;867    snmp_lakb_damp1[i][125]=' ';
;;;868    snmp_lakb_damp1[i][126]=ABCDEF[(lakb_damp[i][42])>>4];			//Дамп
;;;869    snmp_lakb_damp1[i][127]=ABCDEF[(lakb_damp[i][42])&0x0f];			//Дамп
;;;870    snmp_lakb_damp1[i][128]=' ';
;;;871    snmp_lakb_damp1[i][129]=ABCDEF[(lakb_damp[i][43])>>4];			//Дамп
;;;872    snmp_lakb_damp1[i][130]=ABCDEF[(lakb_damp[i][43])&0x0f];			//Дамп
;;;873    snmp_lakb_damp1[i][131]=' ';
;;;874    snmp_lakb_damp1[i][132]=ABCDEF[(lakb_damp[i][44])>>4];			//Дамп
;;;875    snmp_lakb_damp1[i][133]=ABCDEF[(lakb_damp[i][44])&0x0f];			//Дамп
;;;876    snmp_lakb_damp1[i][134]=' '; 
;;;877    snmp_lakb_damp1[i][135]=ABCDEF[(lakb_damp[i][45])>>4];			//Дамп
;;;878    snmp_lakb_damp1[i][136]=ABCDEF[(lakb_damp[i][45])&0x0f];			//Дамп
;;;879    snmp_lakb_damp1[i][137]=' ';
;;;880    snmp_lakb_damp1[i][138]=ABCDEF[(lakb_damp[i][46])>>4];			//Дамп
;;;881    snmp_lakb_damp1[i][139]=ABCDEF[(lakb_damp[i][46])&0x0f];			//Дамп
;;;882    snmp_lakb_damp1[i][140]=' ';
;;;883    snmp_lakb_damp1[i][141]=ABCDEF[(lakb_damp[i][47])>>4];			//Дамп
;;;884    snmp_lakb_damp1[i][142]=ABCDEF[(lakb_damp[i][47])&0x0f];			//Дамп
;;;885    snmp_lakb_damp1[i][143]=' ';
;;;886    snmp_lakb_damp1[i][144]=ABCDEF[(lakb_damp[i][48])>>4];			//Дамп
;;;887    snmp_lakb_damp1[i][145]=ABCDEF[(lakb_damp[i][48])&0x0f];			//Дамп
;;;888    snmp_lakb_damp1[i][146]=' ';
;;;889    snmp_lakb_damp1[i][147]=ABCDEF[(lakb_damp[i][49])>>4];			//Дамп
;;;890    snmp_lakb_damp1[i][148]=ABCDEF[(lakb_damp[i][49])&0x0f];			//Дамп
;;;891    snmp_lakb_damp1[i][149]=0;  */
;;;892    }
;;;893    
;;;894    #ifdef UKU_TELECORE2017
;;;895    snmp_warm_sign=0;
;;;896    if(TELECORE2017_KLIMAT_WARM_SIGNAL==0) snmp_warm_sign=2;
;;;897    else if(TELECORE2017_KLIMAT_WARM_SIGNAL==1) snmp_warm_sign=1;
;;;898    snmp_cool_sign=0;
;;;899    if(TELECORE2017_KLIMAT_VENT_SIGNAL==0) snmp_cool_sign=2;
;;;900    else if(TELECORE2017_KLIMAT_VENT_SIGNAL==1) snmp_cool_sign=1;
;;;901    snmp_warm_on_temper=(signed char)TELECORE2017_KLIMAT_WARM_ON; 
;;;902    snmp_warm_off_temper=(signed char)TELECORE2017_KLIMAT_WARM_OFF;
;;;903    snmp_warm_q=(signed char)TELECORE2017_KLIMAT_CAP;	
;;;904    snmp_cool_20_temper=(signed char)TELECORE2017_KLIMAT_VENT_ON20;
;;;905    snmp_cool_40_temper=(signed char)TELECORE2017_KLIMAT_VENT_ON40;
;;;906    snmp_cool_60_temper=(signed char)TELECORE2017_KLIMAT_VENT_ON60;
;;;907    snmp_cool_80_temper=(signed char)TELECORE2017_KLIMAT_VENT_ON80;
;;;908    snmp_cool_100_temper=(signed char)TELECORE2017_KLIMAT_VENT_ON100;
;;;909    snmp_cool_20_dtemper=(signed char)TELECORE2017_KLIMAT_DVENT_ON20;
;;;910    snmp_cool_40_dtemper=(signed char)TELECORE2017_KLIMAT_DVENT_ON40;
;;;911    snmp_cool_60_dtemper=(signed char)TELECORE2017_KLIMAT_DVENT_ON60;
;;;912    snmp_cool_80_dtemper=(signed char)TELECORE2017_KLIMAT_DVENT_ON80;
;;;913    snmp_cool_100_dtemper=(signed char)TELECORE2017_KLIMAT_DVENT_ON100;
;;;914    snmp_warm_stat=0;
;;;915    if(warm_stat_k==wsON) snmp_warm_stat=1;
;;;916    #endif
;;;917    }
;;;918    //-----------------------------------------------
                          ENDP

000012  0000              DCW      0x0000
                  |L17.20|
                          DCD      ||.data||

                          AREA ||.bss||, DATA, NOINIT, ALIGN=1

                  temp_str
                          %        20
                  snmp_location
                          %        100
                  snmp_bps_number
                          %        16
                  snmp_bps_voltage
                          %        16
                  snmp_bps_current
                          %        16
                  snmp_bps_temperature
                          %        16
                  snmp_bps_stat
                          %        16
                  snmp_spc_trap_message
                          %        100
                  snmp_avt_number
                          %        12
                  snmp_avt_stat
                          %        12
                  snmp_sk_name
                          %        80
                  snmp_lakb_number
                          %        14
                  snmp_lakb_voltage
                          %        14
                  snmp_lakb_max_cell_voltage
                          %        14
                  snmp_lakb_min_cell_voltage
                          %        14
                  snmp_lakb_max_cell_temperature
                          %        14
                  snmp_lakb_min_cell_temperature
                          %        14
                  snmp_lakb_ch_curr
                          %        14
                  snmp_lakb_dsch_curr
                          %        14
                  snmp_lakb_rat_cap
                          %        14
                  snmp_lakb_soh
                          %        14
                  snmp_lakb_soc
                          %        14
                  snmp_lakb_cclv
                          %        14
                  snmp_lakb_rbt
                          %        14
                  snmp_lakb_flags1
                          %        14
                  snmp_lakb_flags2
                          %        14
                  obj
                          %        20

                          AREA ||area_number.20||, DATA, NOINIT, ALIGN=0

                          EXPORTAS ||area_number.20||, ||.bss||
                  snmp_community
                          %        10

                          AREA ||area_number.21||, DATA, NOINIT, ALIGN=0

                          EXPORTAS ||area_number.21||, ||.bss||
                  snmp_lakb_damp1
                          %        450

                          AREA ||area_number.22||, DATA, NOINIT, ALIGN=0

                          EXPORTAS ||area_number.22||, ||.bss||
                  snmp_lakb_damp2
                          %        100

                          AREA ||.constdata||, DATA, READONLY, ALIGN=2

000000  20202020          DCB      0x20,0x20,0x20,0x20
000004  20202020          DCB      0x20,0x20,0x20,0x20
000008  20202020          DCB      0x20,0x20,0x20,0x20
00000c  20202020          DCB      0x20,0x20,0x20,0x20
000010  20202020          DCB      0x20,0x20,0x20,0x20
000014  20202020          DCB      0x20,0x20,0x20,0x20
000018  20202020          DCB      0x20,0x20,0x20,0x20
00001c  20202020          DCB      0x20,0x20,0x20,0x20
000020  20202020          DCB      0x20,0x20,0x20,0x20
000024  20202020          DCB      0x20,0x20,0x20,0x20
000028  20202020          DCB      0x20,0x20,0x20,0x20
00002c  20202020          DCB      0x20,0x20,0x20,0x20
000030  20202020          DCB      0x20,0x20,0x20,0x20
000034  20202020          DCB      0x20,0x20,0x20,0x20
000038  20202020          DCB      0x20,0x20,0x20,0x20
00003c  20202020          DCB      0x20,0x20,0x20,0x20
000040  20202020          DCB      0x20,0x20,0x20,0x20
000044  20202020          DCB      0x20,0x20,0x20,0x20
000048  20202020          DCB      0x20,0x20,0x20,0x20
00004c  20202020          DCB      0x20,0x20,0x20,0x20
000050  00                DCB      0x00

                          AREA ||.data||, DATA, ALIGN=2

                  snmp_warm_sign
000000  00                DCB      0x00
                  snmp_cool_sign
000001  00                DCB      0x00
                  snmp_warm_on_temper
000002  00                DCB      0x00
                  snmp_warm_off_temper
000003  00                DCB      0x00
                  snmp_warm_q
000004  00                DCB      0x00
                  snmp_cool_100_temper
000005  00                DCB      0x00
                  snmp_cool_80_temper
000006  00                DCB      0x00
                  snmp_cool_60_temper
000007  00                DCB      0x00
                  snmp_cool_40_temper
000008  00                DCB      0x00
                  snmp_cool_20_temper
000009  00                DCB      0x00
                  snmp_cool_20_dtemper
00000a  00                DCB      0x00
                  snmp_trap_send_i
00000b  00                DCB      0x00
                  snmp_trap_send_ii
00000c  0000              DCB      0x00,0x00
                  snmp_numofbat
00000e  0000              DCB      0x00,0x00
                  snmp_numofbps
000010  0000              DCB      0x00,0x00
                  snmp_numofinv
000012  0000              DCB      0x00,0x00
                  snmp_numofavt
000014  0000              DCB      0x00,0x00
                  snmp_numofdt
000016  0000              DCB      0x00,0x00
                  snmp_numofsk
000018  0000              DCB      0x00,0x00
                  snmp_numofevents
00001a  0000              DCB      0x00,0x00
                  snmp_mains_power_voltage
00001c  0000              DCB      0x00,0x00
                  snmp_mains_power_frequency
00001e  0000              DCB      0x00,0x00
                  snmp_mains_power_voltage_phaseA
000020  0000              DCB      0x00,0x00
                  snmp_mains_power_voltage_phaseB
000022  0000              DCB      0x00,0x00
                  snmp_mains_power_voltage_phaseC
000024  0000              DCB      0x00,0x00
                  snmp_load_voltage
000026  0000              DCB      0x00,0x00
                  snmp_load_current
000028  0000              DCB      0x00,0x00
                  snmp_spc_trap_value_0
00002a  0000              DCB      0x00,0x00
                  snmp_spc_trap_value_1
00002c  0000              DCB      0x00,0x00
                  snmp_spc_trap_value_2
00002e  0000              DCB      0x00,0x00
                  snmp_energy_vvod_phase_a
000030  0000              DCB      0x00,0x00
                  snmp_energy_vvod_phase_b
000032  0000              DCB      0x00,0x00
                  snmp_energy_vvod_phase_c
000034  0000              DCB      0x00,0x00
                  snmp_energy_pes_phase_a
000036  0000              DCB      0x00,0x00
                  snmp_energy_pes_phase_b
000038  0000              DCB      0x00,0x00
                  snmp_energy_pes_phase_c
00003a  0000              DCB      0x00,0x00
                  snmp_energy_input_voltage
00003c  0000              DCB      0x00,0x00
                  snmp_energy_current_energy
00003e  0000              DCB      0x00,0x00
                  snmp_command
000040  0000              DCB      0x00,0x00
                  snmp_command_parametr
000042  0000              DCB      0x00,0x00
                  snmp_zv_en
000044  0000              DCB      0x00,0x00
                  snmp_alarm_auto_disable
000046  0000              DCB      0x00,0x00
                  snmp_bat_test_time
000048  0000              DCB      0x00,0x00
                  snmp_u_max
00004a  0000              DCB      0x00,0x00
                  snmp_u_sign
00004c  0000              DCB      0x00,0x00
                  snmp_u_min_power
00004e  0000              DCB      0x00,0x00
                  snmp_u_withouth_bat
000050  0000              DCB      0x00,0x00
                  snmp_control_current
000052  0000              DCB      0x00,0x00
                  snmp_max_charge_current
000054  0000              DCB      0x00,0x00
                  snmp_max_current
000056  0000              DCB      0x00,0x00
                  snmp_min_current
000058  0000              DCB      0x00,0x00
                  snmp_powerup_psu_timeout
00005a  0000              DCB      0x00,0x00
                  snmp_max_temperature
00005c  0000              DCB      0x00,0x00
                  snmp_tsign_bat
00005e  0000              DCB      0x00,0x00
                  snmp_tmax_bat
000060  0000              DCB      0x00,0x00
                  snmp_tsign_bps
000062  0000              DCB      0x00,0x00
                  snmp_tmax_bps
000064  0000              DCB      0x00,0x00
                  snmp_bat_part_alarm
000066  0000              DCB      0x00,0x00
                  snmp_power_cnt_adress
000068  0000              DCB      0x00,0x00
                  snmp_klimat_box_temper
00006a  0000              DCB      0x00,0x00
                  snmp_klimat_settings_box_alarm
00006c  0000              DCB      0x00,0x00
                  snmp_klimat_settings_vent_on
00006e  0000              DCB      0x00,0x00
                  snmp_klimat_settings_vent_off
000070  0000              DCB      0x00,0x00
                  snmp_klimat_settings_warm_on
000072  0000              DCB      0x00,0x00
                  snmp_klimat_settings_warm_off
000074  0000              DCB      0x00,0x00
                  snmp_klimat_settings_load_on
000076  0000              DCB      0x00,0x00
                  snmp_klimat_settings_load_off
000078  0000              DCB      0x00,0x00
                  snmp_klimat_settings_batt_on
00007a  0000              DCB      0x00,0x00
                  snmp_klimat_settings_batt_off
00007c  0000              DCB      0x00,0x00
                  snmp_dt_ext
00007e  0000              DCB      0x00,0x00
                  snmp_dt_msan
000080  0000              DCB      0x00,0x00
                  snmp_dt_epu
000082  0000              DCB      0x00,0x00
                  snmp_dt_number
000084  000000            DCB      0x00,0x00,0x00
                  snmp_dt_error
000087  00                DCB      0x00
000088  0000              DCB      0x00,0x00
                  snmp_lakb_cell_temperature_1
00008a  0000              DCB      0x00,0x00
00008c  00                DCB      0x00
                  snmp_lakb_cell_temperature_2
00008d  000000            DCB      0x00,0x00,0x00
                  snmp_lakb_cell_temperature_3
000090  000000            DCB      0x00,0x00,0x00
                  snmp_lakb_cell_temperature_4
000093  00                DCB      0x00
000094  0000              DCB      0x00,0x00
                  snmp_lakb_cell_temperature_ambient
000096  0000              DCB      0x00,0x00
000098  00                DCB      0x00
                  snmp_lakb_cell_temperature_power
000099  000000            DCB      0x00,0x00,0x00
                  snmp_sernum
                          DCD      0x00000000
                  snmp_bat_number
                          DCD      0x00000000
                  snmp_bat_voltage
                          DCD      0x00000000
                  snmp_bat_current
                          DCD      0x00000000
                  snmp_bat_temperature
                          DCD      0x00000000
                  snmp_bat_capacity
                          DCD      0x00000000
                  snmp_bat_charge
                          DCD      0x00000000
                  snmp_bat_status
                          DCD      0x00000000
                  snmp_bat_part_voltage
                          DCD      0x00000000
                  snmp_energy_total_energy
                          DCD      0x00000000
                  snmp_sk_number
                          DCD      0x00000000
                  snmp_sk_aktiv
                          DCD      0x00000000
                  snmp_sk_alarm_aktiv
                          DCD      0x00000000
                  snmp_sk_alarm
                          DCD      0x00000000
                  temp_ip
                          DCD      0x00000000
                  snmp_inv_number
                          DCD      0x00000000
0000dc  0000              DCB      0x00,0x00
                  snmp_inv_voltage
0000de  0000              DCB      0x00,0x00
                          DCD      0x00000000
                  snmp_inv_current
                          DCD      0x00000000
0000e8  0000              DCB      0x00,0x00
                  snmp_inv_temperature
0000ea  0000              DCB      0x00,0x00
                          DCD      0x00000000
                  snmp_inv_stat
                          DCD      0x00000000
0000f4  0000              DCB      0x00,0x00
                  snmp_dt_temper
0000f6  0000              DCB      0x00,0x00
                          DCD      0x00000000
                  snmp_makb_connect_status
                          %        8
                  snmp_makb_voltage0
                          %        8
                  snmp_makb_voltage1
                          %        8
                  snmp_makb_voltage2
                          %        8
                  snmp_makb_voltage3
                          %        8
                  snmp_makb_voltage4
                          %        8
                  snmp_makb_temper0
                          %        8
                  snmp_makb_temper1
                          %        8
                  snmp_makb_temper2
                          %        8
                  snmp_makb_temper3
                          %        8
                  snmp_makb_temper4
                          %        8
                  snmp_makb_temper0_stat
                          %        8
                  snmp_makb_temper1_stat
                          %        8
                  snmp_makb_temper2_stat
                          %        8
                  snmp_makb_temper3_stat
                          %        8
                  snmp_makb_temper4_stat
                          %        8
                  snmp_log
00017c  30314061          DCB      0x30,0x31,0x40,0x61
000180  62636440          DCB      0x62,0x63,0x64,0x40
000184  65666768          DCB      0x65,0x66,0x67,0x68
000188  40696a6b          DCB      0x40,0x69,0x6a,0x6b
00018c  6c403031          DCB      0x6c,0x40,0x30,0x31
000190  40202020          DCB      0x40,0x20,0x20,0x20
000194  20202020          DCB      0x20,0x20,0x20,0x20
000198  20000000          DCB      0x20,0x00,0x00,0x00
                          %        96
0001fc  30324061          DCB      0x30,0x32,0x40,0x61
000200  62636440          DCB      0x62,0x63,0x64,0x40
000204  65666768          DCB      0x65,0x66,0x67,0x68
000208  40696a6b          DCB      0x40,0x69,0x6a,0x6b
00020c  6c403032          DCB      0x6c,0x40,0x30,0x32
000210  40202020          DCB      0x40,0x20,0x20,0x20
000214  20202020          DCB      0x20,0x20,0x20,0x20
000218  20000000          DCB      0x20,0x00,0x00,0x00
                          %        96
00027c  30334061          DCB      0x30,0x33,0x40,0x61
000280  62636440          DCB      0x62,0x63,0x64,0x40
000284  65666768          DCB      0x65,0x66,0x67,0x68
000288  40696a6b          DCB      0x40,0x69,0x6a,0x6b
00028c  6c403033          DCB      0x6c,0x40,0x30,0x33
000290  40202020          DCB      0x40,0x20,0x20,0x20
000294  20202020          DCB      0x20,0x20,0x20,0x20
000298  20000000          DCB      0x20,0x00,0x00,0x00
                          %        96
0002fc  30344061          DCB      0x30,0x34,0x40,0x61
000300  62636440          DCB      0x62,0x63,0x64,0x40
000304  65666768          DCB      0x65,0x66,0x67,0x68
000308  40696a6b          DCB      0x40,0x69,0x6a,0x6b
00030c  6c403034          DCB      0x6c,0x40,0x30,0x34
000310  40202020          DCB      0x40,0x20,0x20,0x20
000314  20202020          DCB      0x20,0x20,0x20,0x20
000318  20000000          DCB      0x20,0x00,0x00,0x00
                          %        96
00037c  30354061          DCB      0x30,0x35,0x40,0x61
000380  62636440          DCB      0x62,0x63,0x64,0x40
000384  65666768          DCB      0x65,0x66,0x67,0x68
000388  40696a6b          DCB      0x40,0x69,0x6a,0x6b
00038c  6c403035          DCB      0x6c,0x40,0x30,0x35
000390  40202020          DCB      0x40,0x20,0x20,0x20
000394  20202020          DCB      0x20,0x20,0x20,0x20
000398  20000000          DCB      0x20,0x00,0x00,0x00
                          %        96
0003fc  30364061          DCB      0x30,0x36,0x40,0x61
000400  62636440          DCB      0x62,0x63,0x64,0x40
000404  65666768          DCB      0x65,0x66,0x67,0x68
000408  40696a6b          DCB      0x40,0x69,0x6a,0x6b
00040c  6c403036          DCB      0x6c,0x40,0x30,0x36
000410  40202020          DCB      0x40,0x20,0x20,0x20
000414  20202020          DCB      0x20,0x20,0x20,0x20
000418  20000000          DCB      0x20,0x00,0x00,0x00
                          %        96
00047c  30374061          DCB      0x30,0x37,0x40,0x61
000480  62636440          DCB      0x62,0x63,0x64,0x40
000484  65666768          DCB      0x65,0x66,0x67,0x68
000488  40696a6b          DCB      0x40,0x69,0x6a,0x6b
00048c  6c403037          DCB      0x6c,0x40,0x30,0x37
000490  40202020          DCB      0x40,0x20,0x20,0x20
000494  20202020          DCB      0x20,0x20,0x20,0x20
000498  20000000          DCB      0x20,0x00,0x00,0x00
                          %        96
0004fc  30384061          DCB      0x30,0x38,0x40,0x61
000500  62636440          DCB      0x62,0x63,0x64,0x40
000504  65666768          DCB      0x65,0x66,0x67,0x68
000508  40696a6b          DCB      0x40,0x69,0x6a,0x6b
00050c  6c403038          DCB      0x6c,0x40,0x30,0x38
000510  40202020          DCB      0x40,0x20,0x20,0x20
000514  20202020          DCB      0x20,0x20,0x20,0x20
000518  20000000          DCB      0x20,0x00,0x00,0x00
                          %        96
00057c  30394061          DCB      0x30,0x39,0x40,0x61
000580  62636440          DCB      0x62,0x63,0x64,0x40
000584  65666768          DCB      0x65,0x66,0x67,0x68
000588  40696a6b          DCB      0x40,0x69,0x6a,0x6b
00058c  6c403039          DCB      0x6c,0x40,0x30,0x39
000590  40202020          DCB      0x40,0x20,0x20,0x20
000594  20202020          DCB      0x20,0x20,0x20,0x20
000598  20000000          DCB      0x20,0x00,0x00,0x00
                          %        96
0005fc  31304061          DCB      0x31,0x30,0x40,0x61
000600  62636440          DCB      0x62,0x63,0x64,0x40
000604  65666768          DCB      0x65,0x66,0x67,0x68
000608  40696a6b          DCB      0x40,0x69,0x6a,0x6b
00060c  6c403130          DCB      0x6c,0x40,0x31,0x30
000610  40202020          DCB      0x40,0x20,0x20,0x20
000614  20202020          DCB      0x20,0x20,0x20,0x20
000618  20000000          DCB      0x20,0x00,0x00,0x00
                          %        96
00067c  31314061          DCB      0x31,0x31,0x40,0x61
000680  62636440          DCB      0x62,0x63,0x64,0x40
000684  65666768          DCB      0x65,0x66,0x67,0x68
000688  40696a6b          DCB      0x40,0x69,0x6a,0x6b
00068c  6c403131          DCB      0x6c,0x40,0x31,0x31
000690  40202020          DCB      0x40,0x20,0x20,0x20
000694  20202020          DCB      0x20,0x20,0x20,0x20
000698  20000000          DCB      0x20,0x00,0x00,0x00
                          %        96
0006fc  31324061          DCB      0x31,0x32,0x40,0x61
000700  62636440          DCB      0x62,0x63,0x64,0x40
000704  65666768          DCB      0x65,0x66,0x67,0x68
000708  40696a6b          DCB      0x40,0x69,0x6a,0x6b
00070c  6c403132          DCB      0x6c,0x40,0x31,0x32
000710  40202020          DCB      0x40,0x20,0x20,0x20
000714  20202020          DCB      0x20,0x20,0x20,0x20
000718  20000000          DCB      0x20,0x00,0x00,0x00
                          %        96
00077c  31334061          DCB      0x31,0x33,0x40,0x61
000780  62636440          DCB      0x62,0x63,0x64,0x40
000784  65666768          DCB      0x65,0x66,0x67,0x68
000788  40696a6b          DCB      0x40,0x69,0x6a,0x6b
00078c  6c403133          DCB      0x6c,0x40,0x31,0x33
000790  40202020          DCB      0x40,0x20,0x20,0x20
000794  20202020          DCB      0x20,0x20,0x20,0x20
000798  20000000          DCB      0x20,0x00,0x00,0x00
                          %        96
0007fc  31344061          DCB      0x31,0x34,0x40,0x61
000800  62636440          DCB      0x62,0x63,0x64,0x40
000804  65666768          DCB      0x65,0x66,0x67,0x68
000808  40696a6b          DCB      0x40,0x69,0x6a,0x6b
00080c  6c403134          DCB      0x6c,0x40,0x31,0x34
000810  40202020          DCB      0x40,0x20,0x20,0x20
000814  20202020          DCB      0x20,0x20,0x20,0x20
000818  20000000          DCB      0x20,0x00,0x00,0x00
                          %        96
00087c  31354061          DCB      0x31,0x35,0x40,0x61
000880  62636440          DCB      0x62,0x63,0x64,0x40
000884  65666768          DCB      0x65,0x66,0x67,0x68
000888  40696a6b          DCB      0x40,0x69,0x6a,0x6b
00088c  6c403135          DCB      0x6c,0x40,0x31,0x35
000890  40202020          DCB      0x40,0x20,0x20,0x20
000894  20202020          DCB      0x20,0x20,0x20,0x20
000898  20000000          DCB      0x20,0x00,0x00,0x00
                          %        96
0008fc  31364061          DCB      0x31,0x36,0x40,0x61
000900  62636440          DCB      0x62,0x63,0x64,0x40
000904  65666768          DCB      0x65,0x66,0x67,0x68
000908  40696a6b          DCB      0x40,0x69,0x6a,0x6b
00090c  6c403136          DCB      0x6c,0x40,0x31,0x36
000910  40202020          DCB      0x40,0x20,0x20,0x20
000914  20202020          DCB      0x20,0x20,0x20,0x20
000918  20000000          DCB      0x20,0x00,0x00,0x00
                          %        96
00097c  31374061          DCB      0x31,0x37,0x40,0x61
000980  62636440          DCB      0x62,0x63,0x64,0x40
000984  65666768          DCB      0x65,0x66,0x67,0x68
000988  40696a6b          DCB      0x40,0x69,0x6a,0x6b
00098c  6c403137          DCB      0x6c,0x40,0x31,0x37
000990  40202020          DCB      0x40,0x20,0x20,0x20
000994  20202020          DCB      0x20,0x20,0x20,0x20
000998  20000000          DCB      0x20,0x00,0x00,0x00
                          %        96
0009fc  31384061          DCB      0x31,0x38,0x40,0x61
000a00  62636440          DCB      0x62,0x63,0x64,0x40
000a04  65666768          DCB      0x65,0x66,0x67,0x68
000a08  40696a6b          DCB      0x40,0x69,0x6a,0x6b
000a0c  6c403138          DCB      0x6c,0x40,0x31,0x38
000a10  40202020          DCB      0x40,0x20,0x20,0x20
000a14  20202020          DCB      0x20,0x20,0x20,0x20
000a18  20000000          DCB      0x20,0x00,0x00,0x00
                          %        96
000a7c  31394061          DCB      0x31,0x39,0x40,0x61
000a80  62636440          DCB      0x62,0x63,0x64,0x40
000a84  65666768          DCB      0x65,0x66,0x67,0x68
000a88  40696a6b          DCB      0x40,0x69,0x6a,0x6b
000a8c  6c403139          DCB      0x6c,0x40,0x31,0x39
000a90  40202020          DCB      0x40,0x20,0x20,0x20
000a94  20202020          DCB      0x20,0x20,0x20,0x20
000a98  20000000          DCB      0x20,0x00,0x00,0x00
                          %        96
000afc  32304061          DCB      0x32,0x30,0x40,0x61
000b00  62636440          DCB      0x62,0x63,0x64,0x40
000b04  65666768          DCB      0x65,0x66,0x67,0x68
000b08  40696a6b          DCB      0x40,0x69,0x6a,0x6b
000b0c  6c403230          DCB      0x6c,0x40,0x32,0x30
000b10  40202020          DCB      0x40,0x20,0x20,0x20
000b14  20202020          DCB      0x20,0x20,0x20,0x20
000b18  20000000          DCB      0x20,0x00,0x00,0x00
                          %        96
000b7c  32314061          DCB      0x32,0x31,0x40,0x61
000b80  62636440          DCB      0x62,0x63,0x64,0x40
000b84  65666768          DCB      0x65,0x66,0x67,0x68
000b88  40696a6b          DCB      0x40,0x69,0x6a,0x6b
000b8c  6c403231          DCB      0x6c,0x40,0x32,0x31
000b90  40202020          DCB      0x40,0x20,0x20,0x20
000b94  20202020          DCB      0x20,0x20,0x20,0x20
000b98  20000000          DCB      0x20,0x00,0x00,0x00
                          %        96
000bfc  32324061          DCB      0x32,0x32,0x40,0x61
000c00  62636440          DCB      0x62,0x63,0x64,0x40
000c04  65666768          DCB      0x65,0x66,0x67,0x68
000c08  40696a6b          DCB      0x40,0x69,0x6a,0x6b
000c0c  6c403232          DCB      0x6c,0x40,0x32,0x32
000c10  40202020          DCB      0x40,0x20,0x20,0x20
000c14  20202020          DCB      0x20,0x20,0x20,0x20
000c18  20000000          DCB      0x20,0x00,0x00,0x00
                          %        96
000c7c  32334061          DCB      0x32,0x33,0x40,0x61
000c80  62636440          DCB      0x62,0x63,0x64,0x40
000c84  65666768          DCB      0x65,0x66,0x67,0x68
000c88  40696a6b          DCB      0x40,0x69,0x6a,0x6b
000c8c  6c403233          DCB      0x6c,0x40,0x32,0x33
000c90  40202020          DCB      0x40,0x20,0x20,0x20
000c94  20202020          DCB      0x20,0x20,0x20,0x20
000c98  20000000          DCB      0x20,0x00,0x00,0x00
                          %        96
000cfc  32344061          DCB      0x32,0x34,0x40,0x61
000d00  62636440          DCB      0x62,0x63,0x64,0x40
000d04  65666768          DCB      0x65,0x66,0x67,0x68
000d08  40696a6b          DCB      0x40,0x69,0x6a,0x6b
000d0c  6c403234          DCB      0x6c,0x40,0x32,0x34
000d10  40202020          DCB      0x40,0x20,0x20,0x20
000d14  20202020          DCB      0x20,0x20,0x20,0x20
000d18  20000000          DCB      0x20,0x00,0x00,0x00
                          %        96
000d7c  32354061          DCB      0x32,0x35,0x40,0x61
000d80  62636440          DCB      0x62,0x63,0x64,0x40
000d84  65666768          DCB      0x65,0x66,0x67,0x68
000d88  40696a6b          DCB      0x40,0x69,0x6a,0x6b
000d8c  6c403235          DCB      0x6c,0x40,0x32,0x35
000d90  40202020          DCB      0x40,0x20,0x20,0x20
000d94  20202020          DCB      0x20,0x20,0x20,0x20
000d98  20000000          DCB      0x20,0x00,0x00,0x00
                          %        96
000dfc  32364061          DCB      0x32,0x36,0x40,0x61
000e00  62636440          DCB      0x62,0x63,0x64,0x40
000e04  65666768          DCB      0x65,0x66,0x67,0x68
000e08  40696a6b          DCB      0x40,0x69,0x6a,0x6b
000e0c  6c403236          DCB      0x6c,0x40,0x32,0x36
000e10  40202020          DCB      0x40,0x20,0x20,0x20
000e14  20202020          DCB      0x20,0x20,0x20,0x20
000e18  20000000          DCB      0x20,0x00,0x00,0x00
                          %        96
000e7c  32374061          DCB      0x32,0x37,0x40,0x61
000e80  62636440          DCB      0x62,0x63,0x64,0x40
000e84  65666768          DCB      0x65,0x66,0x67,0x68
000e88  40696a6b          DCB      0x40,0x69,0x6a,0x6b
000e8c  6c403237          DCB      0x6c,0x40,0x32,0x37
000e90  40202020          DCB      0x40,0x20,0x20,0x20
000e94  20202020          DCB      0x20,0x20,0x20,0x20
000e98  20000000          DCB      0x20,0x00,0x00,0x00
                          %        96
000efc  32384061          DCB      0x32,0x38,0x40,0x61
000f00  62636440          DCB      0x62,0x63,0x64,0x40
000f04  65666768          DCB      0x65,0x66,0x67,0x68
000f08  40696a6b          DCB      0x40,0x69,0x6a,0x6b
000f0c  6c403238          DCB      0x6c,0x40,0x32,0x38
000f10  40202020          DCB      0x40,0x20,0x20,0x20
000f14  20202020          DCB      0x20,0x20,0x20,0x20
000f18  20000000          DCB      0x20,0x00,0x00,0x00
                          %        96
000f7c  32394061          DCB      0x32,0x39,0x40,0x61
000f80  62636440          DCB      0x62,0x63,0x64,0x40
000f84  65666768          DCB      0x65,0x66,0x67,0x68
000f88  40696a6b          DCB      0x40,0x69,0x6a,0x6b
000f8c  6c403239          DCB      0x6c,0x40,0x32,0x39
000f90  40202020          DCB      0x40,0x20,0x20,0x20
000f94  20202020          DCB      0x20,0x20,0x20,0x20
000f98  20000000          DCB      0x20,0x00,0x00,0x00
                          %        96
000ffc  33304061          DCB      0x33,0x30,0x40,0x61
001000  62636440          DCB      0x62,0x63,0x64,0x40
001004  65666768          DCB      0x65,0x66,0x67,0x68
001008  40696a6b          DCB      0x40,0x69,0x6a,0x6b
00100c  6c403330          DCB      0x6c,0x40,0x33,0x30
001010  40202020          DCB      0x40,0x20,0x20,0x20
001014  20202020          DCB      0x20,0x20,0x20,0x20
001018  20000000          DCB      0x20,0x00,0x00,0x00
                          %        4448

                          AREA ||area_number.26||, DATA, ALIGN=1

                          EXPORTAS ||area_number.26||, ||.data||
                  snmp_device_code
000000  0000              DCB      0x00,0x00

                          AREA ||area_number.27||, DATA, ALIGN=1

                          EXPORTAS ||area_number.27||, ||.data||
                  snmp_sernum_lsb
000000  0000              DCB      0x00,0x00

                          AREA ||area_number.28||, DATA, ALIGN=1

                          EXPORTAS ||area_number.28||, ||.data||
                  snmp_sernum_msb
000000  0000              DCB      0x00,0x00

                          AREA ||area_number.29||, DATA, ALIGN=1

                          EXPORTAS ||area_number.29||, ||.data||
                  snmp_mains_power_status
000000  0000              DCB      0x00,0x00

                          AREA ||area_number.30||, DATA, ALIGN=1

                          EXPORTAS ||area_number.30||, ||.data||
                  snmp_mains_power_alarm
000000  0000              DCB      0x00,0x00

                          AREA ||area_number.31||, DATA, ALIGN=1

                          EXPORTAS ||area_number.31||, ||.data||
                  snmp_makb_number
                          %        8

                          AREA ||area_number.32||, DATA, ALIGN=1

                          EXPORTAS ||area_number.32||, ||.data||
                  snmp_spc_stat
000000  0000              DCB      0x00,0x00

                          AREA ||area_number.33||, DATA, ALIGN=1

                          EXPORTAS ||area_number.33||, ||.data||
                  snmp_main_bps
000000  0000              DCB      0x00,0x00

                          AREA ||area_number.34||, DATA, ALIGN=1

                          EXPORTAS ||area_number.34||, ||.data||
                  snmp_u_min
000000  0000              DCB      0x00,0x00

                          AREA ||area_number.35||, DATA, ALIGN=1

                          EXPORTAS ||area_number.35||, ||.data||
                  snmp_u_0_grad
000000  0000              DCB      0x00,0x00

                          AREA ||area_number.36||, DATA, ALIGN=1

                          EXPORTAS ||area_number.36||, ||.data||
                  snmp_u_20_grad
000000  0000              DCB      0x00,0x00

                          AREA ||area_number.37||, DATA, ALIGN=1

                          EXPORTAS ||area_number.37||, ||.data||
                  snmp_uvz
000000  0000              DCB      0x00,0x00

                          AREA ||area_number.38||, DATA, ALIGN=1

                          EXPORTAS ||area_number.38||, ||.data||
                  snmp_max_current_koef
000000  0000              DCB      0x00,0x00

                          AREA ||area_number.39||, DATA, ALIGN=1

                          EXPORTAS ||area_number.39||, ||.data||
                  snmp_up_charge_koef
000000  0000              DCB      0x00,0x00

                          AREA ||area_number.40||, DATA, ALIGN=0

                          EXPORTAS ||area_number.40||, ||.data||
                  snmp_cool_100_dtemper
000000  00                DCB      0x00

                          AREA ||area_number.41||, DATA, ALIGN=0

                          EXPORTAS ||area_number.41||, ||.data||
                  snmp_cool_80_dtemper
000000  00                DCB      0x00

                          AREA ||area_number.42||, DATA, ALIGN=0

                          EXPORTAS ||area_number.42||, ||.data||
                  snmp_cool_60_dtemper
000000  00                DCB      0x00

                          AREA ||area_number.43||, DATA, ALIGN=0

                          EXPORTAS ||area_number.43||, ||.data||
                  snmp_cool_40_dtemper
000000  00                DCB      0x00

                          AREA ||area_number.44||, DATA, ALIGN=0

                          EXPORTAS ||area_number.44||, ||.data||
                  snmp_warm_stat
000000  00                DCB      0x00
